(dp0
S'643'
p1
(lp2
Vside
p3
asS'344'
p4
(lp5
Vpeople
p6
asS'345'
p7
(lp8
Vservice
p9
asS'346'
p10
(lp11
Vprices
p12
aVplace
p13
asS'347'
p14
(lp15
Vmenu
p16
aVroll
p17
asS'340'
p18
(lp19
Vrice
p20
aVquality
p21
asS'341'
p22
(lp23
Vrice
p24
aVsushi
p25
asS'342'
p26
(lp27
Vfish
p28
asS'343'
p29
(lp30
Vcuisine
p31
aVexperience
p32
aVrestaurant
p33
aVone
p34
asS'348'
p35
(lp36
Vsushi
p37
aVexperience
p38
asS'349'
p39
(lp40
Vvalue
p41
asS'2919'
p42
(lp43
Vreviewer
p44
asS'2318'
p45
(lp46
Vdinner
p47
aVchicken
p48
aVnaan
p49
asS'2316'
p50
(lp51
Vdinner
p52
aVpizza
p53
aVjoint
p54
aVkey
p55
ag55
asS'2317'
p56
(lp57
Vbeer
p58
asS'2314'
p59
(lp60
Vservice
p61
asS'2315'
p62
(lp63
Vplace
p64
asS'2312'
p65
(lp66
Vplace
p67
aVgem
p68
aVpizza
p69
asS'2311'
p70
(lp71
Vblock
p72
aVwalk
p73
asS'2184'
p74
(lp75
Vsake
p76
aVmartini
p77
asS'298'
p78
(lp79
Vcity
p80
aVlunch
p81
aVtimes
p82
asS'299'
p83
(lp84
Vservice
p85
aVbenedict
p86
asS'296'
p87
(lp88
Vcheese
p89
aVingredients
p90
aVplate
p91
aVtemperatures
p92
asS'297'
p93
(lp94
Vwater
p95
aVglass
p96
aVtable
p97
aVnightmare
p98
asS'294'
p99
(lp100
Vrestaurant
p101
asS'295'
p102
(lp103
Veverything
p104
asS'292'
p105
(lp106
Vtable
p107
aVbit
p108
aVfriends
p109
aVwait
p110
asS'293'
p111
(lp112
sS'291'
p113
(lp114
sS'587'
p115
(lp116
Vnight
p117
asS'270'
p118
(lp119
Vfood
p120
aVspot
p121
aVatmosphere
p122
aVneighborhood
p123
aVservice
p124
aVbeat
p125
asS'271'
p126
(lp127
Vdishes
p128
aVinnovators
p129
aVfusion
p130
aVjob
p131
asS'272'
p132
(lp133
Vfood
p134
aVlist
p135
aVwine
p136
aVbeers
p137
asS'273'
p138
(lp139
Vparty
p140
aVroom
p141
aVplanning
p142
asS'274'
p143
(lp144
Vstreet
p145
aVrestaurants
p146
aVblock
p147
aVrestaurant
p148
aVpath
p149
ag149
asS'275'
p150
(lp151
Vfusion
p152
ag152
aVcooking
p153
asS'276'
p154
(lp155
Vmenu
p156
aVmanager
p157
aVstaff
p158
aVsuggestions
p159
asS'277'
p160
(lp161
Vtaste
p162
aVappetizers
p163
aVchocolate
p164
aVscallops
p165
asS'278'
p166
(lp167
Vfood
p168
aVtouch
p169
ag169
asS'279'
p170
(lp171
Vfriends
p172
aVway
p173
aVcolonies
p174
asS'58'
p175
(lp176
Vfood
p177
aVbeer
p178
aVbar
p179
asS'2268'
p180
(lp181
Vproblem
p182
aVpeople
p183
aVtop
p184
asS'2269'
p185
(lp186
Vnyc
p187
aVpoint
p188
asS'2262'
p189
(lp190
Vtuna
p191
aVspicy
p192
aVroll
p193
aVshrimp
p194
aVappetizer
p195
aVrock
p196
aVtempura
p197
asS'2263'
p198
(lp199
Vbit
p200
aVservice
p201
asS'2260'
p202
(lp203
sS'2261'
p204
(lp205
Vsake
p206
aVlist
p207
asS'2267'
p208
(lp209
Vatmosphere
p210
aVmusic
p211
aVtouch
p212
asS'2442'
p213
(lp214
Vnew
p215
aVny
p216
asS'2443'
p217
(lp218
Vfood
p219
aVdumplings
p220
aVcurry
p221
aVservice
p222
aVbathroom
p223
asS'2440'
p224
(lp225
Vservice
p226
asS'2441'
p227
(lp228
Vdie
p229
asS'2446'
p230
(lp231
Vthing
p232
asS'2447'
p233
(lp234
sS'2444'
p235
(lp236
Vmenu
p237
aVappetizer
p238
aVlunch
p239
aVsecret
p240
asS'2445'
p241
(lp242
Vlunch
p243
aVbill
p244
aVdrinks
p245
asS'2448'
p246
(lp247
Vthai
p248
aVnoodles
p249
aVpad
p250
asS'2449'
p251
(lp252
Vmeal
p253
aVhusband
p254
aVwaitstaff
p255
asS'2189'
p256
(lp257
Vdeal
p258
aVservice
p259
asS'109'
p260
(lp261
Vlamb
p262
aVsalads
p263
aVvirgnin
p264
ag264
aVolive
p265
asS'102'
p266
(lp267
Vowner
p268
aVtable
p269
aVfront
p270
asS'103'
p271
(lp272
Vhome
p273
aVkitchen
p274
aVeating
p275
asS'101'
p276
(lp277
Vplace
p278
asS'3597'
p279
(lp280
Vweek
p281
aVreviews
p282
aVrestaurant
p283
asS'2042'
p284
(lp285
Vprices
p286
asS'2040'
p287
(lp288
Vkorma
p289
ag289
asS'2041'
p290
(lp291
Vthing
p292
asS'1297'
p293
(lp294
Vtimes
p295
asS'2839'
p296
(lp297
Vperson
p298
aVanything
p299
aVrestaurant
p300
aVanswers
p301
asS'2838'
p302
(lp303
Vdate
p304
aVplace
p305
aVrolls
p306
aVtime
p307
aVrun
p308
ag308
ag308
asS'3159'
p309
(lp310
Vcoffee
p311
asS'3519'
p312
(lp313
Vprices
p314
aVambience
p315
aVvillage
p316
aVwest
p317
asS'3518'
p318
(lp319
Vpad
p320
asS'3513'
p321
(lp322
Vstaff
p323
aVservice
p324
aVrestaurant
p325
asS'3512'
p326
(lp327
Vdish
p328
aVthings
p329
aVplace
p330
aVrestaurants
p331
aVcomparison
p332
aVneed
p333
aVcustomers
p334
asS'3511'
p335
(lp336
Vtable
p337
aVmanager
p338
aVorder
p339
aVsmile
p340
asS'3510'
p341
(lp342
Vservice
p343
aVexperience
p344
aVrestaurant
p345
aVweeks
p346
ag346
aVcustomer
p347
asS'3517'
p348
(lp349
Vfood
p350
asS'3516'
p351
(lp352
Vprices
p353
aVlunch
p354
aVdinner
p355
asS'3515'
p356
(lp357
Vthai
p358
aVrestaurant
p359
aVstaff
p360
asS'3514'
p361
(lp362
sS'2688'
p363
(lp364
Vfood
p365
aVmenu
p366
aVprice
p367
aVprixe
p368
aVfixe
p369
asS'2689'
p370
(lp371
Vcourse
p372
asS'2686'
p373
(lp374
Vdate
p375
aVfriends
p376
aVplace
p377
aVservice
p378
aVoccassion
p379
asS'2687'
p380
(lp381
Vevening
p382
aVpeople
p383
asS'2681'
p384
(lp385
Vpasta
p386
aVbean
p387
asS'3391'
p388
(lp389
sS'1434'
p390
(lp391
Vfood
p392
aVchicken
p393
aVplace
p394
aVgeneral
p395
asS'98'
p396
(lp397
Vfood
p398
asS'3392'
p399
(lp400
Vpopcorn
p401
asS'91'
p402
(lp403
sS'90'
p404
(lp405
Vmenu
p406
aVquality
p407
aVfixe
p408
aVpenny
p409
ag409
aVquantity
p410
asS'93'
p411
(lp412
Vfriends
p413
aVtime
p414
asS'92'
p415
(lp416
Vplace
p417
asS'95'
p418
(lp419
Vfood
p420
aVny
p421
aVitalian
p422
asS'94'
p423
(lp424
Vatmosphere
p425
aVservice
p426
aVdishes
p427
asS'97'
p428
(lp429
Vlist
p430
aVwine
p431
asS'96'
p432
(lp433
Vbusiness
p434
asS'3207'
p435
(lp436
Vmeal
p437
aVfeeling
p438
asS'3206'
p439
(lp440
Vtown
p441
asS'1621'
p442
(lp443
Vfood
p444
aVservice
p445
aVclass
p446
asS'3204'
p447
(lp448
Vdate
p449
aVspot
p450
aVoccasion
p451
asS'1627'
p452
(lp453
Veveryone
p454
aVservice
p455
aVregulars
p456
asS'1994'
p457
(lp458
Vfood
p459
asS'1625'
p460
(lp461
Vthing
p462
aVwaiters
p463
asS'1624'
p464
(lp465
Vfood
p466
aVthing
p467
aVservice
p468
asS'1998'
p469
(lp470
sS'1431'
p471
(lp472
sS'3209'
p473
(lp474
Vrestaurant
p475
asS'3208'
p476
(lp477
Vnight
p478
asS'2860'
p479
(lp480
Vfamily
p481
asS'2861'
p482
(lp483
Vbistro
p484
aVstaff
p485
aVincompetency
p486
ag486
asS'2862'
p487
(lp488
Vdishes
p489
aVrestaurant
p490
aVbill
p491
aVrest
p492
aVtimes
p493
aVtable
p494
aVminutes
p495
aVorder
p496
asS'2863'
p497
(lp498
sS'2864'
p499
(lp500
Vgem
p501
aVbut
p502
asS'558'
p503
(lp504
Vexperience
p505
aVemployees
p506
ag506
ag506
ag506
asS'555'
p507
(lp508
Vplace
p509
asS'554'
p510
(lp511
Vnew
p512
aVyork
p513
aVpeople
p514
asS'557'
p515
(lp516
Vservice
p517
aVfocus
p518
asS'556'
p519
(lp520
Vatmosphere
p521
aVservice
p522
aVarea
p523
aVlist
p524
aVreviews
p525
aVplace
p526
aVprices
p527
aVwine
p528
aVstandout
p529
ag529
asS'551'
p530
(lp531
Vwait
p532
asS'550'
p533
(lp534
Vfood
p535
aVtimes
p536
aVplace
p537
aVservice
p538
aVwine
p539
asS'553'
p540
(lp541
Vservice
p542
asS'552'
p543
(lp544
Vglass
p545
aVwine
p546
asS'1199'
p547
(lp548
Vsauces
p549
asS'1198'
p550
(lp551
Vnothing
p552
aVfish
p553
aVvariety
p554
asS'1191'
p555
(lp556
Vchef
p557
aVwaitress
p558
aVaverage
p559
asS'3343'
p560
(lp561
Vfood
p562
asS'3340'
p563
(lp564
Vdinner
p565
aVrestaurant
p566
aVlocation
p567
aVnight
p568
aVthursday
p569
asS'3341'
p570
(lp571
Vchef
p572
aVcourse
p573
aVstaff
p574
aVmonths
p575
asS'1195'
p576
(lp577
Vprices
p578
aVsushi
p579
aVanything
p580
asS'1194'
p581
(lp582
Vcouple
p583
aVtimes
p584
asS'1197'
p585
(lp586
Vhour
p587
asS'1196'
p588
(lp589
Vtable
p590
aVservice
p591
aVtime
p592
asS'1759'
p593
(lp594
Vhome
p595
asS'1756'
p596
(lp597
Vprice
p598
asS'1755'
p599
(lp600
Vpizza
p601
asS'1750'
p602
(lp603
Vblock
p604
aVend
p605
asS'1177'
p606
(lp607
Vso
p608
asS'1176'
p609
(lp610
Vdumplings
p611
aVreview
p612
asS'1175'
p613
(lp614
Vdumplings
p615
aVplate
p616
aVfood
p617
asS'1174'
p618
(lp619
Vplace
p620
aVtime
p621
aVeye
p622
ag622
ag622
asS'1173'
p623
(lp624
Vdumplings
p625
asS'1171'
p626
(lp627
Vtaste
p628
aVnyc
p629
aVlife
p630
asS'1170'
p631
(lp632
Vline
p633
aVtimes
p634
aVaverage
p635
asS'1179'
p636
(lp637
Voffice
p638
asS'1178'
p639
(lp640
sS'511'
p641
(lp642
Vlobster
p643
aVravioli
p644
asS'510'
p645
(lp646
Vprice
p647
aVqpr
p648
aVqpr
p649
aVqpr
p650
aVqpr
p651
asS'1005'
p652
(lp653
Vmanhattan
p654
aVplaces
p655
asS'644'
p656
(lp657
Vstaff
p658
asS'1285'
p659
(lp660
Vneightborhood
p661
ag661
asS'1287'
p662
(lp663
Vneighborhood
p664
aVfriends
p665
aVbar
p666
aVplace
p667
aVpizza
p668
asS'1286'
p669
(lp670
Vspot
p671
aVtime
p672
asS'1281'
p673
(lp674
Vbit
p675
aVatmoshere
p676
ag676
asS'1280'
p677
(lp678
Vmoving
p679
ag679
asS'1283'
p680
(lp681
Vpizza
p682
asS'1282'
p683
(lp684
Vperson
p685
aVnight
p686
asS'879'
p687
(lp688
sS'1289'
p689
(lp690
Vny
p691
aVeverything
p692
aVpizza
p693
asS'1288'
p694
(lp695
Vpizza
p696
aVemployees
p697
asS'514'
p698
(lp699
Vtime
p700
aVsecond
p701
asS'1579'
p702
(lp703
Vportions
p704
asS'1578'
p705
(lp706
Vfood
p707
asS'689'
p708
(lp709
Vsaul
p710
aVsaul
p711
asS'688'
p712
(lp713
Vspot
p714
asS'877'
p715
(lp716
Vreviews
p717
aVcrowd
p718
asS'685'
p719
(lp720
Vfood
p721
aVneighborhood
p722
aVreviewer
p723
ag723
asS'1572'
p724
(lp725
Vfun
p726
aVplaces
p727
asS'1571'
p728
(lp729
sS'686'
p730
(lp731
Vtimes
p732
aVexperiences
p733
asS'1577'
p734
(lp735
Vstuff
p736
asS'680'
p737
(lp738
Vstreet
p739
aVrest
p740
aVrestaurant
p741
asS'1575'
p742
(lp743
Vfamily
p744
aVrestaurant
p745
aVentertainment
p746
ag746
asS'1574'
p747
(lp748
Vfun
p749
aVplace
p750
asS'1227'
p751
(lp752
Vbagels
p753
aVrequests
p754
asS'875'
p755
(lp756
Vrestaurant
p757
asS'2818'
p758
(lp759
Vfood
p760
aVservice
p761
aVtime
p762
asS'622'
p763
(lp764
Vplace
p765
asS'872'
p766
(lp767
Vanyone
p768
aVatmosphere
p769
aVplace
p770
asS'873'
p771
(lp772
Vreviews
p773
aVrestaurant
p774
asS'3436'
p775
(lp776
Vmenu
p777
aVdishes
p778
asS'1295'
p779
(lp780
Vservice
p781
asS'871'
p782
(lp783
Vmenu
p784
aVdeal
p785
asS'2037'
p786
(lp787
Vfood
p788
aVmoney
p789
aVwork
p790
aVplace
p791
aVpotential
p792
ag792
aVamount
p793
asS'2740'
p794
(lp795
Vexperience
p796
asS'1243'
p797
(lp798
Vplace
p799
aVrating
p800
ag800
asS'2743'
p801
(lp802
Vstreet
p803
aVplace
p804
aVeurotrashy
p805
aVeurotrashy
p806
asS'1371'
p807
(lp808
Vtuna
p809
aVsteak
p810
asS'1370'
p811
(lp812
Vfood
p813
asS'1373'
p814
(lp815
Vtaste
p816
aVrest
p817
asS'404'
p818
(lp819
Vtime
p820
aVt
p821
asS'1375'
p822
(lp823
sS'1374'
p824
(lp825
Vrestaurant
p826
asS'1377'
p827
(lp828
Vspot
p829
aVnight
p830
asS'400'
p831
(lp832
Vtown
p833
aVplace
p834
asS'1379'
p835
(lp836
Vsoho
p837
aVsoho
p838
asS'1378'
p839
(lp840
Vservice
p841
asS'409'
p842
(lp843
Vprice
p844
aVsushi
p845
aVsaturday
p846
aVdeal
p847
aVhalf
p848
asS'408'
p849
(lp850
Vfish
p851
aVrice
p852
aVration
p853
asS'453'
p854
(lp855
Vyears
p856
aVarea
p857
asS'1344'
p858
(lp859
Vtouch
p860
aVcontrast
p861
asS'2192'
p862
(lp863
Vdecor
p864
aVsushi
p865
aVlot
p866
aVcocktails
p867
asS'2746'
p868
(lp869
Vfish
p870
aVservice
p871
asS'1245'
p872
(lp873
sS'379'
p874
(lp875
Vprices
p876
asS'378'
p877
(lp878
Vcurry
p879
aVfish
p880
aVsauce
p881
asS'370'
p882
(lp883
sS'375'
p884
(lp885
Vpasta
p886
aVroom
p887
aVdishes
p888
asS'377'
p889
(lp890
Vgroup
p891
asS'391'
p892
(lp893
Vtown
p894
aVfriends
p895
aVsushi
p896
aVbar
p897
aVfloor
p898
asS'390'
p899
(lp900
Vtime
p901
aVoil
p902
asS'397'
p903
(lp904
Vlobster
p905
aVroll
p906
asS'396'
p907
(lp908
Vcity
p909
aVsushi
p910
aVgem
p911
aVrestaurants
p912
asS'395'
p913
(lp914
Vsake
p915
aVmenu
p916
asS'394'
p917
(lp918
Vchef
p919
aVfish
p920
aVtuna
p921
aVshrimp
p922
aVfatty
p923
aVblue
p924
aVfatty
p925
asS'2309'
p926
(lp927
Vdelivery
p928
aVmajor
p929
asS'2308'
p930
(lp931
sS'2301'
p932
(lp933
sS'2300'
p934
(lp935
Vtime
p936
asS'2303'
p937
(lp938
Vdoor
p939
aVright
p940
asS'2302'
p941
(lp942
Vhouse
p943
aVpizza
p944
aVmeal
p945
aVsalad
p946
aVwine
p947
aVbottle
p948
asS'2305'
p949
(lp950
Vdelivery
p951
aVtimes
p952
aVpizza
p953
asS'2304'
p954
(lp955
sS'2307'
p956
(lp957
Vpans
p958
aVsize
p959
aVnights
p960
asS'2306'
p961
(lp962
Vfood
p963
asS'898'
p964
(lp965
Vthing
p966
aVbar
p967
aVwife
p968
asS'3253'
p969
(lp970
Vrestaurant
p971
aVcase
p972
asS'247'
p973
(lp974
Vfood
p975
aVlife
p976
aVrestaurant
p977
aVshanghai
p978
aVgreen
p979
asS'246'
p980
(lp981
Vshanghai
p982
aVamount
p983
ag983
asS'241'
p984
(lp985
Vchinatown
p986
aVmanhattan
p987
aVrestaurants
p988
aVshanghainese
p989
aVshanghainese
p990
asS'240'
p991
(lp992
Vnew
p993
aVplace
p994
aVyork
p995
aVshanghai
p996
asS'249'
p997
(lp998
Vstreet
p999
aVplace
p1000
asS'248'
p1001
(lp1002
Vreviews
p1003
aVchinatown
p1004
aVtime
p1005
aVbalance
p1006
ag1006
ag1006
aVgreen
p1007
asS'2275'
p1008
(lp1009
Vplace
p1010
aVchinatown
p1011
aVdoyers
p1012
aVpell
p1013
asS'2274'
p1014
(lp1015
Vprice
p1016
aVroll
p1017
aVshell
p1018
asS'2277'
p1019
(lp1020
Vcuisine
p1021
aVtaipei
p1022
asS'2276'
p1023
(lp1024
Vmenu
p1025
aVchicken
p1026
aVgroup
p1027
aVdishes
p1028
aVtouch
p1029
aVnoodle
p1030
asS'2271'
p1031
(lp1032
Vbar
p1033
aVsake
p1034
aVhouse
p1035
aVfood
p1036
aVstreet
p1037
aVroll
p1038
aVwait
p1039
asS'2273'
p1040
(lp1041
Vsushi
p1042
aVrolls
p1043
asS'2272'
p1044
(lp1045
Vmenu
p1046
aVdrinks
p1047
asS'2279'
p1048
(lp1049
Vprices
p1050
aVchinatown
p1051
aVplace
p1052
asS'2278'
p1053
(lp1054
Vtaste
p1055
aVmenu
p1056
aVflavor
p1057
aVchoices
p1058
asS'2459'
p1059
(lp1060
Vreasons
p1061
ag1061
asS'2458'
p1062
(lp1063
Vlife
p1064
aVbar
p1065
aVrestaurant
p1066
aVfood
p1067
aVpeople
p1068
aVny
p1069
aVlot
p1070
aVdrinks
p1071
aVdesign
p1072
ag1072
asS'2455'
p1073
(lp1074
Vmenu
p1075
aVdrinks
p1076
aVbar
p1077
aVstaff
p1078
aVrecomendations
p1079
asS'2454'
p1080
(lp1081
sS'2457'
p1082
(lp1083
Vstaff
p1084
asS'2456'
p1085
(lp1086
Vdeal
p1087
aVtime
p1088
aVcroquette
p1089
asS'2451'
p1090
(lp1091
Vprices
p1092
asS'2450'
p1093
(lp1094
Vdish
p1095
aVtempura
p1096
ag1096
asS'2453'
p1097
(lp1098
Vcourse
p1099
aVportion
p1100
aVportions
p1101
aVhusband
p1102
asS'2452'
p1103
(lp1104
Vseating
p1105
aVpeople
p1106
aVrestaurant
p1107
asS'179'
p1108
(lp1109
Vservice
p1110
asS'178'
p1111
(lp1112
Vfood
p1113
aVwaitress
p1114
asS'177'
p1115
(lp1116
Vbirthday
p1117
aVgroup
p1118
asS'176'
p1119
(lp1120
Vplace
p1121
asS'175'
p1122
(lp1123
Vdate
p1124
aVdining
p1125
aVdecor
p1126
aVside
p1127
aVboths
p1128
ag1128
asS'174'
p1129
(lp1130
Vlunch
p1131
aVproblem
p1132
aVevening
p1133
aVorder
p1134
aVtime
p1135
aVreviewers
p1136
ag1136
asS'173'
p1137
(lp1138
Vfood
p1139
aVside
p1140
aVvegatables
p1141
asS'3698'
p1142
(lp1143
Vmenu
p1144
aVpotato
p1145
asS'3699'
p1146
(lp1147
Vlunch
p1148
aVcharge
p1149
asS'2053'
p1150
(lp1151
sS'2052'
p1152
(lp1153
Vlocations
p1154
asS'2054'
p1155
(lp1156
Vfirst
p1157
asS'2057'
p1158
(lp1159
Vfood
p1160
asS'2059'
p1161
(lp1162
Vbukhara
p1163
asS'2058'
p1164
(lp1165
Vawsome
p1166
asS'3692'
p1167
(lp1168
Vplace
p1169
aVorder
p1170
aVbacon
p1171
aVplatter
p1172
aVbacos
p1173
asS'3693'
p1174
(lp1175
Vstuff
p1176
aVnite
p1177
ag1177
asS'3694'
p1178
(lp1179
sS'3695'
p1180
(lp1181
Vsandwiches
p1182
asS'3696'
p1183
(lp1184
Vnyc
p1185
aVprice
p1186
aVportion
p1187
aVplaces
p1188
aVsandwiches
p1189
asS'3697'
p1190
(lp1191
Vbeef
p1192
aVplaces
p1193
aVtimes
p1194
aVpastrami
p1195
aVfatty
p1196
ag1196
ag1196
aVtourist
p1197
aVsquare
p1198
asS'1501'
p1199
(lp1200
Varea
p1201
asS'3089'
p1202
(lp1203
Voldies
p1204
ag1204
aVactresses
p1205
ag1205
ag1205
asS'653'
p1206
(lp1207
Vmanhattan
p1208
aVrestaurant
p1209
aVisland
p1210
asS'3526'
p1211
(lp1212
sS'3527'
p1213
(lp1214
Vfood
p1215
aVmenu
p1216
aVnothing
p1217
asS'3524'
p1218
(lp1219
Vappetizers
p1220
asS'3525'
p1221
(lp1222
Vtable
p1223
aVstaff
p1224
asS'3520'
p1225
(lp1226
Vdecor
p1227
aVdinner
p1228
asS'3521'
p1229
(lp1230
Veveryone
p1231
asS'1508'
p1232
(lp1233
Vservice
p1234
aVend
p1235
asS'1509'
p1236
(lp1237
Vtable
p1238
aVeventhough
p1239
asS'1977'
p1240
(lp1241
Vwait
p1242
aVnoise
p1243
aVsteakhouse
p1244
asS'658'
p1245
(lp1246
Vplace
p1247
asS'2699'
p1248
(lp1249
Vanyone
p1250
aVplace
p1251
asS'1976'
p1252
(lp1253
sS'2697'
p1254
(lp1255
Vflavor
p1256
aVquail
p1257
aVpastas
p1258
ag1258
asS'2696'
p1259
(lp1260
Vfood
p1261
aVmenu
p1262
aVreviews
p1263
asS'2695'
p1264
(lp1265
Vcouple
p1266
aVboyfriend
p1267
asS'2694'
p1268
(lp1269
sS'2693'
p1270
(lp1271
Vmeal
p1272
aVsalad
p1273
aVstart
p1274
asS'1603'
p1275
(lp1276
Vplace
p1277
asS'2691'
p1278
(lp1279
Vmeal
p1280
aVexperience
p1281
asS'2690'
p1282
(lp1283
Vamex
p1284
asS'2405'
p1285
(lp1286
Vfood
p1287
aVprices
p1288
asS'3226'
p1289
(lp1290
Vcourse
p1291
aVmeal
p1292
aVwine
p1293
asS'1973'
p1294
(lp1295
Vprice
p1296
aVsomething
p1297
asS'3220'
p1298
(lp1299
Vfish
p1300
asS'3223'
p1301
(lp1302
Vwater
p1303
aVrestaurant
p1304
asS'1606'
p1305
(lp1306
Vcooks
p1307
ag1307
aVmoment
p1308
asS'1362'
p1309
(lp1310
sS'3232'
p1311
(lp1312
Vmanhattan
p1313
aVtrip
p1314
aVworth
p1315
asS'3233'
p1316
(lp1317
Vtimes
p1318
aVboyfriend
p1319
asS'3230'
p1320
(lp1321
Vmenu
p1322
aVseafood
p1323
aVlist
p1324
aVwine
p1325
aVsurprises
p1326
asS'3236'
p1327
(lp1328
Vpeople
p1329
aVexperience
p1330
aVrestaurant
p1331
asS'3237'
p1332
(lp1333
Vposts
p1334
asS'3234'
p1335
(lp1336
Vfood
p1337
aVexperience
p1338
aVfixe
p1339
aVblue
p1340
aVblue
p1341
asS'1619'
p1342
(lp1343
Vtable
p1344
asS'1616'
p1345
(lp1346
Vwaiter
p1347
aVmenu
p1348
aVspecials
p1349
aVdishes
p1350
asS'1617'
p1351
(lp1352
Vsomething
p1353
aVmenu
p1354
aVparty
p1355
aVdishes
p1356
aVpeople
p1357
asS'3238'
p1358
(lp1359
Vsaturday
p1360
aVnight
p1361
asS'3239'
p1362
(lp1363
Vreservation
p1364
aVgarden
p1365
ag1365
aVweather
p1366
ag1366
asS'1960'
p1367
(lp1368
Vreservation
p1369
aVminutes
p1370
aVtime
p1371
aVcocktails
p1372
aVsurroundings
p1373
asS'1961'
p1374
(lp1375
Vtable
p1376
aVsomeone
p1377
aVservice
p1378
aVindustry
p1379
asS'1610'
p1380
(lp1381
Vpizza
p1382
asS'1611'
p1383
(lp1384
sS'2063'
p1385
(lp1386
Vroom
p1387
asS'1363'
p1388
(lp1389
Vfood
p1390
asS'2872'
p1391
(lp1392
Vstaff
p1393
aVwife
p1394
asS'2871'
p1395
(lp1396
Vspecials
p1397
aVbistro
p1398
aVatmosphere
p1399
aVgem
p1400
aVvillage
p1401
aVeast
p1402
aVhip
p1403
aVfare
p1404
asS'2877'
p1405
(lp1406
sS'2876'
p1407
(lp1408
Vexperience
p1409
aVtimes
p1410
asS'2875'
p1411
(lp1412
Vprices
p1413
aVwine
p1414
asS'2879'
p1415
(lp1416
Vfood
p1417
aVprices
p1418
aVservice
p1419
aVworld
p1420
asS'2878'
p1421
(lp1422
Vbistro
p1423
aVplace
p1424
aVvillage
p1425
aVeast
p1426
aVfrench
p1427
aValley
p1428
asS'3355'
p1429
(lp1430
Vdessert
p1431
aVbit
p1432
aVchocolate
p1433
aVespresso
p1434
asS'3354'
p1435
(lp1436
sS'3353'
p1437
(lp1438
Vpizza
p1439
aVsalad
p1440
aVbread
p1441
aVbeginning
p1442
ag1442
aVsizes
p1443
aVmargarite
p1444
aVtop
p1445
asS'3352'
p1446
(lp1447
Vpizza
p1448
aVrestaurant
p1449
asS'3359'
p1450
(lp1451
Vpizza
p1452
asS'3358'
p1453
(lp1454
Vanything
p1455
asS'1768'
p1456
(lp1457
Vwaitstaff
p1458
asS'1769'
p1459
(lp1460
sS'1760'
p1461
(lp1462
Vheaviness
p1463
ag1463
asS'1766'
p1464
(lp1465
Vfood
p1466
asS'1767'
p1467
(lp1468
Vfish
p1469
asS'1765'
p1470
(lp1471
Vplace
p1472
asS'1788'
p1473
(lp1474
Vfood
p1475
aVreservations
p1476
aVmenu
p1477
aVdeal
p1478
aVchoices
p1479
asS'1140'
p1480
(lp1481
Vfood
p1482
aVstreet
p1483
aVneighborhood
p1484
aVsomething
p1485
aVtime
p1486
asS'1146'
p1487
(lp1488
Vtime
p1489
asS'1147'
p1490
(lp1491
sS'1144'
p1492
(lp1493
Vmonth
p1494
ag1494
asS'1145'
p1495
(lp1496
Vdescription
p1497
ag1497
asS'1148'
p1498
(lp1499
Vfriends
p1500
aVrestaurants
p1501
aVjimmy
p1502
asS'1149'
p1503
(lp1504
Vdomincan
p1505
asS'768'
p1506
(lp1507
Vambiance
p1508
aVfact
p1509
aVtime
p1510
asS'769'
p1511
(lp1512
Vweek
p1513
aVreservations
p1514
aVdinner
p1515
aVnight
p1516
asS'2402'
p1517
(lp1518
Vfood
p1519
aVorder
p1520
aVconcern
p1521
asS'692'
p1522
(lp1523
Vrestaurant
p1524
aVpoint
p1525
aVstreet
p1526
aVyork
p1527
aVtime
p1528
aVnew
p1529
asS'1547'
p1530
(lp1531
Vowner
p1532
aVventure
p1533
asS'690'
p1534
(lp1535
Vprices
p1536
aVatmosphere
p1537
asS'691'
p1538
(lp1539
Vfood
p1540
aVdessert
p1541
aVportions
p1542
asS'1542'
p1543
(lp1544
Vfood
p1545
aVcouple
p1546
aVmanager
p1547
aVcontainers
p1548
aVcondiments
p1549
asS'1543'
p1550
(lp1551
Vroom
p1552
asS'694'
p1553
(lp1554
Vvisit
p1555
aVbreast
p1556
asS'1541'
p1557
(lp1558
Vdogs
p1559
ag1559
asS'698'
p1560
(lp1561
Vworld
p1562
aVfoie
p1563
asS'699'
p1564
(lp1565
Vlist
p1566
aVwine
p1567
aVvalues
p1568
ag1568
asS'1548'
p1569
(lp1570
Vfood
p1571
asS'1549'
p1572
(lp1573
Vfood
p1574
aVplace
p1575
aVtrouble
p1576
asS'542'
p1577
(lp1578
Vny
p1579
aVfriend
p1580
asS'762'
p1581
(lp1582
Vwork
p1583
aVgroup
p1584
asS'540'
p1585
(lp1586
Vpanini
p1587
asS'541'
p1588
(lp1589
sS'547'
p1590
(lp1591
Vlunch
p1592
aVwait
p1593
aVplace
p1594
aVtimes
p1595
asS'544'
p1596
(lp1597
Veveryone
p1598
aVspot
p1599
asS'763'
p1600
(lp1601
Vreservations
p1602
aVservice
p1603
asS'548'
p1604
(lp1605
Vplace
p1606
asS'549'
p1607
(lp1608
sS'1782'
p1609
(lp1610
sS'761'
p1611
(lp1612
sS'1784'
p1613
(lp1614
Vsushi
p1615
asS'1785'
p1616
(lp1617
Vrice
p1618
aVroll
p1619
aVtriples
p1620
asS'1786'
p1621
(lp1622
Vtuna
p1623
aVspicy
p1624
aVprice
p1625
aVroll
p1626
asS'1787'
p1627
(lp1628
Vyellowtail
p1629
asS'414'
p1630
(lp1631
Vfood
p1632
aVdelivery
p1633
aVthai
p1634
asS'415'
p1635
(lp1636
Vfood
p1637
aVhour
p1638
asS'416'
p1639
(lp1640
Vfood
p1641
aVrice
p1642
asS'417'
p1643
(lp1644
Vdinner
p1645
aVrice
p1646
aVthai
p1647
aVrestaurant
p1648
asS'410'
p1649
(lp1650
Vvisit
p1651
aVsaturday
p1652
aVnight
p1653
aVsquid
p1654
asS'411'
p1655
(lp1656
sS'412'
p1657
(lp1658
Vsoup
p1659
aVfish
p1660
aVflavor
p1661
aVpast
p1662
ag1662
asS'413'
p1663
(lp1664
Vlist
p1665
aVplace
p1666
aVpast
p1667
asS'1384'
p1668
(lp1669
Vfood
p1670
aVprice
p1671
aVthai
p1672
aVday
p1673
aVrestaurant
p1674
asS'1385'
p1675
(lp1676
Vtaste
p1677
aVdecor
p1678
aVservice
p1679
aVsoho
p1680
asS'1386'
p1681
(lp1682
Vfood
p1683
aVcuisine
p1684
aVthai
p1685
aVflavors
p1686
asS'1387'
p1687
(lp1688
Vchicken
p1689
aVpad
p1690
aVexperience
p1691
aVnuts
p1692
asS'1380'
p1693
(lp1694
sS'1381'
p1695
(lp1696
Vpad
p1697
aVdishes
p1698
aVreviewer
p1699
asS'1382'
p1700
(lp1701
Vbeef
p1702
aVversion
p1703
ag1703
asS'1383'
p1704
(lp1705
Vdelivery
p1706
aVorder
p1707
aVrestaurant
p1708
asS'2769'
p1709
(lp1710
sS'3583'
p1711
(lp1712
Vmess
p1713
asS'368'
p1714
(lp1715
Vtable
p1716
aVwine
p1717
aVbottle
p1718
ag1718
asS'369'
p1719
(lp1720
Vmenu
p1721
aVdessert
p1722
aVtip
p1723
asS'366'
p1724
(lp1725
Vwaiter
p1726
asS'367'
p1727
(lp1728
Vnight
p1729
asS'364'
p1730
(lp1731
Vwaiter
p1732
aVcourse
p1733
aVminutes
p1734
asS'365'
p1735
(lp1736
Vcheese
p1737
aVfood
p1738
aVwater
p1739
aVwaiter
p1740
aVpasta
p1741
aVmeal
p1742
aVwine
p1743
aVempty
p1744
asS'362'
p1745
(lp1746
Vdecor
p1747
aVrestaurant
p1748
asS'363'
p1749
(lp1750
Vfood
p1751
aVlist
p1752
aVservice
p1753
aVwine
p1754
asS'1945'
p1755
(lp1756
Vfood
p1757
aVbistro
p1758
aVneighborhood
p1759
aVplace
p1760
aVservice
p1761
asS'380'
p1762
(lp1763
sS'381'
p1764
(lp1765
Veverything
p1766
aVthai
p1767
asS'382'
p1768
(lp1769
Vnoodles
p1770
aVsauce
p1771
asS'385'
p1772
(lp1773
Vplace
p1774
asS'386'
p1775
(lp1776
Veverything
p1777
asS'387'
p1778
(lp1779
sS'388'
p1780
(lp1781
Vprices
p1782
aVcity
p1783
aVdecor
p1784
aVplace
p1785
asS'3215'
p1786
(lp1787
sS'2065'
p1788
(lp1789
sS'2190'
p1790
(lp1791
Vattraction
p1792
asS'2191'
p1793
(lp1794
Vdelivery
p1795
aVconcept
p1796
ag1796
asS'258'
p1797
(lp1798
Vplace
p1799
aVrestaurants
p1800
asS'259'
p1801
(lp1802
Vfood
p1803
aVreview
p1804
aVrestaurant
p1805
aVservice
p1806
aVtime
p1807
asS'2194'
p1808
(lp1809
Vspecials
p1810
aVthai
p1811
aVingredients
p1812
asS'2195'
p1813
(lp1814
Vservice
p1815
asS'2196'
p1816
(lp1817
sS'2197'
p1818
(lp1819
Vsushi
p1820
aVplace
p1821
asS'2198'
p1822
(lp1823
Vfaan
p1824
asS'2199'
p1825
(lp1826
Vpad
p1827
asS'250'
p1828
(lp1829
Vambiance
p1830
aVwaiters
p1831
aVservice
p1832
aVarea
p1833
aVfoods
p1834
asS'256'
p1835
(lp1836
Vpart
p1837
aVway
p1838
aVcause
p1839
asS'257'
p1840
(lp1841
Vdumplings
p1842
aVnothing
p1843
asS'254'
p1844
(lp1845
Vway
p1846
aVrestaurant
p1847
asS'255'
p1848
(lp1849
Vfun
p1850
aVoily
p1851
ag1851
asS'2200'
p1852
(lp1853
Vatmosphere
p1854
asS'2201'
p1855
(lp1856
Vwine
p1857
asS'2202'
p1858
(lp1859
sS'2203'
p1860
(lp1861
Vsea
p1862
asS'2204'
p1863
(lp1864
Vsomeone
p1865
aVservice
p1866
aVseat
p1867
asS'2205'
p1868
(lp1869
Vfood
p1870
aVplace
p1871
asS'2206'
p1872
(lp1873
Vparty
p1874
aVminutes
p1875
aVtable
p1876
aVparties
p1877
aVmultiples
p1878
asS'2207'
p1879
(lp1880
Vtables
p1881
aVspace
p1882
asS'2208'
p1883
(lp1884
sS'2209'
p1885
(lp1886
Vfood
p1887
aVpart
p1888
aVplace
p1889
aVrestaurant
p1890
asS'2428'
p1891
(lp1892
Vfood
p1893
aVcity
p1894
aVspot
p1895
aVnight
p1896
aVpatron
p1897
asS'2429'
p1898
(lp1899
Vstreet
p1900
aVplace
p1901
asS'2400'
p1902
(lp1903
Vsauce
p1904
aVsalad
p1905
aVpeanut
p1906
ag1906
aVbasil
p1907
aVtofu
p1908
asS'2420'
p1909
(lp1910
Vplace
p1911
asS'2421'
p1912
(lp1913
Vfood
p1914
aVroll
p1915
asS'2422'
p1916
(lp1917
Vfood
p1918
aVrolls
p1919
aVside
p1920
aVhands
p1921
asS'2423'
p1922
(lp1923
Vlot
p1924
asS'2424'
p1925
(lp1926
Vplace
p1927
asS'2425'
p1928
(lp1929
Vrolls
p1930
asS'2426'
p1931
(lp1932
Vmeat
p1933
ag1933
ag1933
aVsystem
p1934
ag1934
asS'2427'
p1935
(lp1936
Vquality
p1937
aVprice
p1938
aVplace
p1939
aVvalue
p1940
asS'2432'
p1941
(lp1942
Vplace
p1943
aVdownside
p1944
asS'168'
p1945
(lp1946
sS'169'
p1947
(lp1948
Vtimes
p1949
aVrestaurant
p1950
aVsquare
p1951
asS'164'
p1952
(lp1953
Vplace
p1954
asS'165'
p1955
(lp1956
Vfood
p1957
aVnothing
p1958
aVappetizers
p1959
asS'166'
p1960
(lp1961
Vanyone
p1962
aVconversation
p1963
aVkind
p1964
aVservice
p1965
asS'167'
p1966
(lp1967
sS'160'
p1968
(lp1969
Vwaiter
p1970
aVdessert
p1971
aVexperience
p1972
asS'161'
p1973
(lp1974
Vfriend
p1975
aVrestaurant
p1976
asS'162'
p1977
(lp1978
Vdate
p1979
aVappetizers
p1980
aVfriend
p1981
aVdrinks
p1982
asS'163'
p1983
(lp1984
Vconversation
p1985
aVwaitress
p1986
aVtime
p1987
asS'3689'
p1988
(lp1989
Vcheese
p1990
aVappetizer
p1991
aVfondue
p1992
asS'3688'
p1993
(lp1994
Vtables
p1995
aVatmosphere
p1996
aVbar
p1997
aVrestaurant
p1998
aVwaiter
p1999
aVbartender
p2000
asS'3683'
p2001
(lp2002
Vsandwich
p2003
aVforks
p2004
asS'3682'
p2005
(lp2006
Vtown
p2007
aVstaff
p2008
aVwait
p2009
asS'3681'
p2010
(lp2011
Vfood
p2012
aVplace
p2013
aVdeal
p2014
asS'3680'
p2015
(lp2016
Vatmosphere
p2017
aVreview
p2018
asS'3687'
p2019
(lp2020
Vevening
p2021
asS'3686'
p2022
(lp2023
Vatmosphere
p2024
aVexperience
p2025
aVeating
p2026
asS'3685'
p2027
(lp2028
Vmoney
p2029
asS'3684'
p2030
(lp2031
Vside
p2032
aVanything
p2033
asS'2796'
p2034
(lp2035
Vfood
p2036
asS'2514'
p2037
(lp2038
Vneighborhood
p2039
aVtrip
p2040
aVway
p2041
asS'2515'
p2042
(lp2043
Vnew
p2044
aVplace
p2045
aVyork
p2046
aVtimes
p2047
asS'2516'
p2048
(lp2049
Vnyc
p2050
aVthai
p2051
aVplace
p2052
aVjazz
p2053
aVnights
p2054
asS'2517'
p2055
(lp2056
Vfood
p2057
aVdoor
p2058
aVservice
p2059
asS'2511'
p2060
(lp2061
Vpoint
p2062
asS'2512'
p2063
(lp2064
Vfood
p2065
aVprices
p2066
aVmusic
p2067
aVservice
p2068
asS'2513'
p2069
(lp2070
Vglass
p2071
aVwine
p2072
asS'2734'
p2073
(lp2074
Vfood
p2075
aVny
p2076
aVflavor
p2077
aVservice
p2078
aVues
p2079
aVnightmare
p2080
aVyankees
p2081
aVmatter
p2082
asS'2735'
p2083
(lp2084
Vplace
p2085
aVeverytime
p2086
aVues
p2087
asS'2736'
p2088
(lp2089
Vneighborhood
p2090
aVplace
p2091
asS'2737'
p2092
(lp2093
Vfood
p2094
aVdecor
p2095
aVportions
p2096
aVservice
p2097
asS'2730'
p2098
(lp2099
Vrestaurants
p2100
asS'2733'
p2101
(lp2102
Vdinner
p2103
aVtime
p2104
aVcomeback
p2105
asS'2738'
p2106
(lp2107
Vcity
p2108
aVrestaurant
p2109
asS'2739'
p2110
(lp2111
sS'3531'
p2112
(lp2113
Vfood
p2114
aVfriend
p2115
aVopposite
p2116
ag2116
asS'3530'
p2117
(lp2118
Vchicken
p2119
aVsauce
p2120
asS'3533'
p2121
(lp2122
Vplace
p2123
asS'3532'
p2124
(lp2125
Vanyone
p2126
aVrestaurant
p2127
aVdisappointment
p2128
asS'3535'
p2129
(lp2130
Vfood
p2131
aVprices
p2132
aVdecor
p2133
aVpresentation
p2134
asS'3534'
p2135
(lp2136
Vmoney
p2137
aVdecoration
p2138
asS'3537'
p2139
(lp2140
Vthings
p2141
aVplace
p2142
aVexperience
p2143
aVservice
p2144
aVrestaurant
p2145
aVheavy
p2146
ag2146
asS'3536'
p2147
(lp2148
Vlunch
p2149
asS'3539'
p2150
(lp2151
Vdinner
p2152
aVdoor
p2153
aVrestaurants
p2154
asS'3538'
p2155
(lp2156
Vreviews
p2157
aVfriends
p2158
aVrestaurant
p2159
asS'1814'
p2160
(lp2161
sS'1815'
p2162
(lp2163
Vpony
p2164
asS'1816'
p2165
(lp2166
Vspot
p2167
aVthe
p2168
asS'1817'
p2169
(lp2170
sS'1811'
p2171
(lp2172
Vfriends
p2173
aVexperience
p2174
aVvintage
p2175
ag2175
asS'1818'
p2176
(lp2177
Vservice
p2178
asS'1819'
p2179
(lp2180
Vambiance
p2181
asS'671'
p2182
(lp2183
Vwater
p2184
aVglass
p2185
aVrice
p2186
aVnoodles
p2187
aVtable
p2188
aVplatters
p2189
aVmeats
p2190
asS'1609'
p2191
(lp2192
Vservice
p2193
asS'1608'
p2194
(lp2195
Vlunch
p2196
aVplace
p2197
aVpizza
p2198
asS'3229'
p2199
(lp2200
Vlife
p2201
aVmeals
p2202
asS'3228'
p2203
(lp2204
Vseafood
p2205
aVplace
p2206
asS'1979'
p2207
(lp2208
Vbeef
p2209
asS'3225'
p2210
(lp2211
Vtuna
p2212
aVselection
p2213
asS'1600'
p2214
(lp2215
Vcheese
p2216
aVpizza
p2217
aVsauce
p2218
aVny
p2219
aVtomato
p2220
ag2220
asS'1975'
p2221
(lp2222
sS'1602'
p2223
(lp2224
Vservice
p2225
aVtakeout
p2226
ag2226
asS'3221'
p2227
(lp2228
Vnyc
p2229
aVharu
p2230
asS'1972'
p2231
(lp2232
Vwater
p2233
asS'1971'
p2234
(lp2235
Vsides
p2236
ag2236
asS'3222'
p2237
(lp2238
sS'809'
p2239
(lp2240
Vwater
p2241
aVprice
p2242
asS'808'
p2243
(lp2244
sS'803'
p2245
(lp2246
Vfood
p2247
aVplace
p2248
aVfriends
p2249
asS'802'
p2250
(lp2251
Vlobster
p2252
aVsalad
p2253
aVangry
p2254
asS'801'
p2255
(lp2256
Vcourse
p2257
asS'800'
p2258
(lp2259
Vweek
p2260
aVfood
p2261
aVbirthday
p2262
asS'1532'
p2263
(lp2264
Vdining
p2265
aVexperience
p2266
asS'804'
p2267
(lp2268
Vweek
p2269
aVrestaurant
p2270
asS'2848'
p2271
(lp2272
Vfood
p2273
aVperson
p2274
aVmenu
p2275
aVfixe
p2276
aVfixe
p2277
asS'2849'
p2278
(lp2279
sS'2846'
p2280
(lp2281
Vfood
p2282
aVperks
p2283
ag2283
asS'2847'
p2284
(lp2285
Vwaiter
p2286
aVplate
p2287
aVbirthday
p2288
aVstaff
p2289
aVdessert
p2290
aVstuff
p2291
aVtouch
p2292
asS'2844'
p2293
(lp2294
Vnyc
p2295
aVrestaurant
p2296
asS'2845'
p2297
(lp2298
Vrestaurants
p2299
aVbest
p2300
asS'2842'
p2301
(lp2302
Vdining
p2303
asS'2843'
p2304
(lp2305
Vchef
p2306
aVdessert
p2307
aVevening
p2308
aVsauce
p2309
aVtruffle
p2310
aVbuttery
p2311
aVcakebread
p2312
ag2311
asS'2840'
p2313
(lp2314
Vmanagement
p2315
ag2315
asS'2841'
p2316
(lp2317
Vfood
p2318
aVny
p2319
aVbit
p2320
aVexperience
p2321
aVyears
p2322
asS'3320'
p2323
(lp2324
Vfood
p2325
aVprices
p2326
aVdecor
p2327
asS'3321'
p2328
(lp2329
Vproblem
p2330
aVmanager
p2331
asS'3322'
p2332
(lp2333
Vservice
p2334
asS'3323'
p2335
(lp2336
Vfact
p2337
aVmoment
p2338
asS'3324'
p2339
(lp2340
Vlocation
p2341
asS'3325'
p2342
(lp2343
Vservice
p2344
asS'3326'
p2345
(lp2346
Vreviewers
p2347
ag2347
ag2347
asS'3327'
p2348
(lp2349
Vfood
p2350
aVcuisine
p2351
aVplace
p2352
asS'3328'
p2353
(lp2354
Vfood
p2355
aVrun
p2356
asS'1777'
p2357
(lp2358
sS'1771'
p2359
(lp2360
Vsushi
p2361
asS'1770'
p2362
(lp2363
Vsushi
p2364
aVhusband
p2365
aVlives
p2366
asS'1779'
p2367
(lp2368
Vowner
p2369
aVambiance
p2370
aVstaff
p2371
asS'1778'
p2372
(lp2373
Vnothing
p2374
aVatmosphere
p2375
aVsushi
p2376
asS'1990'
p2377
(lp2378
Vway
p2379
asS'2998'
p2380
(lp2381
Vfood
p2382
aVplace
p2383
aVgarden
p2384
asS'1159'
p2385
(lp2386
Vdate
p2387
aVny
p2388
aVdinner
p2389
aVdance
p2390
aVfloor
p2391
asS'1158'
p2392
(lp2393
Vfood
p2394
aVdate
p2395
aVbit
p2396
aVrestaurant
p2397
asS'1550'
p2398
(lp2399
Vfood
p2400
aVcabbies
p2401
ag2401
aVturnover
p2402
asS'1155'
p2403
(lp2404
Vplace
p2405
asS'1154'
p2406
(lp2407
Vquarters
p2408
asS'1157'
p2409
(lp2410
Vcity
p2411
aVdeegan
p2412
ag2412
ag2412
asS'1156'
p2413
(lp2414
Vspot
p2415
aVnight
p2416
asS'1151'
p2417
(lp2418
Vplace
p2419
aVghetto
p2420
asS'1150'
p2421
(lp2422
sS'1153'
p2423
(lp2424
sS'1152'
p2425
(lp2426
Vmusic
p2427
aVisnt
p2428
aVdollar
p2429
asS'59'
p2430
(lp2431
Vatmosphere
p2432
asS'1554'
p2433
(lp2434
Vdeal
p2435
aVspace
p2436
ag2436
aVcounters
p2437
aVcounter
p2438
ag2438
asS'1551'
p2439
(lp2440
Vbit
p2441
aVstaff
p2442
aVhole
p2443
asS'2999'
p2444
(lp2445
Vneighborhood
p2446
asS'1553'
p2447
(lp2448
Vhole
p2449
asS'1552'
p2450
(lp2451
Vplace
p2452
asS'1555'
p2453
(lp2454
Vcounter
p2455
asS'3039'
p2456
(lp2457
Vspecials
p2458
aVlunch
p2459
aVrestaurant
p2460
asS'1557'
p2461
(lp2462
sS'1556'
p2463
(lp2464
Vfront
p2465
asS'3034'
p2466
(lp2467
Vmoney
p2468
aVtime
p2469
asS'1558'
p2470
(lp2471
Vplate
p2472
aVrice
p2473
aVdeal
p2474
aVrestaurant
p2475
asS'2992'
p2476
(lp2477
Vplace
p2478
aVtime
p2479
asS'56'
p2480
(lp2481
Vplace
p2482
asS'51'
p2483
(lp2484
Vnyc
p2485
aVfriends
p2486
aVplaces
p2487
aVbrewery
p2488
aVones
p2489
asS'2995'
p2490
(lp2491
sS'53'
p2492
(lp2493
Vfood
p2494
aVmenu
p2495
aVbar
p2496
asS'3033'
p2497
(lp2498
Vfun
p2499
aVflavor
p2500
aVcurry
p2501
asS'537'
p2502
(lp2503
Vneighborhood
p2504
aVfavorite
p2505
asS'55'
p2506
(lp2507
sS'533'
p2508
(lp2509
Vselection
p2510
asS'532'
p2511
(lp2512
Vcheese
p2513
aVplate
p2514
aVdelight
p2515
aVbargain
p2516
asS'531'
p2517
(lp2518
Vfood
p2519
aVyears
p2520
asS'530'
p2521
(lp2522
Vtimes
p2523
asS'1940'
p2524
(lp2525
Vbistro
p2526
aVstaff
p2527
aVsuper
p2528
aVsuper
p2529
aVjazz
p2530
aVbrunch
p2531
ag2531
aVchilaquiles
p2532
asS'57'
p2533
(lp2534
Vnyc
p2535
aVrestaurant
p2536
asS'539'
p2537
(lp2538
Vtable
p2539
aVrestaurant
p2540
asS'538'
p2541
(lp2542
Vtime
p2543
asS'2993'
p2544
(lp2545
Vfood
p2546
aVatmosphere
p2547
asS'2994'
p2548
(lp2549
Vkind
p2550
aVwait
p2551
aVstaff
p2552
asS'1906'
p2553
(lp2554
Vtaste
p2555
aVportions
p2556
aVhusband
p2557
asS'3295'
p2558
(lp2559
Vnyc
p2560
asS'52'
p2561
(lp2562
Vplace
p2563
aVmidtown
p2564
asS'3296'
p2565
(lp2566
Vtime
p2567
aVweeks
p2568
ag2568
ag2568
ag2568
asS'1905'
p2569
(lp2570
Vchance
p2571
asS'536'
p2572
(lp2573
Vspecials
p2574
asS'1902'
p2575
(lp2576
Vsteak
p2577
aVhusband
p2578
asS'3291'
p2579
(lp2580
Vfood
p2581
asS'429'
p2582
(lp2583
Vfood
p2584
aVthai
p2585
asS'428'
p2586
(lp2587
Vfood
p2588
aVthai
p2589
aVarea
p2590
aVspots
p2591
asS'1900'
p2592
(lp2593
Vdinner
p2594
aVsaturday
p2595
aVnight
p2596
asS'1399'
p2597
(lp2598
Vowner
p2599
aVfood
p2600
aVyears
p2601
asS'1398'
p2602
(lp2603
Vfood
p2604
aVlunch
p2605
aVatmosphere
p2606
aVdinner
p2607
aVservice
p2608
aVdelicious
p2609
aVchoice
p2610
aVbuffet
p2611
asS'423'
p2612
(lp2613
Vcity
p2614
aVthai
p2615
aVplaces
p2616
aVtoons
p2617
asS'1394'
p2618
(lp2619
Vatmosphere
p2620
aVsripraphai
p2621
aVsripraphai
p2622
aVsripraphai
p2623
aVsripraphai
p2624
asS'1393'
p2625
(lp2626
Vdish
p2627
aVrice
p2628
aVcurry
p2629
aVdishes
p2630
aVgreen
p2631
asS'1392'
p2632
(lp2633
Vcouple
p2634
aVthai
p2635
aVrestaurant
p2636
aVsripraphai
p2637
asS'427'
p2638
(lp2639
Vfood
p2640
asS'426'
p2641
(lp2642
Vspace
p2643
asS'854'
p2644
(lp2645
sS'3453'
p2646
(lp2647
Vfriends
p2648
aVsaturday
p2649
aVnight
p2650
asS'3074'
p2651
(lp2652
Vdining
p2653
aVdinner
p2654
aVexperience
p2655
asS'3450'
p2656
(lp2657
Vdesserts
p2658
aVchocolate
p2659
aVrestaurant
p2660
aVespresso
p2661
asS'857'
p2662
(lp2663
Vchef
p2664
aVroot
p2665
ag2665
asS'850'
p2666
(lp2667
Vparty
p2668
asS'1423'
p2669
(lp2670
Vnyc
p2671
aVrestaurant
p2672
aVsichuan
p2673
ag2673
asS'1970'
p2674
(lp2675
Vflavor
p2676
aVsteak
p2677
aVway
p2678
aVbutter
p2679
asS'1424'
p2680
(lp2681
Vspicy
p2682
aVfamily
p2683
aVfood
p2684
aVfish
p2685
aVchicken
p2686
aVfriends
p2687
aVpancake
p2688
aVjuice
p2689
aVguizhou
p2690
aVshredded
p2691
aVfavorites
p2692
aVsoft
p2693
asS'2331'
p2694
(lp2695
Veveryone
p2696
aVchoices
p2697
asS'3475'
p2698
(lp2699
Vdrink
p2700
aVsomething
p2701
asS'2183'
p2702
(lp2703
Vchicken
p2704
aVroll
p2705
aVboyfriend
p2706
aVscallop
p2707
asS'2187'
p2708
(lp2709
Vselection
p2710
aVdrinks
p2711
aVwine
p2712
asS'2186'
p2713
(lp2714
Vrestaurant
p2715
asS'229'
p2716
(lp2717
Vpeople
p2718
aVothers
p2719
asS'228'
p2720
(lp2721
sS'227'
p2722
(lp2723
Vperson
p2724
asS'226'
p2725
(lp2726
Vanyone
p2727
asS'225'
p2728
(lp2729
Vheck
p2730
asS'224'
p2731
(lp2732
Vfood
p2733
aVservice
p2734
asS'223'
p2735
(lp2736
sS'222'
p2737
(lp2738
Vrestaurant
p2739
aVinternet
p2740
asS'221'
p2741
(lp2742
Vnyc
p2743
aVwife
p2744
aVanniversary
p2745
asS'220'
p2746
(lp2747
Vanyone
p2748
aVservice
p2749
aVgrade
p2750
ag2750
asS'2213'
p2751
(lp2752
Vplace
p2753
asS'2212'
p2754
(lp2755
Vthai
p2756
aVplace
p2757
asS'2211'
p2758
(lp2759
Vsoup
p2760
asS'2210'
p2761
(lp2762
Vfood
p2763
aVdish
p2764
aVflavor
p2765
aVspicy
p2766
aVtimes
p2767
asS'2217'
p2768
(lp2769
Vcuisine
p2770
asS'2216'
p2771
(lp2772
Vplace
p2773
aVprice
p2774
aVminutes
p2775
aVline
p2776
asS'2215'
p2777
(lp2778
Vfood
p2779
aVfun
p2780
aVfact
p2781
aVprices
p2782
aVambience
p2783
aVtop
p2784
ag2784
asS'2214'
p2785
(lp2786
Vcity
p2787
aVfriend
p2788
aVhusband
p2789
aVrestaurant
p2790
asS'2219'
p2791
(lp2792
Vdoors
p2793
ag2793
aVair
p2794
ag2794
aVoutside
p2795
asS'2218'
p2796
(lp2797
Vfood
p2798
aVprice
p2799
aVdoor
p2800
aVday
p2801
aVdelicious
p2802
asS'1160'
p2803
(lp2804
Vlife
p2805
aVlatin
p2806
asS'151'
p2807
(lp2808
Vfood
p2809
aVprice
p2810
aVplace
p2811
aVdecor
p2812
asS'150'
p2813
(lp2814
Vsomeone
p2815
aVplace
p2816
asS'2439'
p2817
(lp2818
Vmoney
p2819
aVplace
p2820
aVvalue
p2821
asS'152'
p2822
(lp2823
Vservice
p2824
asS'154'
p2825
(lp2826
sS'2433'
p2827
(lp2828
Vfood
p2829
aVseating
p2830
aVwait
p2831
aVtimes
p2832
asS'158'
p2833
(lp2834
Vappetizer
p2835
aVplatter
p2836
asS'2431'
p2837
(lp2838
sS'2437'
p2839
(lp2840
sS'2436'
p2841
(lp2842
sS'2435'
p2843
(lp2844
Vrolls
p2845
aVunda
p2846
asS'2434'
p2847
(lp2848
Vplace
p2849
aVrolls
p2850
asS'2508'
p2851
(lp2852
sS'2507'
p2853
(lp2854
Vfood
p2855
asS'2506'
p2856
(lp2857
Vchoices
p2858
asS'2503'
p2859
(lp2860
Vplace
p2861
aVnight
p2862
aVanimals
p2863
asS'2502'
p2864
(lp2865
Vbit
p2866
aVmusic
p2867
aVnights
p2868
ag2868
asS'2501'
p2869
(lp2870
Vservice
p2871
asS'2500'
p2872
(lp2873
Vmenu
p2874
aVeverything
p2875
asS'2727'
p2876
(lp2877
Vside
p2878
asS'2726'
p2879
(lp2880
sS'2723'
p2881
(lp2882
Vstomach
p2883
aVok
p2884
ag2884
asS'2722'
p2885
(lp2886
Vred
p2887
aVred
p2888
asS'2721'
p2889
(lp2890
Vnyc
p2891
aVmeal
p2892
asS'1712'
p2893
(lp2894
Vplace
p2895
aVaccident
p2896
asS'125'
p2897
(lp2898
Vfamily
p2899
asS'1805'
p2900
(lp2901
Vtimes
p2902
aVconvenience
p2903
asS'1804'
p2904
(lp2905
sS'1803'
p2906
(lp2907
Vrestaurant
p2908
aVstudents
p2909
asS'1800'
p2910
(lp2911
Vrest
p2912
aVroom
p2913
aVhour
p2914
aVarea
p2915
aVtraffic
p2916
asS'1808'
p2917
(lp2918
Vtaste
p2919
aVservice
p2920
asS'3088'
p2921
(lp2922
Vtime
p2923
aVcosmopolitan
p2924
asS'3258'
p2925
(lp2926
Vneighborhood
p2927
aVrestaurants
p2928
asS'3259'
p2929
(lp2930
Vfood
p2931
asS'1948'
p2932
(lp2933
Vbistro
p2934
aVfood
p2935
aVyears
p2936
aVchef
p2937
aVyork
p2938
aVnew
p2939
aVinnovations
p2940
asS'1949'
p2941
(lp2942
Vchicken
p2943
aVbar
p2944
aVvillage
p2945
aVmartini
p2946
asS'1942'
p2947
(lp2948
Vwaiter
p2949
aVpeople
p2950
asS'3251'
p2951
(lp2952
Vphone
p2953
asS'3252'
p2954
(lp2955
sS'1941'
p2956
(lp2957
sS'3254'
p2958
(lp2959
Vfood
p2960
aVtimes
p2961
asS'3255'
p2962
(lp2963
Vmenu
p2964
aVpeople
p2965
aVway
p2966
aVrestaurant
p2967
asS'3256'
p2968
(lp2969
Vchinatown
p2970
aVrestaurants
p2971
asS'3257'
p2972
(lp2973
Vneighborhood
p2974
aVchinatown
p2975
aVplace
p2976
asS'818'
p2977
(lp2978
Vbar
p2979
aVplace
p2980
asS'810'
p2981
(lp2982
Vdinner
p2983
aVfriends
p2984
aVfamily
p2985
aVnight
p2986
aVchristmas
p2987
asS'811'
p2988
(lp2989
Vplace
p2990
aVsunday
p2991
asS'812'
p2992
(lp2993
Vfood
p2994
aVwaiter
p2995
aVhour
p2996
aVones
p2997
asS'813'
p2998
(lp2999
Vpasta
p3000
aVsteak
p3001
aVappetizers
p3002
aVsalads
p3003
asS'814'
p3004
(lp3005
Vfood
p3006
asS'817'
p3007
(lp3008
Vwaiter
p3009
asS'2859'
p3010
(lp3011
Vchef
p3012
asS'1991'
p3013
(lp3014
Vfood
p3015
aVfun
p3016
aVpart
p3017
asS'1522'
p3018
(lp3019
sS'1622'
p3020
(lp3021
Vportions
p3022
aVservers
p3023
asS'2851'
p3024
(lp3025
Vcountryside
p3026
ag3026
asS'2850'
p3027
(lp3028
Vfood
p3029
aVambience
p3030
aVservice
p3031
asS'2853'
p3032
(lp3033
Veveryone
p3034
aVplace
p3035
asS'2852'
p3036
(lp3037
Vceiling
p3038
asS'2855'
p3039
(lp3040
Vfood
p3041
aVservice
p3042
asS'3205'
p3043
(lp3044
Vfish
p3045
aVambiance
p3046
aVlocation
p3047
aVservice
p3048
asS'2856'
p3049
(lp3050
Vtables
p3051
aVfact
p3052
aVspace
p3053
aVfloor
p3054
asS'1490'
p3055
(lp3056
Vcheese
p3057
aVmozzerella
p3058
aVplain
p3059
aVslice
p3060
asS'3332'
p3061
(lp3062
Vglass
p3063
aVdoor
p3064
aVfront
p3065
aVgetup
p3066
ag3066
asS'1492'
p3067
(lp3068
Vplace
p3069
asS'1493'
p3070
(lp3071
Vowner
p3072
aVpizza
p3073
aVguy
p3074
asS'1494'
p3075
(lp3076
Vmenu
p3077
aVdishes
p3078
asS'1495'
p3079
(lp3080
Vweather
p3081
asS'3335'
p3082
(lp3083
Vfood
p3084
aVsauce
p3085
aVvegetables
p3086
asS'3334'
p3087
(lp3088
Vfood
p3089
aVrestaurant
p3090
asS'3203'
p3091
(lp3092
Veverything
p3093
aVsushi
p3094
aVrestaurant
p3095
asS'3339'
p3096
(lp3097
Vrestaurant
p3098
aVindia
p3099
aVstrip
p3100
asS'1395'
p3101
(lp3102
Ventrees
p3103
asS'3202'
p3104
(lp3105
Vdumplings
p3106
aVsake
p3107
aVsushi
p3108
aVrolls
p3109
aVmix
p3110
asS'1700'
p3111
(lp3112
Vrestaurant
p3113
asS'1701'
p3114
(lp3115
Vstaff
p3116
aVcrew
p3117
asS'1702'
p3118
(lp3119
Vfood
p3120
aVprice
p3121
asS'1703'
p3122
(lp3123
sS'1704'
p3124
(lp3125
Vfood
p3126
aVstrike
p3127
asS'3201'
p3128
(lp3129
Vfood
p3130
aVservice
p3131
asS'1706'
p3132
(lp3133
Vgroup
p3134
aVfriends
p3135
aVtime
p3136
asS'1707'
p3137
(lp3138
Vplace
p3139
aVdinner
p3140
aVfriends
p3141
asS'1708'
p3142
(lp3143
Vdinner
p3144
aVlucky
p3145
aVname
p3146
asS'1709'
p3147
(lp3148
Vfood
p3149
aVsomething
p3150
asS'3200'
p3151
(lp3152
sS'424'
p3153
(lp3154
Veverything
p3155
aVpad
p3156
aVpenang
p3157
asS'3658'
p3158
(lp3159
Vmusic
p3160
aVpatio
p3161
ag3161
asS'2975'
p3162
(lp3163
Vrestaurant
p3164
aVpart
p3165
aVkitchen
p3166
asS'3659'
p3167
(lp3168
Vrestaurant
p3169
asS'1128'
p3170
(lp3171
Vthai
p3172
aVscores
p3173
ag3173
ag3173
asS'1129'
p3174
(lp3175
Vfood
p3176
asS'1120'
p3177
(lp3178
Vbeef
p3179
aVdishes
p3180
aVwife
p3181
aVway
p3182
aVthai
p3183
aVnoodles
p3184
aVways
p3185
asS'1123'
p3186
(lp3187
Vowner
p3188
aVkitchen
p3189
aVrolls
p3190
aVsaturday
p3191
aVnight
p3192
aVsummer
p3193
asS'1124'
p3194
(lp3195
Vwaitress
p3196
asS'1125'
p3197
(lp3198
Vwife
p3199
aVmusic
p3200
aVtimes
p3201
asS'1126'
p3202
(lp3203
sS'1127'
p3204
(lp3205
Vfood
p3206
aVrestaurant
p3207
asS'2989'
p3208
(lp3209
Vdessert
p3210
asS'2988'
p3211
(lp3212
Vorder
p3213
aVwaitress
p3214
aVtime
p3215
asS'3029'
p3216
(lp3217
sS'2983'
p3218
(lp3219
Vatmosphere
p3220
aVservice
p3221
aVdesert
p3222
asS'2099'
p3223
(lp3224
Vvisit
p3225
aVworth
p3226
asS'3025'
p3227
(lp3228
Vjudgement
p3229
asS'3024'
p3230
(lp3231
Vsushi
p3232
aVtime
p3233
asS'3023'
p3234
(lp3235
sS'2986'
p3236
(lp3237
Vway
p3238
asS'2985'
p3239
(lp3240
Vnight
p3241
aVbite
p3242
asS'3020'
p3243
(lp3244
Veverything
p3245
aVfish
p3246
aVrice
p3247
aVseaweed
p3248
asS'524'
p3249
(lp3250
Vatmosphere
p3251
asS'527'
p3252
(lp3253
Vcouple
p3254
aVspot
p3255
aVdinner
p3256
aVdrinks
p3257
asS'520'
p3258
(lp3259
Vwine
p3260
asS'1019'
p3261
(lp3262
sS'523'
p3263
(lp3264
Vlist
p3265
aVwine
p3266
asS'1014'
p3267
(lp3268
Vatmosphere
p3269
asS'1015'
p3270
(lp3271
Vdesserts
p3272
aVcouple
p3273
aVfriends
p3274
aVplace
p3275
aVdrinks
p3276
asS'1017'
p3277
(lp3278
Vfood
p3279
aVservice
p3280
asS'528'
p3281
(lp3282
Vseating
p3283
aVwinter
p3284
ag3284
asS'529'
p3285
(lp3286
Vfood
p3287
aVprices
p3288
aVselecion
p3289
asS'1012'
p3290
(lp3291
Vdesserts
p3292
asS'1013'
p3293
(lp3294
Vny
p3295
aVcouple
p3296
aVdesserts
p3297
aVvinegar
p3298
asS'1236'
p3299
(lp3300
Vkind
p3301
aVproblem
p3302
asS'1237'
p3303
(lp3304
Vselection
p3305
aVanything
p3306
asS'1231'
p3307
(lp3308
Vbagel
p3309
aVcity
p3310
aVbagels
p3311
asS'1232'
p3312
(lp3313
Vfood
p3314
aVlunch
p3315
asS'1233'
p3316
(lp3317
sS'1238'
p3318
(lp3319
sS'1239'
p3320
(lp3321
sS'438'
p3322
(lp3323
Vfood
p3324
aVpizza
p3325
asS'439'
p3326
(lp3327
sS'433'
p3328
(lp3329
sS'430'
p3330
(lp3331
Vfood
p3332
aVcourse
p3333
aVthai
p3334
aVmanhattan
p3335
aVrestaurants
p3336
aVive
p3337
aVtoons
p3338
aVive
p3339
asS'559'
p3340
(lp3341
Vhour
p3342
aVtime
p3343
aVmimosas
p3344
asS'1967'
p3345
(lp3346
Vny
p3347
aVyears
p3348
asS'3162'
p3349
(lp3350
Vtown
p3351
aVbagel
p3352
asS'3160'
p3353
(lp3354
Vtime
p3355
asS'2465'
p3356
(lp3357
Vdates
p3358
asS'2948'
p3359
(lp3360
Vambiance
p3361
asS'997'
p3362
(lp3363
Vplace
p3364
asS'238'
p3365
(lp3366
Vfood
p3367
aVwaiters
p3368
asS'239'
p3369
(lp3370
Vcourse
p3371
asS'991'
p3372
(lp3373
Vprices
p3374
aVlocation
p3375
asS'236'
p3376
(lp3377
Vmoney
p3378
aVnew
p3379
aVgreen
p3380
asS'237'
p3381
(lp3382
Vdumplings
p3383
aVfish
p3384
aVchicken
p3385
aVcrab
p3386
asS'230'
p3387
(lp3388
sS'231'
p3389
(lp3390
Vfood
p3391
aVdate
p3392
aVafternoon
p3393
asS'232'
p3394
(lp3395
Vplace
p3396
asS'233'
p3397
(lp3398
Vfood
p3399
aVservice
p3400
asS'2228'
p3401
(lp3402
Vsetting
p3403
ag3403
asS'2229'
p3404
(lp3405
sS'2226'
p3406
(lp3407
Vfood
p3408
aVprice
p3409
aVappetizers
p3410
asS'2227'
p3411
(lp3412
Vdishes
p3413
aVfamily
p3414
asS'2224'
p3415
(lp3416
Vwater
p3417
aVrice
p3418
aVfriend
p3419
asS'2225'
p3420
(lp3421
Vseating
p3422
aVplace
p3423
aVday
p3424
asS'2222'
p3425
(lp3426
Vseafood
p3427
aVappetizers
p3428
aVdishes
p3429
asS'2223'
p3430
(lp3431
Vfood
p3432
asS'2220'
p3433
(lp3434
Vparty
p3435
aVclose
p3436
ag3436
aVdoors
p3437
aVcoats
p3438
asS'2221'
p3439
(lp3440
sS'147'
p3441
(lp3442
Vcity
p3443
aVplace
p3444
aVstyle
p3445
ag3445
asS'142'
p3446
(lp3447
Vbread
p3448
aVdough
p3449
aVsoh
p3450
aVtasting
p3451
asS'140'
p3452
(lp3453
Vdumplings
p3454
aVnoodles
p3455
aVbeef
p3456
aVshrimp
p3457
asS'141'
p3458
(lp3459
Vdish
p3460
asS'2468'
p3461
(lp3462
Vfood
p3463
asS'148'
p3464
(lp3465
Vrice
p3466
aVdishes
p3467
aVvarieties
p3468
asS'149'
p3469
(lp3470
Vlunch
p3471
aVfriend
p3472
asS'3401'
p3473
(lp3474
Vchicken
p3475
aVsalmon
p3476
aVservings
p3477
ag3477
aVwasnt
p3478
asS'2088'
p3479
(lp3480
Vdecor
p3481
aVsomething
p3482
asS'2089'
p3483
(lp3484
Vdumplings
p3485
aVdecor
p3486
asS'2082'
p3487
(lp3488
sS'2083'
p3489
(lp3490
Vsum
p3491
asS'2080'
p3492
(lp3493
Vmanager
p3494
aVvisit
p3495
asS'2081'
p3496
(lp3497
Vprices
p3498
asS'2086'
p3499
(lp3500
Vdishes
p3501
asS'2087'
p3502
(lp3503
Vwaiter
p3504
aVsomeone
p3505
asS'2084'
p3506
(lp3507
Vsum
p3508
aVdishes
p3509
aVlack
p3510
asS'2085'
p3511
(lp3512
Vabby
p3513
aVwintermelon
p3514
aVmushrooms
p3515
asS'3342'
p3516
(lp3517
sS'2538'
p3518
(lp3519
Vfood
p3520
aVscratch
p3521
ag3521
asS'2539'
p3522
(lp3523
Vdrink
p3524
aVbar
p3525
aVselections
p3526
aVspecial
p3527
asS'1190'
p3528
(lp3529
Vservice
p3530
aVlot
p3531
asS'2532'
p3532
(lp3533
Vmoney
p3534
asS'2533'
p3535
(lp3536
Vway
p3537
asS'2536'
p3538
(lp3539
Vreview
p3540
asS'1193'
p3541
(lp3542
sS'2534'
p3543
(lp3544
sS'2535'
p3545
(lp3546
sS'2712'
p3547
(lp3548
Vmeal
p3549
aVtimes
p3550
asS'2713'
p3551
(lp3552
Vcity
p3553
aVplaces
p3554
asS'2710'
p3555
(lp3556
sS'2711'
p3557
(lp3558
Vfact
p3559
asS'2716'
p3560
(lp3561
Vweek
p3562
aVrestaurant
p3563
aVjob
p3564
asS'2717'
p3565
(lp3566
Vred
p3567
aVred
p3568
asS'2714'
p3569
(lp3570
Vmenu
p3571
aVsomething
p3572
asS'2715'
p3573
(lp3574
Vfish
p3575
aVsteak
p3576
aVsushi
p3577
asS'2718'
p3578
(lp3579
Vatmosphere
p3580
aVlobster
p3581
aVsalad
p3582
aVtime
p3583
aVjazz
p3584
asS'128'
p3585
(lp3586
Vchicken
p3587
aVrice
p3588
asS'3344'
p3589
(lp3590
Vtimes
p3591
asS'129'
p3592
(lp3593
Vchinatown
p3594
aVmiddle
p3595
asS'3345'
p3596
(lp3597
Vny
p3598
aVpizza
p3599
asS'1832'
p3600
(lp3601
Vfriends
p3602
asS'1830'
p3603
(lp3604
Vpizza
p3605
aVfamous
p3606
aVlove
p3607
asS'1831'
p3608
(lp3609
sS'1836'
p3610
(lp3611
Vservice
p3612
aVindividuals
p3613
asS'1837'
p3614
(lp3615
Vservice
p3616
asS'1835'
p3617
(lp3618
Vorder
p3619
aVtimes
p3620
aVcustomers
p3621
asS'1838'
p3622
(lp3623
sS'1839'
p3624
(lp3625
Vfood
p3626
asS'137'
p3627
(lp3628
Vplace
p3629
asS'2406'
p3630
(lp3631
Vdumplings
p3632
aVappetizers
p3633
aVshrimp
p3634
asS'2155'
p3635
(lp3636
Vsalad
p3637
aVmayo
p3638
asS'2156'
p3639
(lp3640
Vnyc
p3641
aVbagels
p3642
asS'938'
p3643
(lp3644
Vfood
p3645
aVservice
p3646
aVvalue
p3647
aVeverytime
p3648
ag3648
asS'2150'
p3649
(lp3650
Vdrink
p3651
asS'2403'
p3652
(lp3653
Vlunch
p3654
aVsaet
p3655
asS'2152'
p3656
(lp3657
Vbagels
p3658
asS'2153'
p3659
(lp3660
Vcity
p3661
aVbagels
p3662
aVorder
p3663
aVyork
p3664
aVnew
p3665
asS'932'
p3666
(lp3667
Vminutes
p3668
aVappetizer
p3669
asS'931'
p3670
(lp3671
Vwater
p3672
aVminutes
p3673
asS'930'
p3674
(lp3675
Vtimes
p3676
aVsquare
p3677
aVvodka
p3678
asS'2158'
p3679
(lp3680
Vbagel
p3681
aVny
p3682
aVmidtown
p3683
asS'2159'
p3684
(lp3685
Vbagels
p3686
aVinside
p3687
ag3687
asS'2408'
p3688
(lp3689
Vconversation
p3690
aVeveryone
p3691
aVmusic
p3692
aVnight
p3693
aVluxury
p3694
asS'2409'
p3695
(lp3696
Vdelivery
p3697
aVservice
p3698
asS'471'
p3699
(lp3700
Vpasta
p3701
aVchicken
p3702
aVsauce
p3703
aVparm
p3704
aVmushrooms
p3705
ag3705
ag3705
asS'3091'
p3706
(lp3707
Vfood
p3708
aVlot
p3709
aVpuke
p3710
asS'1955'
p3711
(lp3712
sS'1954'
p3713
(lp3714
sS'1957'
p3715
(lp3716
sS'1956'
p3717
(lp3718
Vprice
p3719
aVmeal
p3720
asS'1951'
p3721
(lp3722
Vtable
p3723
aVrestaurant
p3724
asS'1950'
p3725
(lp3726
Vreservation
p3727
aVboyfriend
p3728
aVnight
p3729
asS'1953'
p3730
(lp3731
sS'1952'
p3732
(lp3733
Vfood
p3734
aVservice
p3735
asS'2673'
p3736
(lp3737
sS'1959'
p3738
(lp3739
Vbar
p3740
asS'1958'
p3741
(lp3742
Vlist
p3743
aVtop
p3744
asS'3249'
p3745
(lp3746
Vfood
p3747
aVeverything
p3748
aVrestaurant
p3749
asS'3248'
p3750
(lp3751
Vchicken
p3752
asS'3243'
p3753
(lp3754
Vdessert
p3755
aVroom
p3756
aVtime
p3757
asS'3242'
p3758
(lp3759
Vreason
p3760
ag3760
ag3760
asS'3241'
p3761
(lp3762
Vfish
p3763
aVhit
p3764
asS'3247'
p3765
(lp3766
Vwife
p3767
aVshanghai
p3768
aVattractions
p3769
asS'3246'
p3770
(lp3771
sS'3245'
p3772
(lp3773
Vdelivery
p3774
aVbuns
p3775
asS'3244'
p3776
(lp3777
Vtimes
p3778
aVm
p3779
asS'828'
p3780
(lp3781
Vtable
p3782
aVreservation
p3783
aVnight
p3784
aVview
p3785
asS'825'
p3786
(lp3787
Vtry
p3788
ag3788
ag3788
asS'824'
p3789
(lp3790
Vlocation
p3791
aVthrill
p3792
asS'827'
p3793
(lp3794
Vsurprise
p3795
asS'826'
p3796
(lp3797
Vrestaurant
p3798
aVhall
p3799
aVgrand
p3800
asS'823'
p3801
(lp3802
Vlunch
p3803
aVclient
p3804
asS'822'
p3805
(lp3806
Vreviews
p3807
aVdesserts
p3808
aVgroup
p3809
asS'2284'
p3810
(lp3811
Vfood
p3812
aVprices
p3813
asS'1536'
p3814
(lp3815
Vsoup
p3816
aVsandwich
p3817
asS'1993'
p3818
(lp3819
Vsense
p3820
aVhumor
p3821
aVmarketing
p3822
asS'3227'
p3823
(lp3824
Vtown
p3825
aVdinner
p3826
aVnight
p3827
aVdeal
p3828
aVrestaurant
p3829
asS'1483'
p3830
(lp3831
Vowner
p3832
asS'1482'
p3833
(lp3834
Vplaces
p3835
aVslice
p3836
ag3836
aVtoppings
p3837
asS'1481'
p3838
(lp3839
Vingredients
p3840
aVslice
p3841
ag3841
asS'1480'
p3842
(lp3843
Vpizza
p3844
aVslice
p3845
asS'1487'
p3846
(lp3847
Vsauce
p3848
aVpizza
p3849
aVgarlic
p3850
ag3850
aVtomatoes
p3851
asS'1823'
p3852
(lp3853
Vpizza
p3854
asS'1485'
p3855
(lp3856
Vpizza
p3857
asS'1484'
p3858
(lp3859
Vside
p3860
asS'3306'
p3861
(lp3862
sS'3304'
p3863
(lp3864
Vnew
p3865
aVlobster
p3866
aVboyfriend
p3867
aVchowder
p3868
asS'3305'
p3869
(lp3870
Vfilet
p3871
aVmash
p3872
asS'3302'
p3873
(lp3874
Vservice
p3875
aVstaff
p3876
asS'3303'
p3877
(lp3878
Vlobster
p3879
asS'797'
p3880
(lp3881
Vmenu
p3882
aVseafood
p3883
aVsalmon
p3884
asS'928'
p3885
(lp3886
Vfood
p3887
aVambience
p3888
asS'1711'
p3889
(lp3890
Vfood
p3891
aVbistro
p3892
aVprices
p3893
asS'1710'
p3894
(lp3895
Vfood
p3896
aVprices
p3897
aVplace
p3898
aVwaiter
p3899
aVway
p3900
asS'1717'
p3901
(lp3902
Vbit
p3903
asS'792'
p3904
(lp3905
Vchef
p3906
aVowner
p3907
asS'791'
p3908
(lp3909
Vtable
p3910
aVbill
p3911
aVwaiters
p3912
asS'2410'
p3913
(lp3914
Vdelivery
p3915
aVhour
p3916
asS'1719'
p3917
(lp3918
sS'1718'
p3919
(lp3920
Vfood
p3921
aVdecor
p3922
aVservice
p3923
asS'2413'
p3924
(lp3925
Vfood
p3926
aValternative
p3927
aVjoints
p3928
asS'799'
p3929
(lp3930
Vfood
p3931
asS'798'
p3932
(lp3933
Vparty
p3934
aVsomething
p3935
aVholiday
p3936
asS'612'
p3937
(lp3938
Vbeer
p3939
aVdrink
p3940
aVplace
p3941
asS'2412'
p3942
(lp3943
Vmenu
p3944
aVspice
p3945
aVspice
p3946
asS'1271'
p3947
(lp3948
Vpad
p3949
aVthai
p3950
aVrice
p3951
aVcurry
p3952
aVseafood
p3953
asS'2415'
p3954
(lp3955
Vplace
p3956
aVsetting
p3957
asS'610'
p3958
(lp3959
Vfood
p3960
aVtiem
p3961
asS'2414'
p3962
(lp3963
Vfood
p3964
aVpad
p3965
aVdishes
p3966
aVplaces
p3967
aVpaper
p3968
asS'1139'
p3969
(lp3970
Vbit
p3971
asS'1138'
p3972
(lp3973
Vthing
p3974
aVchicken
p3975
aVgrilled
p3976
asS'2417'
p3977
(lp3978
Vfood
p3979
aVfavorite
p3980
asS'1133'
p3981
(lp3982
Vdinner
p3983
asS'1995'
p3984
(lp3985
Veverything
p3986
asS'1131'
p3987
(lp3988
Vwow
p3989
ag3989
ag3989
ag3989
ag3989
asS'1130'
p3990
(lp3991
Vplace
p3992
aVmeal
p3993
aVlight
p3994
ag3994
aVaccent
p3995
aVlong
p3996
asS'617'
p3997
(lp3998
Vtown
p3999
aVlocation
p4000
asS'2419'
p4001
(lp4002
Vfood
p4003
aVpinnacle
p4004
asS'1276'
p4005
(lp4006
Vmoney
p4007
aVway
p4008
aVcostco
p4009
aVcostco
p4010
aVcostco
p4011
asS'2418'
p4012
(lp4013
Vbread
p4014
aVparatha
p4015
ag4015
asS'615'
p4016
(lp4017
Vfood
p4018
aVportions
p4019
asS'2790'
p4020
(lp4021
Vfood
p4022
aVheritage
p4023
asS'3018'
p4024
(lp4025
Vbills
p4026
asS'3019'
p4027
(lp4028
Vbar
p4029
aVcouple
p4030
aVsushi
p4031
aVtimes
p4032
aVchef
p4033
aVeverything
p4034
aVtime
p4035
aVhusband
p4036
asS'3012'
p4037
(lp4038
Vsushi
p4039
aVside
p4040
aVcombinations
p4041
asS'3013'
p4042
(lp4043
Vrestaurant
p4044
asS'3011'
p4045
(lp4046
Vtaste
p4047
asS'3016'
p4048
(lp4049
Vportions
p4050
aVqualities
p4051
ag4051
asS'3017'
p4052
(lp4053
Vvisit
p4054
aVdinner
p4055
aVglass
p4056
aVbeer
p4057
aVplace
p4058
aVwine
p4059
asS'3014'
p4060
(lp4061
Vcall
p4062
ag4062
asS'3015'
p4063
(lp4064
Vportions
p4065
aVorder
p4066
asS'519'
p4067
(lp4068
Vseafood
p4069
aVselection
p4070
aVwine
p4071
asS'518'
p4072
(lp4073
Vservice
p4074
aVrestaurant
p4075
asS'926'
p4076
(lp4077
sS'1009'
p4078
(lp4079
Vfood
p4080
aVservice
p4081
aVlevel
p4082
asS'1008'
p4083
(lp4084
Vmenu
p4085
aVorder
p4086
aVexperience
p4087
asS'1007'
p4088
(lp4089
Vsum
p4090
aVdim
p4091
asS'1006'
p4092
(lp4093
Vsum
p4094
aVplaces
p4095
aVdim
p4096
aVworst
p4097
asS'513'
p4098
(lp4099
Vtable
p4100
asS'927'
p4101
(lp4102
Vok
p4103
aVservers
p4104
aVcrowd
p4105
ag4105
ag4105
aVeffort
p4106
asS'1003'
p4107
(lp4108
Vstrawberry
p4109
asS'1002'
p4110
(lp4111
Vfood
p4112
aVview
p4113
asS'1001'
p4114
(lp4115
Vplace
p4116
aVsunset
p4117
asS'1000'
p4118
(lp4119
Vfood
p4120
aVdishes
p4121
aVdrinks
p4122
asS'623'
p4123
(lp4124
Vvillage
p4125
aVgreenewich
p4126
asS'1226'
p4127
(lp4128
Vhome
p4129
aVsalads
p4130
asS'621'
p4131
(lp4132
Vdinner
p4133
aVentertainment
p4134
asS'620'
p4135
(lp4136
Vfood
p4137
aVdish
p4138
aVhusband
p4139
aVbeers
p4140
aVguest
p4141
asS'627'
p4142
(lp4143
Vtable
p4144
aVdinner
p4145
aVbar
p4146
asS'626'
p4147
(lp4148
Vvillage
p4149
aVplace
p4150
aVdrinks
p4151
asS'625'
p4152
(lp4153
Vtime
p4154
aVnight
p4155
aVpub
p4156
asS'624'
p4157
(lp4158
sS'629'
p4159
(lp4160
Vdecor
p4161
aVplace
p4162
aVbathrooms
p4163
aVlaugh
p4164
asS'628'
p4165
(lp4166
Vfood
p4167
aVdrinks
p4168
aVserver
p4169
asS'1228'
p4170
(lp4171
Vcheese
p4172
aVmanager
p4173
aVsandwich
p4174
aVbusiness
p4175
asS'2882'
p4176
(lp4177
Vlamb
p4178
aVlassi
p4179
ag4179
aVnaan
p4180
asS'2883'
p4181
(lp4182
sS'2880'
p4183
(lp4184
Vplaces
p4185
asS'2881'
p4186
(lp4187
Vfood
p4188
aVhome
p4189
aVbit
p4190
aVyears
p4191
aVsans
p4192
aVvenues
p4193
asS'2886'
p4194
(lp4195
Vweek
p4196
aVfood
p4197
aVwife
p4198
asS'2887'
p4199
(lp4200
Vfood
p4201
aVchicken
p4202
asS'2884'
p4203
(lp4204
Vambience
p4205
aVfood
p4206
asS'2885'
p4207
(lp4208
Vstomach
p4209
ag4209
asS'2888'
p4210
(lp4211
Voffensive
p4212
asS'2889'
p4213
(lp4214
sS'3196'
p4215
(lp4216
sS'1920'
p4217
(lp4218
Vroom
p4219
aVvillage
p4220
aVeast
p4221
asS'15'
p4222
(lp4223
Vfriends
p4224
asS'14'
p4225
(lp4226
Vplace
p4227
aVstaff
p4228
aVcafe
p4229
aVnoir
p4230
asS'16'
p4231
(lp4232
Vreservation
p4233
aVmanager
p4234
aVbar
p4235
aVexperience
p4236
aVnight
p4237
aVwhile
p4238
asS'1922'
p4239
(lp4240
Vservice
p4241
aVrestaurants
p4242
aVspace
p4243
ag4243
asS'3275'
p4244
(lp4245
Vwaitress
p4246
asS'1925'
p4247
(lp4248
Vchef
p4249
aVpoint
p4250
asS'3193'
p4251
(lp4252
Vservice
p4253
aVpeople
p4254
asS'929'
p4255
(lp4256
Vmenu
p4257
aVeverything
p4258
aVcity
p4259
asS'1534'
p4260
(lp4261
Vmoney
p4262
aVsandwich
p4263
aVnosh
p4264
asS'201'
p4265
(lp4266
Vfood
p4267
aVprice
p4268
aVlist
p4269
aVwine
p4270
asS'200'
p4271
(lp4272
Vgroup
p4273
asS'202'
p4274
(lp4275
sS'205'
p4276
(lp4277
Vservice
p4278
aVwaitstaff
p4279
asS'204'
p4280
(lp4281
Vfun
p4282
aVparty
p4283
aVspot
p4284
aVroom
p4285
aVtable
p4286
aVatomosphere
p4287
ag4287
aVquarters
p4288
asS'206'
p4289
(lp4290
Vfood
p4291
aVcourse
p4292
aVreason
p4293
asS'209'
p4294
(lp4295
Vdate
p4296
aVtable
p4297
aVplace
p4298
aVprivacy
p4299
ag4299
asS'208'
p4300
(lp4301
Vspecials
p4302
asS'1573'
p4303
(lp4304
Vtime
p4305
asS'831'
p4306
(lp4307
Vfood
p4308
aVview
p4309
asS'3470'
p4310
(lp4311
Vatmosphere
p4312
asS'687'
p4313
(lp4314
Vservice
p4315
aVoccasion
p4316
aVsetting
p4317
asS'3471'
p4318
(lp4319
sS'2239'
p4320
(lp4321
Vfood
p4322
aVmoney
p4323
aVplace
p4324
aVlot
p4325
aVexpectations
p4326
asS'2238'
p4327
(lp4328
Vsuan
p4329
asS'1570'
p4330
(lp4331
Vfood
p4332
asS'834'
p4333
(lp4334
Vbit
p4335
asS'2230'
p4336
(lp4337
Vfood
p4338
asS'2233'
p4339
(lp4340
Vprice
p4341
asS'3473'
p4342
(lp4343
Vloud
p4344
aVhot
p4345
aVdark
p4346
asS'2235'
p4347
(lp4348
Vnyc
p4349
aVthai
p4350
aVrestaurants
p4351
aVone
p4352
asS'2234'
p4353
(lp4354
sS'2237'
p4355
(lp4356
Vthai
p4357
asS'2236'
p4358
(lp4359
Vfood
p4360
aVsauces
p4361
ag4361
ag4361
asS'682'
p4362
(lp4363
Vmanhattanite
p4364
ag4364
asS'3499'
p4365
(lp4366
Vglass
p4367
aVwines
p4368
asS'3496'
p4369
(lp4370
Vpizza
p4371
asS'3494'
p4372
(lp4373
Vpizza
p4374
asS'3495'
p4375
(lp4376
sS'3492'
p4377
(lp4378
Vpasta
p4379
aVpizza
p4380
asS'3493'
p4381
(lp4382
Vambience
p4383
aVservice
p4384
asS'3490'
p4385
(lp4386
Vrestaurant
p4387
aVyears
p4388
asS'3491'
p4389
(lp4390
Vfood
p4391
asS'2095'
p4392
(lp4393
Vnoodles
p4394
asS'2094'
p4395
(lp4396
sS'2097'
p4397
(lp4398
Vdish
p4399
asS'2096'
p4400
(lp4401
Vplaces
p4402
aVdimsum
p4403
ag4403
asS'2091'
p4404
(lp4405
Vpiece
p4406
asS'2090'
p4407
(lp4408
Vsum
p4409
aVbite
p4410
asS'2093'
p4411
(lp4412
Vsomeone
p4413
aVbill
p4414
asS'2092'
p4415
(lp4416
sS'3654'
p4417
(lp4418
Vfood
p4419
aVdish
p4420
aVsalmon
p4421
asS'3655'
p4422
(lp4423
Vworld
p4424
asS'3650'
p4425
(lp4426
Vgin
p4427
asS'2098'
p4428
(lp4429
Vservice
p4430
asS'3652'
p4431
(lp4432
sS'3653'
p4433
(lp4434
Vny
p4435
aVchance
p4436
aVfriends
p4437
aVfriend
p4438
asS'2525'
p4439
(lp4440
Vplace
p4441
aVside
p4442
aVpizzeria
p4443
aVidea
p4444
asS'2524'
p4445
(lp4446
Vplace
p4447
asS'2526'
p4448
(lp4449
Vprices
p4450
aVhour
p4451
aVarea
p4452
aVpizzerias
p4453
ag4453
asS'2521'
p4454
(lp4455
Vfood
p4456
aVeverything
p4457
aVservice
p4458
aVenvironment
p4459
asS'2520'
p4460
(lp4461
Vplace
p4462
asS'2523'
p4463
(lp4464
Vfood
p4465
asS'2522'
p4466
(lp4467
Vbread
p4468
aVbakery
p4469
asS'2529'
p4470
(lp4471
Vbar
p4472
aVidea
p4473
asS'2709'
p4474
(lp4475
Vdesserts
p4476
aVrestaurants
p4477
asS'2708'
p4478
(lp4479
Vfood
p4480
asS'2705'
p4481
(lp4482
Voutside
p4483
ag4483
asS'2704'
p4484
(lp4485
sS'2707'
p4486
(lp4487
sS'2706'
p4488
(lp4489
Vpeople
p4490
asS'2701'
p4491
(lp4492
Vfood
p4493
aVservice
p4494
asS'2700'
p4495
(lp4496
Vtable
p4497
aVfriend
p4498
aVsomeplace
p4499
ag4499
asS'2703'
p4500
(lp4501
sS'2702'
p4502
(lp4503
Vappetizer
p4504
aVfilet
p4505
ag4505
aVfrites
p4506
ag4505
ag4505
asS'1829'
p4507
(lp4508
sS'1828'
p4509
(lp4510
Vhomemade
p4511
ag4511
aVpie
p4512
asS'1825'
p4513
(lp4514
Vpizzerias
p4515
asS'1824'
p4516
(lp4517
sS'1827'
p4518
(lp4519
Vfood
p4520
aVbusiness
p4521
aVpride
p4522
asS'1826'
p4523
(lp4524
Vnew
p4525
aVeveryone
p4526
aVyork
p4527
aVsal
p4528
asS'1821'
p4529
(lp4530
Vneighborhood
p4531
aVpizzeria
p4532
asS'1820'
p4533
(lp4534
Vhome
p4535
aVplace
p4536
aVheart
p4537
asS'512'
p4538
(lp4539
Vday
p4540
aVmaitre
p4541
asS'1822'
p4542
(lp4543
Vprice
p4544
aVpizzas
p4545
asS'2147'
p4546
(lp4547
Veveryone
p4548
aVplace
p4549
aVmeal
p4550
asS'2146'
p4551
(lp4552
Vfood
p4553
aVhome
p4554
aVatmosphere
p4555
aVstaff
p4556
asS'2145'
p4557
(lp4558
sS'2144'
p4559
(lp4560
Vhurley
p4561
asS'2143'
p4562
(lp4563
sS'2142'
p4564
(lp4565
Veverything
p4566
aVmatter
p4567
asS'2141'
p4568
(lp4569
Vtuna
p4570
asS'2140'
p4571
(lp4572
Veveryone
p4573
aVname
p4574
asS'920'
p4575
(lp4576
Vfood
p4577
asS'921'
p4578
(lp4579
Vplace
p4580
asS'922'
p4581
(lp4582
Vbit
p4583
aVservice
p4584
asS'923'
p4585
(lp4586
Vsurprise
p4587
asS'924'
p4588
(lp4589
Vroom
p4590
aVmeal
p4591
asS'925'
p4592
(lp4593
Vservice
p4594
asS'2149'
p4595
(lp4596
Vfood
p4597
asS'2148'
p4598
(lp4599
sS'2411'
p4600
(lp4601
Vambiance
p4602
aVpopularity
p4603
aVreputation
p4604
asS'3276'
p4605
(lp4606
Vservice
p4607
asS'3277'
p4608
(lp4609
sS'3274'
p4610
(lp4611
Vside
p4612
aVpeople
p4613
aVupper
p4614
aVupper
p4615
aVeast
p4616
asS'1923'
p4617
(lp4618
Vcase
p4619
ag4619
asS'3272'
p4620
(lp4621
Vsake
p4622
aVcollection
p4623
asS'3273'
p4624
(lp4625
Vsake
p4626
asS'1926'
p4627
(lp4628
Vnight
p4629
aVbirthday
p4630
aVvillage
p4631
asS'1927'
p4632
(lp4633
Vsomeone
p4634
asS'1928'
p4635
(lp4636
sS'1929'
p4637
(lp4638
Vfood
p4639
aVsteak
p4640
aVhusband
p4641
aVservice
p4642
aVhalibut
p4643
asS'3278'
p4644
(lp4645
Vfood
p4646
aVquality
p4647
aVrestaurant
p4648
aVportioins
p4649
ag4649
asS'3279'
p4650
(lp4651
Vprices
p4652
aVway
p4653
asS'3474'
p4654
(lp4655
Vconversation
p4656
asS'833'
p4657
(lp4658
Vspot
p4659
aVterminal
p4660
asS'3476'
p4661
(lp4662
Vplace
p4663
asS'3477'
p4664
(lp4665
Vfood
p4666
aVatmosphere
p4667
aVspot
p4668
asS'836'
p4669
(lp4670
sS'837'
p4671
(lp4672
Vambience
p4673
aVpeople
p4674
asS'3472'
p4675
(lp4676
Vreservations
p4677
aVtimes
p4678
aVhour
p4679
aVtable
p4680
asS'835'
p4681
(lp4682
Vfood
p4683
aVlunch
p4684
asS'838'
p4685
(lp4686
Vplace
p4687
asS'839'
p4688
(lp4689
Vplace
p4690
aVarchitecture
p4691
asS'3478'
p4692
(lp4693
Vperson
p4694
asS'3479'
p4695
(lp4696
Veverytime
p4697
aVfront
p4698
asS'3'
p4699
(lp4700
Veverything
p4701
aVplace
p4702
aVservice
p4703
aVstaff
p4704
aVstickler
p4705
ag4705
asS'1986'
p4706
(lp4707
Vthing
p4708
aVservice
p4709
aVshow
p4710
asS'3319'
p4711
(lp4712
Vwater
p4713
aVkind
p4714
aVservice
p4715
asS'3318'
p4716
(lp4717
Vtable
p4718
asS'3313'
p4719
(lp4720
Vbday
p4721
asS'3315'
p4722
(lp4723
Vfood
p4724
aVprice
p4725
aVevening
p4726
aVservice
p4727
asS'3314'
p4728
(lp4729
Vhouse
p4730
aVtop
p4731
asS'3317'
p4732
(lp4733
Vfood
p4734
aVcity
p4735
aVday
p4736
aVskiline
p4737
asS'3316'
p4738
(lp4739
Vdessert
p4740
asS'784'
p4741
(lp4742
Vtables
p4743
aVgroup
p4744
aVplace
p4745
aVsusans
p4746
aVfamilies
p4747
asS'785'
p4748
(lp4749
sS'780'
p4750
(lp4751
Vpenny
p4752
asS'781'
p4753
(lp4754
Vplace
p4755
asS'1728'
p4756
(lp4757
Vplace
p4758
asS'1729'
p4759
(lp4760
Vpizza
p4761
asS'1727'
p4762
(lp4763
Vtaste
p4764
aVmusic
p4765
aVsaturday
p4766
asS'1724'
p4767
(lp4768
Vatmosphere
p4769
aVpart
p4770
aVnight
p4771
asS'788'
p4772
(lp4773
Vplace
p4774
aVlook
p4775
aVreality
p4776
asS'1723'
p4777
(lp4778
Vfood
p4779
aVspicy
p4780
aVsauce
p4781
aVfries
p4782
asS'1720'
p4783
(lp4784
Vwannabes
p4785
asS'1721'
p4786
(lp4787
Vcity
p4788
aVnight
p4789
aVyear
p4790
ag4790
aVstrike
p4791
asS'153'
p4792
(lp4793
Vfood
p4794
aVcity
p4795
aVplaces
p4796
aVcomfort
p4797
asS'3005'
p4798
(lp4799
Vsushi
p4800
aVbar
p4801
aVfront
p4802
asS'61'
p4803
(lp4804
Vlunch
p4805
aVdinner
p4806
aVfriends
p4807
aVspot
p4808
aVdrinks
p4809
asS'62'
p4810
(lp4811
Vbeer
p4812
aVbartender
p4813
asS'2438'
p4814
(lp4815
Vsecret
p4816
asS'3001'
p4817
(lp4818
Vstaff
p4819
asS'3000'
p4820
(lp4821
Vexperience
p4822
aVanything
p4823
aVreviewer
p4824
asS'66'
p4825
(lp4826
Vfriends
p4827
aVpeople
p4828
aVtheir
p4829
aVtheir
p4830
asS'3002'
p4831
(lp4832
Vsushi
p4833
aVtokyo
p4834
asS'1985'
p4835
(lp4836
Vwine
p4837
aVbotle
p4838
ag4838
aVroof
p4839
aVfare
p4840
asS'407'
p4841
(lp4842
Vsushi
p4843
asS'406'
p4844
(lp4845
Vmouth
p4846
ag4846
asS'1582'
p4847
(lp4848
Vrestaurant
p4849
asS'1583'
p4850
(lp4851
sS'1580'
p4852
(lp4853
Vnew
p4854
aVyork
p4855
aVstaff
p4856
asS'1581'
p4857
(lp4858
Vcity
p4859
aVtime
p4860
asS'1586'
p4861
(lp4862
Vfood
p4863
aVlarge
p4864
asS'405'
p4865
(lp4866
Vsushi
p4867
aVrestaurant
p4868
aVurchin
p4869
asS'1584'
p4870
(lp4871
Vbest
p4872
asS'1585'
p4873
(lp4874
sS'159'
p4875
(lp4876
Vfood
p4877
aVvariety
p4878
aVplates
p4879
asS'1038'
p4880
(lp4881
Vmeal
p4882
aVservice
p4883
asS'1372'
p4884
(lp4885
Vambience
p4886
aVservice
p4887
asS'508'
p4888
(lp4889
Vbit
p4890
aVside
p4891
aVfrites
p4892
asS'509'
p4893
(lp4894
Vservice
p4895
asS'1032'
p4896
(lp4897
Vfish
p4898
aVsushi
p4899
aVquality
p4900
aVservice
p4901
asS'1033'
p4902
(lp4903
Vdelivery
p4904
asS'504'
p4905
(lp4906
Vfood
p4907
aVdecor
p4908
aVlist
p4909
aVwine
p4910
asS'505'
p4911
(lp4912
Vsteak
p4913
aVclassics
p4914
ag4914
asS'502'
p4915
(lp4916
Vfood
p4917
aVvisit
p4918
aVnight
p4919
asS'1037'
p4920
(lp4921
Vfood
p4922
asS'500'
p4923
(lp4924
sS'1035'
p4925
(lp4926
Vbite
p4927
ag4927
ag4927
asS'630'
p4928
(lp4929
Vdinner
p4930
aVrestaurant
p4931
aVdrinks
p4932
asS'1213'
p4933
(lp4934
Vfood
p4935
aVside
p4936
aVservice
p4937
aVarea
p4938
aVbgel
p4939
asS'1210'
p4940
(lp4941
Vvalue
p4942
asS'1211'
p4943
(lp4944
Vcity
p4945
aVbagels
p4946
asS'1216'
p4947
(lp4948
Vbagel
p4949
aVplace
p4950
aVway
p4951
asS'401'
p4952
(lp4953
Vservice
p4954
aVflower
p4955
asS'1214'
p4956
(lp4957
Vbagel
p4958
aVstreet
p4959
aVarea
p4960
aVblocks
p4961
asS'1215'
p4962
(lp4963
Vbagels
p4964
aVplace
p4965
asS'638'
p4966
(lp4967
Vfood
p4968
aVprices
p4969
aVevening
p4970
aVreasonable
p4971
asS'639'
p4972
(lp4973
sS'1218'
p4974
(lp4975
Vbagel
p4976
aVcourse
p4977
aVatmosphere
p4978
aVplace
p4979
aVhour
p4980
asS'1376'
p4981
(lp4982
Vweek
p4983
asS'2416'
p4984
(lp4985
Vnyc
p4986
aVrestaurants
p4987
aVvillage
p4988
aVok
p4989
asS'2899'
p4990
(lp4991
Vlamb
p4992
aVmeal
p4993
aVbread
p4994
asS'782'
p4995
(lp4996
Vfood
p4997
aVservice
p4998
asS'2895'
p4999
(lp5000
Vanyone
p5001
aVdining
p5002
aVplace
p5003
aVexperience
p5004
aVvalue
p5005
asS'2894'
p5006
(lp5007
Vfood
p5008
aVplace
p5009
asS'2897'
p5010
(lp5011
Vcity
p5012
aVdecor
p5013
aVrestaurant
p5014
aVfood
p5015
aVambiance
p5016
aVyork
p5017
aVnew
p5018
asS'2896'
p5019
(lp5020
Vfood
p5021
aVdinner
p5022
aVambiance
p5023
asS'2891'
p5024
(lp5025
Vfood
p5026
aVexperience
p5027
aVyears
p5028
aVdining
p5029
aVquality
p5030
aVwine
p5031
asS'2890'
p5032
(lp5033
Vnyc
p5034
aVrestaurant
p5035
asS'2893'
p5036
(lp5037
Vwork
p5038
aVgroup
p5039
aVsaturday
p5040
aVpeople
p5041
aVstaff
p5042
asS'2892'
p5043
(lp5044
Vkind
p5045
aVgroup
p5046
aVstaff
p5047
asS'1454'
p5048
(lp5049
Vdate
p5050
aVmenu
p5051
aVpoint
p5052
aVdrawback
p5053
ag5053
ag5053
aVitems
p5054
asS'1455'
p5055
(lp5056
Vcity
p5057
aVrestaurant
p5058
aVyork
p5059
aVnew
p5060
asS'1104'
p5061
(lp5062
Vlife
p5063
aVsauce
p5064
asS'1105'
p5065
(lp5066
Vneighborhood
p5067
aVspot
p5068
aVyears
p5069
asS'1102'
p5070
(lp5071
Vtime
p5072
asS'1103'
p5073
(lp5074
Vnothing
p5075
aVdinner
p5076
asS'1100'
p5077
(lp5078
Vservice
p5079
aVtimes
p5080
asS'1101'
p5081
(lp5082
Vglass
p5083
aVwine
p5084
asS'1458'
p5085
(lp5086
Vdish
p5087
aVchicken
p5088
aVwaiters
p5089
aVfavorite
p5090
aVhalf
p5091
asS'1459'
p5092
(lp5093
Vmanhattan
p5094
aVfriend
p5095
aVparmesan
p5096
aVziti
p5097
ag5097
asS'1108'
p5098
(lp5099
Vhouse
p5100
aVsteakhouse
p5101
ag5101
asS'1109'
p5102
(lp5103
Vcity
p5104
aVpotatoes
p5105
asS'1722'
p5106
(lp5107
Vfun
p5108
aVwait
p5109
aVpart
p5110
aVway
p5111
aVstaff
p5112
aVbeautification
p5113
ag5113
asS'789'
p5114
(lp5115
Vnothing
p5116
aVmenu
p5117
asS'1357'
p5118
(lp5119
Vspot
p5120
aVattitude
p5121
asS'1576'
p5122
(lp5123
Vplace
p5124
asS'959'
p5125
(lp5126
Vatmosphere
p5127
aVservice
p5128
asS'958'
p5129
(lp5130
Vlamb
p5131
aVwine
p5132
asS'2794'
p5133
(lp5134
Vchocolate
p5135
aVcry
p5136
asS'216'
p5137
(lp5138
Vspot
p5139
asS'217'
p5140
(lp5141
Vboyfriend
p5142
aVbirthday
p5143
aVnight
p5144
asS'214'
p5145
(lp5146
Vwaitstaff
p5147
aVwaitstaff
p5148
asS'215'
p5149
(lp5150
Vlist
p5151
aVwine
p5152
asS'212'
p5153
(lp5154
Vmenu
p5155
aVchance
p5156
aVline
p5157
aVrest
p5158
aVcaviar
p5159
aVvarietys
p5160
asS'213'
p5161
(lp5162
Vwater
p5163
asS'210'
p5164
(lp5165
Vrestaurant
p5166
asS'211'
p5167
(lp5168
Vfood
p5169
aVmoney
p5170
aVservice
p5171
asS'218'
p5172
(lp5173
Vcaviar
p5174
aVsecond
p5175
asS'3094'
p5176
(lp5177
Vanything
p5178
asS'957'
p5179
(lp5180
Vfood
p5181
aVmenu
p5182
aVplaces
p5183
aVbrassiere
p5184
asS'956'
p5185
(lp5186
Vfood
p5187
asS'939'
p5188
(lp5189
Vfood
p5190
asS'4'
p5191
(lp5192
Vdate
p5193
aVgreat
p5194
aVgreat
p5195
aVgreat
p5196
aVbrunch
p5197
asS'3489'
p5198
(lp5199
Vfood
p5200
asS'3488'
p5201
(lp5202
Vwaiters
p5203
aVowners
p5204
asS'3481'
p5205
(lp5206
Vmanhattan
p5207
aVscene
p5208
aVcustomers
p5209
asS'3480'
p5210
(lp5211
sS'3483'
p5212
(lp5213
Vdinner
p5214
aVwork
p5215
aVwaterbug
p5216
asS'3482'
p5217
(lp5218
Vfood
p5219
aVtable
p5220
asS'3487'
p5221
(lp5222
Vnyc
p5223
aVlife
p5224
aVplace
p5225
aVwaterbugs
p5226
aVdream
p5227
asS'2474'
p5228
(lp5229
Vfood
p5230
aVdish
p5231
aVsteak
p5232
aVstuff
p5233
asS'3649'
p5234
(lp5235
Vfriends
p5236
aVbar
p5237
aVbartender
p5238
asS'3648'
p5239
(lp5240
Vrestaurant
p5241
asS'3647'
p5242
(lp5243
sS'3646'
p5244
(lp5245
sS'3645'
p5246
(lp5247
Vfriends
p5248
aVdates
p5249
asS'3644'
p5250
(lp5251
sS'3643'
p5252
(lp5253
Vcrowd
p5254
ag5254
asS'3642'
p5255
(lp5256
Vfood
p5257
aVservice
p5258
asS'3641'
p5259
(lp5260
Vplace
p5261
asS'3640'
p5262
(lp5263
Vplace
p5264
asS'2550'
p5265
(lp5266
sS'2551'
p5267
(lp5268
sS'2553'
p5269
(lp5270
Vneighborhood
p5271
aVpizza
p5272
aVtoninos
p5273
ag5273
asS'2554'
p5274
(lp5275
Vpizza
p5276
asS'2555'
p5277
(lp5278
Vservice
p5279
aVdelivery
p5280
aVway
p5281
aVtime
p5282
aVprices
p5283
aVpizza
p5284
aVtastes
p5285
asS'3004'
p5286
(lp5287
Vplate
p5288
aVfish
p5289
aVsushi
p5290
aVplace
p5291
aVyork
p5292
aVnew
p5293
aVpieces
p5294
asS'2558'
p5295
(lp5296
Vspecials
p5297
aVsauce
p5298
aVpizza
p5299
aVjob
p5300
aVpizzeria
p5301
aVsort
p5302
aVcrust
p5303
aVtomato
p5304
asS'2559'
p5305
(lp5306
sS'2396'
p5307
(lp5308
Vfun
p5309
aVatmosphere
p5310
aVplace
p5311
asS'2397'
p5312
(lp5313
Vlunch
p5314
aVdinner
p5315
aVtimes
p5316
asS'2394'
p5317
(lp5318
Vminutes
p5319
aVwait
p5320
asS'2395'
p5321
(lp5322
Vwait
p5323
asS'2392'
p5324
(lp5325
Vfood
p5326
aVthai
p5327
aVappetizers
p5328
asS'2393'
p5329
(lp5330
Vminutes
p5331
aVpeople
p5332
asS'2390'
p5333
(lp5334
Vdish
p5335
aVsum
p5336
aVitem
p5337
asS'2391'
p5338
(lp5339
Vfood
p5340
asS'2398'
p5341
(lp5342
Vspecials
p5343
aVlunch
p5344
aVstrength
p5345
ag5345
asS'65'
p5346
(lp5347
Vyears
p5348
aVheartland
p5349
aVdisappointed
p5350
asS'2778'
p5351
(lp5352
Vservice
p5353
aVaverage
p5354
asS'2779'
p5355
(lp5356
Vwaiter
p5357
aVappetizers
p5358
aVgroup
p5359
aVitems
p5360
asS'3003'
p5361
(lp5362
Vchef
p5363
aVfish
p5364
aVsushi
p5365
aVsauce
p5366
aVperfection
p5367
aVwasabi
p5368
asS'2770'
p5369
(lp5370
Vreview
p5371
aVplace
p5372
aVfirst
p5373
asS'2771'
p5374
(lp5375
Vconversation
p5376
aVtable
p5377
asS'2772'
p5378
(lp5379
Vtables
p5380
aVrestaurant
p5381
aVmenu
p5382
aVlist
p5383
aVway
p5384
aVwine
p5385
asS'2773'
p5386
(lp5387
Vselection
p5388
aVwines
p5389
ag5389
asS'2774'
p5390
(lp5391
Vprice
p5392
aVservice
p5393
asS'2777'
p5394
(lp5395
Vfood
p5396
aVfactor
p5397
ag5397
aVaverage
p5398
ag5398
aVdeficiencies
p5399
asS'3166'
p5400
(lp5401
Vside
p5402
asS'3167'
p5403
(lp5404
Vbagel
p5405
aVbagels
p5406
aVexperience
p5407
asS'3165'
p5408
(lp5409
Vtoaster
p5410
asS'1851'
p5411
(lp5412
Vservice
p5413
aVpar
p5414
asS'1852'
p5415
(lp5416
Vfood
p5417
aVcomplaint
p5418
asS'1853'
p5419
(lp5420
Vdish
p5421
aVflavor
p5422
aVsalmon
p5423
aVprice
p5424
asS'1854'
p5425
(lp5426
Vfood
p5427
asS'1855'
p5428
(lp5429
Vhusband
p5430
asS'1856'
p5431
(lp5432
Vglass
p5433
asS'1857'
p5434
(lp5435
Vdrink
p5436
aVspace
p5437
asS'2172'
p5438
(lp5439
Vbagels
p5440
asS'2173'
p5441
(lp5442
Vspot
p5443
aVworth
p5444
aVave
p5445
asS'2170'
p5446
(lp5447
Vstaff
p5448
asS'2171'
p5449
(lp5450
Vfood
p5451
asS'2176'
p5452
(lp5453
sS'2177'
p5454
(lp5455
sS'915'
p5456
(lp5457
Vselection
p5458
asS'914'
p5459
(lp5460
Vtime
p5461
asS'2178'
p5462
(lp5463
Vbagel
p5464
aVeverything
p5465
aVfavorite
p5466
ag5466
aVbagles
p5467
asS'916'
p5468
(lp5469
Vfood
p5470
aVdishes
p5471
asS'911'
p5472
(lp5473
Vfood
p5474
aVselection
p5475
aVexperience
p5476
aVbelly
p5477
aVfat
p5478
asS'910'
p5479
(lp5480
Vservice
p5481
asS'913'
p5482
(lp5483
Vconversation
p5484
aVrestaurant
p5485
aVdecour
p5486
ag5486
ag5486
aVvoices
p5487
asS'912'
p5488
(lp5489
Vselection
p5490
aVlist
p5491
aVwine
p5492
aVtop
p5493
asS'2604'
p5494
(lp5495
Vplace
p5496
aVpizza
p5497
aVl
p5498
aVl
p5499
asS'2605'
p5500
(lp5501
Vcheese
p5502
aVkind
p5503
aVmine
p5504
aVgoat
p5505
asS'2606'
p5506
(lp5507
Vfriend
p5508
aVpizza
p5509
asS'2607'
p5510
(lp5511
Vday
p5512
aVsangria
p5513
ag5513
asS'2600'
p5514
(lp5515
Vanyone
p5516
aVplace
p5517
asS'2601'
p5518
(lp5519
sS'2602'
p5520
(lp5521
Vanyone
p5522
aVfamily
p5523
asS'1420'
p5524
(lp5525
Vbeer
p5526
asS'2608'
p5527
(lp5528
Vgroup
p5529
aVkind
p5530
aVplace
p5531
asS'2609'
p5532
(lp5533
sS'3261'
p5534
(lp5535
Vspicy
p5536
asS'3260'
p5537
(lp5538
Vowner
p5539
asS'3263'
p5540
(lp5541
Vfood
p5542
aVkai
p5543
aVkai
p5544
aVkai
p5545
asS'1930'
p5546
(lp5547
Vwaiter
p5548
aVdessert
p5549
aVbirthday
p5550
aVanyone
p5551
aVoccassion
p5552
asS'3265'
p5553
(lp5554
Vportions
p5555
aVmenu
p5556
aVappetizers
p5557
aVappetizer
p5558
aVchef
p5559
aVperson
p5560
aVdish
p5561
aVmeal
p5562
aVtasting
p5563
aVudon
p5564
ag5564
asS'3264'
p5565
(lp5566
Vsauce
p5567
aVcod
p5568
asS'1935'
p5569
(lp5570
Vdate
p5571
aVdinner
p5572
aVgroup
p5573
aVcontract
p5574
aVdeposit
p5575
aVfl
p5576
asS'3266'
p5577
(lp5578
Vportion
p5579
aVsomeone
p5580
aVplace
p5581
aVseafood
p5582
asS'3268'
p5583
(lp5584
Vambience
p5585
asS'1939'
p5586
(lp5587
Vgem
p5588
aVvillage
p5589
asS'2051'
p5590
(lp5591
Vwaiters
p5592
aVtimes
p5593
asS'847'
p5594
(lp5595
Vnew
p5596
aVmeal
p5597
aVroom
p5598
aVrestaurant
p5599
aVclubhouse
p5600
asS'846'
p5601
(lp5602
Vmenu
p5603
aVmeal
p5604
aVservice
p5605
aVstaff
p5606
asS'845'
p5607
(lp5608
Vdining
p5609
aVmusic
p5610
aVroom
p5611
asS'844'
p5612
(lp5613
Vfood
p5614
asS'843'
p5615
(lp5616
Vfood
p5617
aVatmosphere
p5618
aVanything
p5619
aVservice
p5620
aVrestaurant
p5621
asS'3462'
p5622
(lp5623
Vdeal
p5624
aVchoice
p5625
ag5625
asS'3461'
p5626
(lp5627
sS'3460'
p5628
(lp5629
Vdelivery
p5630
aVvariety
p5631
asS'3469'
p5632
(lp5633
Vchicken
p5634
aVpad
p5635
asS'3468'
p5636
(lp5637
Vfood
p5638
aVrestaurant
p5639
asS'3364'
p5640
(lp5641
Vdate
p5642
aVspot
p5643
asS'3365'
p5644
(lp5645
Veverything
p5646
aVopera
p5647
asS'3361'
p5648
(lp5649
Veverything
p5650
aVrest
p5651
aVmenu
p5652
asS'2407'
p5653
(lp5654
Vreason
p5655
ag5655
asS'1192'
p5656
(lp5657
Veverything
p5658
aVsushi
p5659
aVsauce
p5660
asS'1739'
p5661
(lp5662
Vservice
p5663
asS'1738'
p5664
(lp5665
Vstaff
p5666
asS'1731'
p5667
(lp5668
sS'1730'
p5669
(lp5670
Vmeal
p5671
aVway
p5672
asS'1733'
p5673
(lp5674
Vdecor
p5675
asS'1732'
p5676
(lp5677
sS'1735'
p5678
(lp5679
Vcheese
p5680
aVpeople
p5681
asS'1734'
p5682
(lp5683
Vservice
p5684
asS'1039'
p5685
(lp5686
Vdecor
p5687
asS'753'
p5688
(lp5689
Vmanager
p5690
aVtime
p5691
aVcustomer
p5692
asS'752'
p5693
(lp5694
Vfood
p5695
aVtimes
p5696
asS'751'
p5697
(lp5698
sS'750'
p5699
(lp5700
Vfood
p5701
aVservice
p5702
asS'757'
p5703
(lp5704
Vfood
p5705
aVchance
p5706
aVplace
p5707
aVlot
p5708
aVpeople
p5709
aVbridge
p5710
asS'756'
p5711
(lp5712
sS'755'
p5713
(lp5714
Vrestaurant
p5715
asS'754'
p5716
(lp5717
Vservice
p5718
aVwaiters
p5719
asS'759'
p5720
(lp5721
Vfood
p5722
aVblock
p5723
aVgrand
p5724
asS'758'
p5725
(lp5726
Vfood
p5727
aVny
p5728
aVplaces
p5729
aVlot
p5730
aVfusion
p5731
ag5731
ag5731
asS'1595'
p5732
(lp5733
Vnyc
p5734
aVvisit
p5735
aVmeal
p5736
asS'3071'
p5737
(lp5738
Vtables
p5739
aVatomosphere
p5740
ag5740
ag5740
asS'1597'
p5741
(lp5742
Vnyc
p5743
aVprice
p5744
aVingredients
p5745
asS'1596'
p5746
(lp5747
Vhome
p5748
aVcity
p5749
aVpizza
p5750
aVrestaurant
p5751
aVneapolitan
p5752
aVdifferences
p5753
ag5753
aVpreference
p5754
asS'2958'
p5755
(lp5756
Vnyc
p5757
asS'3075'
p5758
(lp5759
Vplace
p5760
asS'3076'
p5761
(lp5762
sS'1592'
p5763
(lp5764
Vserver
p5765
ag5765
asS'2954'
p5766
(lp5767
Vneighborhood
p5768
aVrestaurant
p5769
asS'2955'
p5770
(lp5771
Vreviews
p5772
aVplace
p5773
asS'2956'
p5774
(lp5775
Vtimes
p5776
asS'2957'
p5777
(lp5778
Vfood
p5779
aVbill
p5780
aVwaiters
p5781
asS'1599'
p5782
(lp5783
Vpizza
p5784
asS'1598'
p5785
(lp5786
sS'1024'
p5787
(lp5788
Vfriends
p5789
aVdrink
p5790
aVplace
p5791
aVorder
p5792
aVpearls
p5793
asS'1027'
p5794
(lp5795
Vsake
p5796
aVplate
p5797
aVsushi
p5798
aVorder
p5799
asS'1031'
p5800
(lp5801
Vfood
p5802
aVatmosphere
p5803
aVplace
p5804
aVservice
p5805
aVamounts
p5806
asS'1021'
p5807
(lp5808
Vwork
p5809
aVnight
p5810
asS'1974'
p5811
(lp5812
Vpar
p5813
asS'1023'
p5814
(lp5815
Vdesserts
p5816
aVdrinks
p5817
asS'1022'
p5818
(lp5819
Vwaitress
p5820
aVmini
p5821
ag5821
aVfruits
p5822
asS'1029'
p5823
(lp5824
Vplate
p5825
aVvariety
p5826
asS'1028'
p5827
(lp5828
Vportions
p5829
asS'503'
p5830
(lp5831
Vservice
p5832
aVgod
p5833
asS'1034'
p5834
(lp5835
Vdelivery
p5836
aVseating
p5837
aVsushi
p5838
aVservice
p5839
asS'501'
p5840
(lp5841
Vnyc
p5842
aVvisit
p5843
asS'605'
p5844
(lp5845
sS'1212'
p5846
(lp5847
Vhome
p5848
aVplace
p5849
asS'607'
p5850
(lp5851
Vfriends
p5852
aVplace
p5853
aVvillage
p5854
asS'606'
p5855
(lp5856
sS'1209'
p5857
(lp5858
Vbagels
p5859
asS'1208'
p5860
(lp5861
Vside
p5862
asS'603'
p5863
(lp5864
Vmenu
p5865
aVservice
p5866
aVitems
p5867
asS'602'
p5868
(lp5869
Vvillage
p5870
aVburger
p5871
asS'1205'
p5872
(lp5873
Vcity
p5874
aVsushi
p5875
asS'1204'
p5876
(lp5877
Vfood
p5878
aVside
p5879
aVrest
p5880
aVupper
p5881
aVeast
p5882
asS'1207'
p5883
(lp5884
Vtuna
p5885
asS'1206'
p5886
(lp5887
Vfood
p5888
aVplace
p5889
asS'609'
p5890
(lp5891
Vstauff
p5892
asS'1200'
p5893
(lp5894
Vtuna
p5895
aVspicy
p5896
aVroll
p5897
aVvariety
p5898
aVnori
p5899
aVperformance
p5900
asS'1203'
p5901
(lp5902
Vrestaurant
p5903
asS'633'
p5904
(lp5905
sS'634'
p5906
(lp5907
Vfood
p5908
aVprices
p5909
aVquality
p5910
aVservice
p5911
asS'935'
p5912
(lp5913
Vrice
p5914
aVlarge
p5915
asS'1217'
p5916
(lp5917
Vtown
p5918
aVbagels
p5919
aVplace
p5920
aVblock
p5921
asS'3108'
p5922
(lp5923
Vfood
p5924
aVcasualness
p5925
asS'3105'
p5926
(lp5927
Vtimes
p5928
asS'3106'
p5929
(lp5930
Vrestaurant
p5931
aVhype
p5932
asS'637'
p5933
(lp5934
Vglass
p5935
aVdining
p5936
aVsurroundings
p5937
ag5937
ag5937
asS'3100'
p5938
(lp5939
Vhour
p5940
asS'3101'
p5941
(lp5942
sS'3102'
p5943
(lp5944
Vdrinks
p5945
aVhalf
p5946
ag5946
ag5946
asS'3103'
p5947
(lp5948
Vbartender
p5949
aVmanhattan
p5950
asS'1111'
p5951
(lp5952
Vdrinks
p5953
asS'1110'
p5954
(lp5955
Vmanager
p5956
aVbartender
p5957
asS'1113'
p5958
(lp5959
Vcity
p5960
aVrestaurants
p5961
asS'1112'
p5962
(lp5963
sS'1115'
p5964
(lp5965
Vfilet
p5966
aVpiece
p5967
asS'1114'
p5968
(lp5969
Vstaff
p5970
asS'1117'
p5971
(lp5972
Vdessert
p5973
aVdinner
p5974
aVbread
p5975
aVexperience
p5976
aVchocolate
p5977
aVwhite
p5978
aVgelato
p5979
asS'1116'
p5980
(lp5981
Vgarlic
p5982
asS'1119'
p5983
(lp5984
Vmenu
p5985
aVthai
p5986
aVpad
p5987
aVplace
p5988
aVsoup
p5989
asS'1118'
p5990
(lp5991
Vmike
p5992
asS'1351'
p5993
(lp5994
Vwork
p5995
asS'1449'
p5996
(lp5997
sS'1448'
p5998
(lp5999
sS'1350'
p6000
(lp6001
sS'2401'
p6002
(lp6003
Vplace
p6004
asS'450'
p6005
(lp6006
Vtender
p6007
asS'460'
p6008
(lp6009
Vgem
p6010
asS'463'
p6011
(lp6012
sS'489'
p6013
(lp6014
Vnyc
p6015
aVyears
p6016
asS'488'
p6017
(lp6018
Vspace
p6019
asS'487'
p6020
(lp6021
Vaddition
p6022
asS'486'
p6023
(lp6024
Vbeef
p6025
asS'485'
p6026
(lp6027
Vplace
p6028
asS'484'
p6029
(lp6030
Vfood
p6031
asS'483'
p6032
(lp6033
Vsandwich
p6034
aVplaces
p6035
aVbeef
p6036
asS'482'
p6037
(lp6038
Vplace
p6039
asS'481'
p6040
(lp6041
Vgallery
p6042
asS'480'
p6043
(lp6044
Vservice
p6045
aVwaitresses
p6046
asS'790'
p6047
(lp6048
Vfood
p6049
asS'695'
p6050
(lp6051
Vvisit
p6052
asS'723'
p6053
(lp6054
Vbirthday
p6055
aVfriend
p6056
asS'124'
p6057
(lp6058
Vfood
p6059
asS'992'
p6060
(lp6061
Vplace
p6062
aVkind
p6063
aVfriends
p6064
aVsecret
p6065
asS'2898'
p6066
(lp6067
Vcourse
p6068
aVportion
p6069
asS'3665'
p6070
(lp6071
Vdecor
p6072
aVchance
p6073
aVrestaurant
p6074
aVfeel
p6075
asS'199'
p6076
(lp6077
Vweek
p6078
aVmix
p6079
aVcougars
p6080
ag6080
ag6080
asS'198'
p6081
(lp6082
Vplace
p6083
aVodd
p6084
aVodd
p6085
aVcrowd
p6086
ag6086
asS'2289'
p6087
(lp6088
Vservice
p6089
aVresturant
p6090
asS'195'
p6091
(lp6092
Vtable
p6093
aVweather
p6094
asS'194'
p6095
(lp6096
Vreservations
p6097
aVtimes
p6098
asS'197'
p6099
(lp6100
Vpeople
p6101
aVtimes
p6102
asS'196'
p6103
(lp6104
Vstaff
p6105
aVbathroom
p6106
asS'191'
p6107
(lp6108
Vcourse
p6109
aVseats
p6110
asS'190'
p6111
(lp6112
Vanyone
p6113
aVplace
p6114
asS'193'
p6115
(lp6116
Vfood
p6117
asS'192'
p6118
(lp6119
Vtime
p6120
aVtimes
p6121
asS'3679'
p6122
(lp6123
Vplace
p6124
asS'3672'
p6125
(lp6126
Vdinner
p6127
aVsushi
p6128
aVbar
p6129
aVstaff
p6130
asS'3670'
p6131
(lp6132
Vcourse
p6133
aVappetizer
p6134
aVwine
p6135
aVglass
p6136
aVbread
p6137
asS'3671'
p6138
(lp6139
Vtable
p6140
aVthing
p6141
aVcats
p6142
asS'3676'
p6143
(lp6144
Vwine
p6145
aVbread
p6146
aVtapas
p6147
ag6147
aVpita
p6148
asS'3677'
p6149
(lp6150
Vcheese
p6151
aVwine
p6152
aVtable
p6153
aVplate
p6154
aVfondue
p6155
asS'3675'
p6156
(lp6157
Vhusband
p6158
aVeverytime
p6159
asS'2547'
p6160
(lp6161
Vchef
p6162
aVspecials
p6163
asS'2546'
p6164
(lp6165
Vdelivery
p6166
aVplace
p6167
aVtonino
p6168
aVgnochi
p6169
asS'2545'
p6170
(lp6171
sS'2544'
p6172
(lp6173
Vdoor
p6174
aVneighborhood
p6175
aVmusic
p6176
aVcabaret
p6177
asS'2549'
p6178
(lp6179
Veveryone
p6180
aVmile
p6181
ag6181
ag6181
ag6181
asS'2548'
p6182
(lp6183
Vdelivery
p6184
aVpizza
p6185
aVknots
p6186
ag6186
asS'1456'
p6187
(lp6188
Vfood
p6189
aVdining
p6190
aVprices
p6191
aVexperience
p6192
aVrestaurants
p6193
aVvilla
p6194
asS'2381'
p6195
(lp6196
sS'2380'
p6197
(lp6198
Vreviews
p6199
aVplace
p6200
aVplaces
p6201
aVpeople
p6202
asS'2382'
p6203
(lp6204
sS'2385'
p6205
(lp6206
Vtaste
p6207
asS'2384'
p6208
(lp6209
Vrice
p6210
asS'2387'
p6211
(lp6212
Vsum
p6213
asS'2386'
p6214
(lp6215
Vbit
p6216
aVsum
p6217
asS'2389'
p6218
(lp6219
Vfood
p6220
aVdish
p6221
aVsum
p6222
aVportions
p6223
aVdishes
p6224
aVhey
p6225
asS'2388'
p6226
(lp6227
sS'3580'
p6228
(lp6229
Vfood
p6230
asS'3581'
p6231
(lp6232
Vcheeseburgers
p6233
asS'3582'
p6234
(lp6235
Vbun
p6236
asS'2768'
p6237
(lp6238
Vtables
p6239
aVservice
p6240
asS'3584'
p6241
(lp6242
sS'3585'
p6243
(lp6244
Vsandwich
p6245
aVroll
p6246
aVpastrami
p6247
asS'3587'
p6248
(lp6249
Vfood
p6250
aVyears
p6251
aVyork
p6252
aVwife
p6253
asS'3588'
p6254
(lp6255
Vbit
p6256
aVyork
p6257
aVpeople
p6258
asS'3589'
p6259
(lp6260
sS'2767'
p6261
(lp6262
Vlamb
p6263
aVvinegar
p6264
asS'2766'
p6265
(lp6266
Vfood
p6267
aVspecials
p6268
aVdishes
p6269
asS'2765'
p6270
(lp6271
Vlist
p6272
aVmanhattan
p6273
aVrestaurant
p6274
aVtrattoria
p6275
aVtop
p6276
asS'2764'
p6277
(lp6278
sS'902'
p6279
(lp6280
Vplace
p6281
aVideas
p6282
asS'903'
p6283
(lp6284
Vveyr
p6285
ag6285
asS'900'
p6286
(lp6287
Vinterior
p6288
asS'901'
p6289
(lp6290
Vrestaurant
p6291
aVsite
p6292
aVlook
p6293
asS'906'
p6294
(lp6295
Vchance
p6296
aVdinner
p6297
asS'907'
p6298
(lp6299
sS'904'
p6300
(lp6301
Vair
p6302
asS'905'
p6303
(lp6304
Vfood
p6305
aVservice
p6306
asS'1843'
p6307
(lp6308
Vpoints
p6309
asS'1842'
p6310
(lp6311
Vthalia
p6312
aVinside
p6313
ag6313
asS'1841'
p6314
(lp6315
sS'1840'
p6316
(lp6317
Vlocation
p6318
asS'1846'
p6319
(lp6320
Vfood
p6321
aVbill
p6322
aVside
p6323
aVnight
p6324
asS'1845'
p6325
(lp6326
Vsalmon
p6327
aVservice
p6328
asS'1844'
p6329
(lp6330
Vfood
p6331
aVeverything
p6332
aVdecor
p6333
aVpeople
p6334
aVdrinks
p6335
asS'3250'
p6336
(lp6337
Vreservation
p6338
aVages
p6339
asS'2169'
p6340
(lp6341
Vbagels
p6342
asS'2168'
p6343
(lp6344
sS'2165'
p6345
(lp6346
Vbagel
p6347
asS'2164'
p6348
(lp6349
Vbit
p6350
aVgem
p6351
asS'2167'
p6352
(lp6353
Vbagel
p6354
aVcheese
p6355
asS'2166'
p6356
(lp6357
Vinterior
p6358
ag6358
ag6358
asS'2161'
p6359
(lp6360
Vlox
p6361
asS'2160'
p6362
(lp6363
Vselection
p6364
aVcream
p6365
aVsalads
p6366
asS'2163'
p6367
(lp6368
Vbagel
p6369
aVnew
p6370
aVyork
p6371
aVtime
p6372
asS'2162'
p6373
(lp6374
sS'2617'
p6375
(lp6376
sS'2616'
p6377
(lp6378
sS'2615'
p6379
(lp6380
Vtrip
p6381
asS'2614'
p6382
(lp6383
Vtown
p6384
aVnew
p6385
aVplace
p6386
aVtrip
p6387
aVyork
p6388
asS'2611'
p6389
(lp6390
Vsandwich
p6391
aVreuben
p6392
asS'2610'
p6393
(lp6394
Vplace
p6395
aVpizza
p6396
aVsquare
p6397
aVtoppings
p6398
ag6398
asS'1946'
p6399
(lp6400
Vplaces
p6401
aVvillage
p6402
asS'1947'
p6403
(lp6404
Vfood
p6405
aVworld
p6406
aVambiance
p6407
aVstaff
p6408
asS'3298'
p6409
(lp6410
Vfood
p6411
aVnothing
p6412
aVpart
p6413
asS'3299'
p6414
(lp6415
Vfamily
p6416
aVrestaurants
p6417
aVquiter
p6418
asS'1908'
p6419
(lp6420
Vreservations
p6421
asS'1909'
p6422
(lp6423
Vdining
p6424
aVexperience
p6425
asS'3294'
p6426
(lp6427
Vhouse
p6428
aVbirthday
p6429
asS'1907'
p6430
(lp6431
Vfood
p6432
aVwaitress
p6433
aVwine
p6434
asS'1904'
p6435
(lp6436
Vatmosphere
p6437
asS'3297'
p6438
(lp6439
Vhouse
p6440
asS'3290'
p6441
(lp6442
Vexperience
p6443
asS'1903'
p6444
(lp6445
Vhusbands
p6446
ag6446
asS'3292'
p6447
(lp6448
Vservice
p6449
aVnotch
p6450
asS'3293'
p6451
(lp6452
sS'3452'
p6453
(lp6454
Vfriends
p6455
asS'855'
p6456
(lp6457
sS'856'
p6458
(lp6459
Vcuisine
p6460
aVdishes
p6461
aVfood
p6462
aVfish
p6463
aVchef
p6464
aVkitchen
p6465
aVfine
p6466
ag6466
ag6466
aVexecution
p6467
ag6467
asS'3451'
p6468
(lp6469
Vrestaurant
p6470
aVdeal
p6471
aVwine
p6472
asS'3456'
p6473
(lp6474
Vstaff
p6475
aVpersonality
p6476
asS'3457'
p6477
(lp6478
Vplace
p6479
aVmoment
p6480
asS'3454'
p6481
(lp6482
Vdinner
p6483
aVive
p6484
ag6484
asS'3455'
p6485
(lp6486
Vbank
p6487
ag6487
ag6487
ag6487
asS'3458'
p6488
(lp6489
Vexperience
p6490
asS'3459'
p6491
(lp6492
Vthai
p6493
aVrestaurant
p6494
aVstreets
p6495
aVjoya
p6496
asS'858'
p6497
(lp6498
Vreservation
p6499
aVseating
p6500
aVminutes
p6501
aVservice
p6502
asS'859'
p6503
(lp6504
Vsoup
p6505
aVbartender
p6506
asS'1186'
p6507
(lp6508
Vtable
p6509
aVminutes
p6510
asS'425'
p6511
(lp6512
Vprice
p6513
aVservice
p6514
asS'740'
p6515
(lp6516
Vmanager
p6517
aVbill
p6518
aVgroup
p6519
aVanything
p6520
asS'741'
p6521
(lp6522
Vtuna
p6523
aVpotatoes
p6524
asS'742'
p6525
(lp6526
Vworld
p6527
aVatmosphere
p6528
aVevening
p6529
aVavenue
p6530
asS'743'
p6531
(lp6532
sS'744'
p6533
(lp6534
Vservice
p6535
asS'745'
p6536
(lp6537
Vvisit
p6538
asS'746'
p6539
(lp6540
Vrestaurant
p6541
asS'747'
p6542
(lp6543
Vestablishment
p6544
ag6544
asS'748'
p6545
(lp6546
Vnothing
p6547
asS'749'
p6548
(lp6549
Vny
p6550
aVevening
p6551
aVplace
p6552
asS'1799'
p6553
(lp6554
Vwaitress
p6555
asS'3063'
p6556
(lp6557
sS'3062'
p6558
(lp6559
Vbistro
p6560
asS'3061'
p6561
(lp6562
Vmoney
p6563
aVlot
p6564
aVexperience
p6565
aVdining
p6566
aVamount
p6567
aVbistros
p6568
aVbistros
p6569
asS'3060'
p6570
(lp6571
Vbill
p6572
asS'3067'
p6573
(lp6574
Vfood
p6575
asS'2949'
p6576
(lp6577
Vsomeone
p6578
aVroom
p6579
asS'3064'
p6580
(lp6581
sS'2947'
p6582
(lp6583
Vplace
p6584
asS'2946'
p6585
(lp6586
Vmenu
p6587
aVstaff
p6588
aVlist
p6589
aVwine
p6590
aVowners
p6591
ag6591
asS'2945'
p6592
(lp6593
Veverything
p6594
aVroom
p6595
aVplate
p6596
asS'2944'
p6597
(lp6598
Vmenu
p6599
aVtimes
p6600
asS'2943'
p6601
(lp6602
sS'2942'
p6603
(lp6604
Vexperience
p6605
asS'2941'
p6606
(lp6607
Vselection
p6608
aVwines
p6609
aVend
p6610
asS'2940'
p6611
(lp6612
Vtables
p6613
aVservice
p6614
aVdessert
p6615
aVofferng
p6616
asS'1050'
p6617
(lp6618
Vcuisine
p6619
aVservice
p6620
asS'1051'
p6621
(lp6622
Vvisit
p6623
aVrestaurants
p6624
asS'1052'
p6625
(lp6626
Vcheese
p6627
aVbagels
p6628
asS'1053'
p6629
(lp6630
sS'1054'
p6631
(lp6632
Vtoaster
p6633
asS'1055'
p6634
(lp6635
Vbagels
p6636
aVway
p6637
asS'1056'
p6638
(lp6639
Vprice
p6640
aVzabars
p6641
aVzabars
p6642
aVzabars
p6643
asS'1057'
p6644
(lp6645
Vservice
p6646
asS'1058'
p6647
(lp6648
sS'1059'
p6649
(lp6650
Vbagels
p6651
asS'717'
p6652
(lp6653
Vplace
p6654
aVmeal
p6655
asS'1692'
p6656
(lp6657
Vnothing
p6658
aVplace
p6659
asS'1693'
p6660
(lp6661
Vowner
p6662
asS'1690'
p6663
(lp6664
Vfood
p6665
aVeveryone
p6666
aVant
p6667
asS'1691'
p6668
(lp6669
Vfood
p6670
asS'715'
p6671
(lp6672
Vdishes
p6673
aVbeef
p6674
aVmenu
p6675
aVsoup
p6676
aVnothing
p6677
aVthai
p6678
aVnoodle
p6679
asS'1698'
p6680
(lp6681
Vhouse
p6682
aVtimes
p6683
asS'1699'
p6684
(lp6685
Vdumplings
p6686
asS'1278'
p6687
(lp6688
Vpizza
p6689
asS'1279'
p6690
(lp6691
Vpizza
p6692
aVawsome
p6693
asS'618'
p6694
(lp6695
Vperson
p6696
aVplace
p6697
asS'619'
p6698
(lp6699
Vhusband
p6700
aVjekyll
p6701
aVsurprise
p6702
asS'1270'
p6703
(lp6704
Vfood
p6705
asS'613'
p6706
(lp6707
Vsomething
p6708
asS'1272'
p6709
(lp6710
Vfood
p6711
aVdoor
p6712
asS'611'
p6713
(lp6714
Vfood
p6715
aVportions
p6716
aVcomfort
p6717
asS'616'
p6718
(lp6719
sS'1275'
p6720
(lp6721
Vnothing
p6722
asS'614'
p6723
(lp6724
Vfun
p6725
aVlot
p6726
aVentertainment
p6727
aVtype
p6728
asS'1277'
p6729
(lp6730
sS'1795'
p6731
(lp6732
Vservers
p6733
asS'1794'
p6734
(lp6735
Vdrinks
p6736
asS'3119'
p6737
(lp6738
Vneighborhood
p6739
asS'3118'
p6740
(lp6741
Veverything
p6742
aVdrinks
p6743
asS'3117'
p6744
(lp6745
Vfood
p6746
asS'3116'
p6747
(lp6748
Vwaitstaff
p6749
aVfeat
p6750
ag6750
aVquarters
p6751
ag6751
asS'3115'
p6752
(lp6753
Vminutes
p6754
asS'3114'
p6755
(lp6756
Vtable
p6757
aVwait
p6758
asS'3113'
p6759
(lp6760
Vline
p6761
aVmary
p6762
aVmary
p6763
aVmary
p6764
aVmary
p6765
asS'3112'
p6766
(lp6767
Vfood
p6768
asS'3111'
p6769
(lp6770
Vservice
p6771
asS'1472'
p6772
(lp6773
Vrestaurants
p6774
asS'1473'
p6775
(lp6776
Vpizza
p6777
asS'1470'
p6778
(lp6779
Vway
p6780
aVpizza
p6781
asS'1471'
p6782
(lp6783
Vtoppings
p6784
asS'1477'
p6785
(lp6786
Vthings
p6787
aVappetizer
p6788
aVportions
p6789
aVperson
p6790
aVpeople
p6791
aVhuge
p6792
asS'1474'
p6793
(lp6794
Vsomeone
p6795
aVingredients
p6796
aVpizza
p6797
aVright
p6798
asS'1475'
p6799
(lp6800
Vdisappointment
p6801
asS'1478'
p6802
(lp6803
Vmoney
p6804
aVrestaurants
p6805
aVavenue
p6806
ag6806
aVoffers
p6807
aVvalues
p6808
asS'1479'
p6809
(lp6810
sS'3336'
p6811
(lp6812
Vfortune
p6813
asS'1304'
p6814
(lp6815
Vfood
p6816
aVservice
p6817
asS'1305'
p6818
(lp6819
Vfood
p6820
aVmenu
p6821
aVplace
p6822
aVfact
p6823
aVpeople
p6824
asS'1306'
p6825
(lp6826
Vtime
p6827
asS'1307'
p6828
(lp6829
Vbit
p6830
asS'1300'
p6831
(lp6832
Vfriend
p6833
asS'1301'
p6834
(lp6835
Vfood
p6836
asS'1302'
p6837
(lp6838
Vfood
p6839
aVprices
p6840
aVservice
p6841
asS'1303'
p6842
(lp6843
Vprices
p6844
aVny
p6845
aVplaces
p6846
asS'1497'
p6847
(lp6848
Vwaitress
p6849
asS'1309'
p6850
(lp6851
Vdate
p6852
asS'3590'
p6853
(lp6854
Vfood
p6855
aVperson
p6856
asS'498'
p6857
(lp6858
sS'499'
p6859
(lp6860
Vbeer
p6861
aVsandwich
p6862
aVexperience
p6863
aVicy
p6864
asS'494'
p6865
(lp6866
Vdogs
p6867
ag6867
asS'495'
p6868
(lp6869
Vcarnivore
p6870
ag6870
ag6870
asS'496'
p6871
(lp6872
Varea
p6873
aVdelis
p6874
aVpbs
p6875
asS'497'
p6876
(lp6877
Vnyc
p6878
aVdeli
p6879
asS'490'
p6880
(lp6881
Vnyc
p6882
aVside
p6883
aVkatz
p6884
aVkatz
p6885
aVeast
p6886
asS'491'
p6887
(lp6888
Vbeef
p6889
aVbread
p6890
aVjuicy
p6891
aVrye
p6892
asS'492'
p6893
(lp6894
Vorder
p6895
asS'493'
p6896
(lp6897
Vsandwich
p6898
aVcompliment
p6899
asS'24'
p6900
(lp6901
sS'25'
p6902
(lp6903
Vwaiter
p6904
aVevening
p6905
aVgreat
p6906
aVgroups
p6907
aVsuper
p6908
aVhappy
p6909
asS'21'
p6910
(lp6911
sS'28'
p6912
(lp6913
Vfood
p6914
asS'29'
p6915
(lp6916
Vdessert
p6917
aVroom
p6918
asS'3262'
p6919
(lp6920
sS'1705'
p6921
(lp6922
Vfood
p6923
aVpoint
p6924
aVstaples
p6925
ag6925
asS'1601'
p6926
(lp6927
Ventrees
p6928
asS'1604'
p6929
(lp6930
Vdinner
p6931
asS'3267'
p6932
(lp6933
Vfood
p6934
aVthings
p6935
aVsomeone
p6936
aVshare
p6937
aVoption
p6938
asS'7'
p6939
(lp6940
Vpeople
p6941
aVnoir
p6942
aVdont
p6943
asS'2288'
p6944
(lp6945
Vsoup
p6946
aVbeef
p6947
aVnoodle
p6948
asS'3664'
p6949
(lp6950
Vrestaurant
p6951
asS'3667'
p6952
(lp6953
Vfood
p6954
aVmenu
p6955
aVprice
p6956
aVservice
p6957
aVeverything
p6958
aVwaitresses
p6959
asS'3666'
p6960
(lp6961
Vbar
p6962
aVarea
p6963
asS'3661'
p6964
(lp6965
Vnight
p6966
asS'3660'
p6967
(lp6968
Vrestaurant
p6969
aVstreet
p6970
aVrestaurants
p6971
aVfusion
p6972
ag6972
ag6972
asS'3663'
p6973
(lp6974
Vdessert
p6975
aVhouse
p6976
asS'3662'
p6977
(lp6978
Vdish
p6979
aVrolls
p6980
aVservice
p6981
aVspring
p6982
asS'2280'
p6983
(lp6984
Vtables
p6985
aVrestuarant
p6986
ag6986
aVbuck
p6987
ag6987
asS'2281'
p6988
(lp6989
Vcuisine
p6990
aVplenty
p6991
asS'2282'
p6992
(lp6993
Vtown
p6994
aVrestaurant
p6995
aVfellas
p6996
asS'2283'
p6997
(lp6998
Vtown
p6999
aVrestaurant
p7000
aVonly
p7001
asS'3669'
p7002
(lp7003
Vwait
p7004
asS'2285'
p7005
(lp7006
Vfood
p7007
aVchinatown
p7008
asS'2286'
p7009
(lp7010
Vrestaurants
p7011
aVflushing
p7012
asS'2287'
p7013
(lp7014
Vtown
p7015
aVrice
p7016
aVspicy
p7017
aVsoup
p7018
aVdrumsticks
p7019
asS'1605'
p7020
(lp7021
Vappetizer
p7022
aVpizza
p7023
aVsalad
p7024
aVtimes
p7025
asS'2578'
p7026
(lp7027
Vchoices
p7028
asS'2579'
p7029
(lp7030
sS'2576'
p7031
(lp7032
Vfood
p7033
aVsalad
p7034
aVrestaurant
p7035
asS'2577'
p7036
(lp7037
Vdining
p7038
aVquality
p7039
aVrestaurant
p7040
asS'2574'
p7041
(lp7042
Vingredients
p7043
asS'2575'
p7044
(lp7045
sS'2572'
p7046
(lp7047
Vsalads
p7048
asS'2573'
p7049
(lp7050
Vlettuce
p7051
aVsalads
p7052
asS'2570'
p7053
(lp7054
Vlunch
p7055
aVday
p7056
asS'2571'
p7057
(lp7058
Vambience
p7059
aVbusiness
p7060
asS'3690'
p7061
(lp7062
Vchocolate
p7063
asS'2378'
p7064
(lp7065
Vdinner
p7066
aVservice
p7067
asS'2379'
p7068
(lp7069
Vreviews
p7070
aVpeople
p7071
asS'601'
p7072
(lp7073
Vfood
p7074
aVfun
p7075
aVatmosphere
p7076
aVnight
p7077
aVrestaurant
p7078
asS'2377'
p7079
(lp7080
Vfood
p7081
asS'2370'
p7082
(lp7083
Vblock
p7084
asS'2372'
p7085
(lp7086
Vanyone
p7087
aVplace
p7088
asS'2594'
p7089
(lp7090
Vbedford
p7091
aVbedford
p7092
asS'2595'
p7093
(lp7094
Varea
p7095
aVgarden
p7096
aVherb
p7097
asS'2596'
p7098
(lp7099
sS'2597'
p7100
(lp7101
Vfamily
p7102
aVpizza
p7103
asS'2590'
p7104
(lp7105
Vfood
p7106
aVcuisine
p7107
aVrestaurants
p7108
aVingrediants
p7109
ag7109
asS'2591'
p7110
(lp7111
Vtime
p7112
asS'2592'
p7113
(lp7114
Vfood
p7115
aVlunch
p7116
aVcouple
p7117
aVsaturday
p7118
asS'2593'
p7119
(lp7120
Vcheese
p7121
aVpizza
p7122
aVamount
p7123
asS'3599'
p7124
(lp7125
Vcheese
p7126
aVpizza
p7127
asS'3598'
p7128
(lp7129
Vhorrible
p7130
asS'2598'
p7131
(lp7132
sS'2599'
p7133
(lp7134
Vplace
p7135
aVservice
p7136
asS'1874'
p7137
(lp7138
Vdessert
p7139
asS'1872'
p7140
(lp7141
Vfood
p7142
aVrestaurant
p7143
aVpeople
p7144
asS'1873'
p7145
(lp7146
Vflavor
p7147
aVsalmon
p7148
aVappetizer
p7149
asS'1870'
p7150
(lp7151
Vservice
p7152
asS'1871'
p7153
(lp7154
Vrestaurant
p7155
asS'600'
p7156
(lp7157
Vtable
p7158
aVchance
p7159
aVdinner
p7160
asS'1607'
p7161
(lp7162
Vservice
p7163
aVthings
p7164
aVyears
p7165
aVdinner
p7166
aVnight
p7167
aVtable
p7168
aVbit
p7169
asS'1878'
p7170
(lp7171
Vtown
p7172
aVselection
p7173
aVglass
p7174
aVreservation
p7175
aVfriends
p7176
aVwine
p7177
aVbottle
p7178
asS'1879'
p7179
(lp7180
Vtable
p7181
aVbar
p7182
asS'977'
p7183
(lp7184
Varea
p7185
aVrestaurants
p7186
asS'182'
p7187
(lp7188
sS'974'
p7189
(lp7190
Vbeef
p7191
aVrestaurant
p7192
aVtimes
p7193
aVplace
p7194
aVchicken
p7195
aVrice
p7196
aVlemon
p7197
asS'973'
p7198
(lp7199
Vambiance
p7200
aVmusic
p7201
asS'972'
p7202
(lp7203
Vway
p7204
aVwaiters
p7205
aVfact
p7206
aVlots
p7207
asS'971'
p7208
(lp7209
Vsalmon
p7210
aVchicken
p7211
aVsauce
p7212
aVcurry
p7213
aVdishes
p7214
asS'970'
p7215
(lp7216
Vfish
p7217
aVspicing
p7218
asS'1080'
p7219
(lp7220
Vtea
p7221
asS'979'
p7222
(lp7223
Vplace
p7224
aVservice
p7225
asS'978'
p7226
(lp7227
Vfood
p7228
aVyears
p7229
asS'2118'
p7230
(lp7231
Vpiece
p7232
ag7232
asS'2119'
p7233
(lp7234
Vplace
p7235
asS'180'
p7236
(lp7237
Vside
p7238
asS'181'
p7239
(lp7240
Vfood
p7241
asS'186'
p7242
(lp7243
Vambience
p7244
aVlunch
p7245
aVconversation
p7246
asS'187'
p7247
(lp7248
Vrestaurant
p7249
asS'184'
p7250
(lp7251
Vkitchen
p7252
asS'185'
p7253
(lp7254
Vfood
p7255
aVspicy
p7256
asS'2112'
p7257
(lp7258
Vsaturday
p7259
aVfriend
p7260
asS'2113'
p7261
(lp7262
Vplace
p7263
aVtime
p7264
asS'2114'
p7265
(lp7266
Vappetizers
p7267
aVrestaurant
p7268
asS'2115'
p7269
(lp7270
Vdumplings
p7271
aVmenu
p7272
aVappetizer
p7273
aVlot
p7274
aVchoices
p7275
asS'2116'
p7276
(lp7277
Vtuna
p7278
aVrolls
p7279
asS'1559'
p7280
(lp7281
Vfood
p7282
aVturnover
p7283
ag7283
asS'2622'
p7284
(lp7285
Vfood
p7286
aVprices
p7287
aVservice
p7288
asS'2623'
p7289
(lp7290
Vplace
p7291
aVquality
p7292
asS'2620'
p7293
(lp7294
Vbit
p7295
aVservice
p7296
asS'2621'
p7297
(lp7298
Vdrinks
p7299
asS'2627'
p7300
(lp7301
Vambience
p7302
aVservice
p7303
asS'2624'
p7304
(lp7305
Vplace
p7306
asS'60'
p7307
(lp7308
sS'1919'
p7309
(lp7310
sS'1918'
p7311
(lp7312
Vfun
p7313
asS'3289'
p7314
(lp7315
Varea
p7316
aVplace
p7317
aVyork
p7318
aVrestaurant
p7319
asS'3288'
p7320
(lp7321
sS'1911'
p7322
(lp7323
Vprice
p7324
aVmeal
p7325
aVwine
p7326
aVrange
p7327
asS'1910'
p7328
(lp7329
Vfood
p7330
aVbite
p7331
asS'3285'
p7332
(lp7333
sS'1912'
p7334
(lp7335
sS'3282'
p7336
(lp7337
Vcheese
p7338
aVhome
p7339
asS'3281'
p7340
(lp7341
Vway
p7342
aVrestaurants
p7343
asS'3280'
p7344
(lp7345
Vsoup
p7346
aVmushrooms
p7347
asS'869'
p7348
(lp7349
Vambience
p7350
aVservice
p7351
asS'868'
p7352
(lp7353
Vtimes
p7354
aVreason
p7355
asS'189'
p7356
(lp7357
Vsalad
p7358
aVservice
p7359
aVfood
p7360
aVeverything
p7361
aVtime
p7362
aVwait
p7363
aVbread
p7364
asS'861'
p7365
(lp7366
Vfriend
p7367
aVboyfriend
p7368
asS'860'
p7369
(lp7370
Vblue
p7371
asS'863'
p7372
(lp7373
Vfood
p7374
aVstomach
p7375
asS'862'
p7376
(lp7377
Vdecor
p7378
asS'865'
p7379
(lp7380
Vdessert
p7381
aVbread
p7382
aVworld
p7383
aVchocolate
p7384
asS'3440'
p7385
(lp7386
Vprices
p7387
aVseafood
p7388
asS'3443'
p7389
(lp7390
Vservice
p7391
asS'3442'
p7392
(lp7393
Vreservation
p7394
aVminutes
p7395
aVsaturday
p7396
aVnight
p7397
asS'2024'
p7398
(lp7399
Vweek
p7400
aVrestaurant
p7401
asS'2757'
p7402
(lp7403
sS'2026'
p7404
(lp7405
Vcheese
p7406
aVwine
p7407
asS'2027'
p7408
(lp7409
Vcity
p7410
aVplaces
p7411
asS'2020'
p7412
(lp7413
Vdinner
p7414
aVapple
p7415
asS'2753'
p7416
(lp7417
Vfish
p7418
aVsushi
p7419
aVchef
p7420
aVplace
p7421
aVquality
p7422
aVstaff
p7423
asS'2751'
p7424
(lp7425
sS'2828'
p7426
(lp7427
sS'2117'
p7428
(lp7429
Vrolls
p7430
aVsashimi
p7431
ag7431
asS'2028'
p7432
(lp7433
Vcheese
p7434
aVnight
p7435
aVfriends
p7436
aVmenu
p7437
aVsummer
p7438
ag7438
aVartisanal
p7439
asS'2029'
p7440
(lp7441
Vreservation
p7442
aVproblem
p7443
aVtable
p7444
asS'2829'
p7445
(lp7446
sS'883'
p7447
(lp7448
Vchicken
p7449
aVpieces
p7450
ag7450
aVmeat
p7451
asS'882'
p7452
(lp7453
Vfood
p7454
aVatmosphere
p7455
aVambiance
p7456
aVservice
p7457
asS'881'
p7458
(lp7459
sS'880'
p7460
(lp7461
Vthings
p7462
aVlot
p7463
aVrestaurant
p7464
asS'887'
p7465
(lp7466
Vtable
p7467
asS'885'
p7468
(lp7469
Vfood
p7470
aVplace
p7471
aVway
p7472
asS'884'
p7473
(lp7474
sS'889'
p7475
(lp7476
Vplace
p7477
aVstay
p7478
asS'888'
p7479
(lp7480
Vnothing
p7481
aVone
p7482
asS'3149'
p7483
(lp7484
Vdish
p7485
aVtimes
p7486
aVive
p7487
asS'775'
p7488
(lp7489
Vnight
p7490
aVdisappointment
p7491
asS'774'
p7492
(lp7493
Vbirthday
p7494
aVexperience
p7495
asS'777'
p7496
(lp7497
Vfood
p7498
aVsum
p7499
aVappetizers
p7500
aVvariety
p7501
aVfoods
p7502
asS'776'
p7503
(lp7504
Vfood
p7505
asS'771'
p7506
(lp7507
Varea
p7508
aVhour
p7509
aVrestaurant
p7510
aVhalf
p7511
aVlobby
p7512
asS'770'
p7513
(lp7514
Vproblem
p7515
aVminutes
p7516
aVwait
p7517
asS'773'
p7518
(lp7519
Vdinner
p7520
asS'772'
p7521
(lp7522
Vtables
p7523
aVreservations
p7524
aVdiners
p7525
asS'779'
p7526
(lp7527
Vreservations
p7528
aVlot
p7529
aVtime
p7530
aVreservation
p7531
aVminutes
p7532
aVstaff
p7533
aVsquare
p7534
asS'778'
p7535
(lp7536
Vservice
p7537
asS'419'
p7538
(lp7539
Vfriend
p7540
aVnight
p7541
asS'77'
p7542
(lp7543
Vnothing
p7544
aVthings
p7545
aVstaff
p7546
aVservice
p7547
aVyears
p7548
asS'76'
p7549
(lp7550
Vreview
p7551
asS'2978'
p7552
(lp7553
Vplace
p7554
aVfriends
p7555
aVresponse
p7556
asS'2979'
p7557
(lp7558
Vfood
p7559
asS'72'
p7560
(lp7561
Vny
p7562
aVplace
p7563
aVrestaurants
p7564
asS'3058'
p7565
(lp7566
Vneighborhood
p7567
aVplace
p7568
asS'3059'
p7569
(lp7570
Vappetizers
p7571
aVcourses
p7572
ag7572
asS'2972'
p7573
(lp7574
Vfirst
p7575
asS'3057'
p7576
(lp7577
sS'2970'
p7578
(lp7579
sS'2971'
p7580
(lp7581
sS'2976'
p7582
(lp7583
Vhouse
p7584
aVprice
p7585
aVselection
p7586
aVvalue
p7587
aVwine
p7588
aVgigondas
p7589
asS'2977'
p7590
(lp7591
Vfood
p7592
aVbit
p7593
aVarea
p7594
aVvibe
p7595
asS'3050'
p7596
(lp7597
Vtip
p7598
asS'78'
p7599
(lp7600
Vgem
p7601
aVbusiness
p7602
aVfamily
p7603
aVyears
p7604
aVvisitor
p7605
ag7605
asS'1041'
p7606
(lp7607
Vpeople
p7608
aVrestaurant
p7609
asS'1040'
p7610
(lp7611
Vfood
p7612
aVfun
p7613
aVnight
p7614
asS'1047'
p7615
(lp7616
sS'1046'
p7617
(lp7618
sS'1045'
p7619
(lp7620
Vspicy
p7621
aVroll
p7622
asS'1044'
p7623
(lp7624
Vtime
p7625
asS'1049'
p7626
(lp7627
Vhome
p7628
aVrolls
p7629
asS'1681'
p7630
(lp7631
Vservers
p7632
ag7632
ag7632
ag7632
asS'1680'
p7633
(lp7634
Vbar
p7635
aVminutes
p7636
aVrestaurant
p7637
asS'1683'
p7638
(lp7639
Vfood
p7640
aVservice
p7641
asS'1684'
p7642
(lp7643
Vgirls
p7644
asS'1687'
p7645
(lp7646
Vdish
p7647
aVbeef
p7648
asS'1686'
p7649
(lp7650
Vdish
p7651
aVlunch
p7652
aVprice
p7653
asS'1689'
p7654
(lp7655
Vfood
p7656
aVquality
p7657
asS'1688'
p7658
(lp7659
Vdish
p7660
asS'1269'
p7661
(lp7662
Vfood
p7663
aVrestaurants
p7664
aVtime
p7665
asS'2980'
p7666
(lp7667
sS'669'
p7668
(lp7669
sS'668'
p7670
(lp7671
Vtown
p7672
aVplaces
p7673
aVrestaurants
p7674
aVshabu
p7675
asS'667'
p7676
(lp7677
Vprices
p7678
aVline
p7679
asS'666'
p7680
(lp7681
Vfood
p7682
aVservice
p7683
asS'665'
p7684
(lp7685
Vdrink
p7686
aVbar
p7687
aVwait
p7688
aVtime
p7689
asS'664'
p7690
(lp7691
Vstaff
p7692
asS'663'
p7693
(lp7694
Vrice
p7695
asS'662'
p7696
(lp7697
Vdinner
p7698
aVbeef
p7699
asS'661'
p7700
(lp7701
Vwait
p7702
asS'3022'
p7703
(lp7704
Vbit
p7705
aVside
p7706
aVrestaurant
p7707
asS'3021'
p7708
(lp7709
Vstaff
p7710
asS'3095'
p7711
(lp7712
Vpaneer
p7713
asS'2984'
p7714
(lp7715
Vdinner
p7716
asS'1913'
p7717
(lp7718
Vtime
p7719
aVoccasion
p7720
ag7720
asS'3128'
p7721
(lp7722
Vweekends
p7723
asS'3129'
p7724
(lp7725
Vpoint
p7726
aVhostess
p7727
asS'3122'
p7728
(lp7729
Veverything
p7730
aVwaitress
p7731
asS'3123'
p7732
(lp7733
Vdessert
p7734
aVchance
p7735
aVbill
p7736
aVorder
p7737
aVwaitress
p7738
asS'3120'
p7739
(lp7740
Vfood
p7741
asS'3121'
p7742
(lp7743
Vstaff
p7744
asS'3126'
p7745
(lp7746
Vtime
p7747
asS'3127'
p7748
(lp7749
Vplace
p7750
asS'1469'
p7751
(lp7752
Vpizza
p7753
asS'1468'
p7754
(lp7755
Vfun
p7756
aVrestaurant
p7757
asS'1465'
p7758
(lp7759
Vhouse
p7760
aVgroup
p7761
aVservice
p7762
aVclientele
p7763
ag7763
asS'1018'
p7764
(lp7765
Vfood
p7766
aVservice
p7767
asS'1467'
p7768
(lp7769
Vtimes
p7770
asS'1916'
p7771
(lp7772
Vatmoshere
p7773
ag7773
ag7773
asS'1461'
p7774
(lp7775
Vneighborhood
p7776
aVrestaurants
p7777
asS'1460'
p7778
(lp7779
Vdining
p7780
aVdecor
p7781
asS'1462'
p7782
(lp7783
Vappetizers
p7784
aVdishes
p7785
asS'1317'
p7786
(lp7787
Vprices
p7788
asS'1316'
p7789
(lp7790
Vfood
p7791
aVneighborhood
p7792
aVrestaurant
p7793
asS'1315'
p7794
(lp7795
Vmoney
p7796
aVyears
p7797
aVvalue
p7798
aVnyc
p7799
asS'1314'
p7800
(lp7801
sS'1313'
p7802
(lp7803
Vweek
p7804
aVdishes
p7805
asS'1312'
p7806
(lp7807
Vplace
p7808
aVtime
p7809
asS'1311'
p7810
(lp7811
Vnothing
p7812
asS'1310'
p7813
(lp7814
sS'1319'
p7815
(lp7816
Vthing
p7817
aVfact
p7818
asS'1318'
p7819
(lp7820
Vambience
p7821
aVplace
p7822
aVguests
p7823
asS'767'
p7824
(lp7825
Vfood
p7826
aVcity
p7827
aVtime
p7828
aVrestaurants
p7829
aVamount
p7830
asS'1010'
p7831
(lp7832
Vbill
p7833
asS'464'
p7834
(lp7835
Vfood
p7836
aVchicken
p7837
aVambiance
p7838
aVdishes
p7839
aVeggplant
p7840
asS'1011'
p7841
(lp7842
Vfood
p7843
aVstreet
p7844
asS'318'
p7845
(lp7846
Vatmosphere
p7847
aVway
p7848
aVscene
p7849
asS'313'
p7850
(lp7851
Vvalue
p7852
asS'3441'
p7853
(lp7854
Vprice
p7855
aVsandwich
p7856
aVlobster
p7857
asS'317'
p7858
(lp7859
Vmanhattan
p7860
asS'316'
p7861
(lp7862
Vglass
p7863
aVbeer
p7864
aVwine
p7865
aVdeal
p7866
aVpoint
p7867
asS'315'
p7868
(lp7869
Vmenu
p7870
aVrest
p7871
aVoysters
p7872
asS'864'
p7873
(lp7874
Vfood
p7875
aVportions
p7876
asS'867'
p7877
(lp7878
sS'1618'
p7879
(lp7880
Vhouse
p7881
aVdinner
p7882
aVdrink
p7883
aVdesserts
p7884
aVcannoli
p7885
asS'866'
p7886
(lp7887
Vstaff
p7888
aVearth
p7889
asS'2025'
p7890
(lp7891
Vdrink
p7892
asS'2754'
p7893
(lp7894
Vquality
p7895
aVprice
p7896
aVvisit
p7897
aVfish
p7898
asS'1335'
p7899
(lp7900
Vfood
p7901
aVwaiter
p7902
aVservice
p7903
aVlack
p7904
asS'1030'
p7905
(lp7906
Vservice
p7907
aVwaitresses
p7908
asS'1334'
p7909
(lp7910
Vtime
p7911
asS'2752'
p7912
(lp7913
Vvillage
p7914
aVsushi
p7915
aVneighborhood
p7916
aVrestaurants
p7917
aVwest
p7918
asS'1331'
p7919
(lp7920
Vreservation
p7921
asS'2698'
p7922
(lp7923
Vreservation
p7924
aVservice
p7925
aVtime
p7926
asS'446'
p7927
(lp7928
Vnyc
p7929
asS'2320'
p7930
(lp7931
Vservice
p7932
aVpeople
p7933
asS'2692'
p7934
(lp7935
Vfood
p7936
aVambience
p7937
aVstaff
p7938
aVsuperb
p7939
asS'2461'
p7940
(lp7941
Vcuisine
p7942
asS'3610'
p7943
(lp7944
Vstreet
p7945
aVplace
p7946
aVaddition
p7947
aVwomen
p7948
asS'3611'
p7949
(lp7950
Vfamilies
p7951
asS'2299'
p7952
(lp7953
Vcity
p7954
aVfolks
p7955
asS'3613'
p7956
(lp7957
Vdoor
p7958
aVrestaurant
p7959
asS'3617'
p7960
(lp7961
Vneighborhood
p7962
aVaddition
p7963
asS'2293'
p7964
(lp7965
Vcity
p7966
aVrestaurants
p7967
asS'3619'
p7968
(lp7969
Varea
p7970
aVyears
p7971
asS'2290'
p7972
(lp7973
Vfood
p7974
aVny
p7975
asS'2297'
p7976
(lp7977
Vmanhattan
p7978
aVpizza
p7979
asS'2296'
p7980
(lp7981
Vjus
p7982
asS'2295'
p7983
(lp7984
Vplace
p7985
aVpizza
p7986
asS'2294'
p7987
(lp7988
Vdishes
p7989
aVway
p7990
aVappetizer
p7991
asS'2569'
p7992
(lp7993
Vreviews
p7994
asS'2568'
p7995
(lp7996
sS'2560'
p7997
(lp7998
Vplace
p7999
aVstrip
p8000
asS'2563'
p8001
(lp8002
Vneighborhood
p8003
aVoatmeal
p8004
ag8004
aVitem
p8005
asS'1615'
p8006
(lp8007
Vpart
p8008
aVeveryone
p8009
aVfamily
p8010
asS'2567'
p8011
(lp8012
Vquality
p8013
aVvalue
p8014
aVingredients
p8015
asS'403'
p8016
(lp8017
Vnight
p8018
aVrating
p8019
asS'908'
p8020
(lp8021
Vfood
p8022
aVnyc
p8023
aVvalues
p8024
asS'2369'
p8025
(lp8026
sS'2367'
p8027
(lp8028
Vrestaurant
p8029
aVdisappointment
p8030
asS'2366'
p8031
(lp8032
sS'2365'
p8033
(lp8034
Vdessert
p8035
aVsomeone
p8036
asS'2364'
p8037
(lp8038
Vstaff
p8039
aVplace
p8040
aVwait
p8041
asS'2363'
p8042
(lp8043
Vfish
p8044
asS'2361'
p8045
(lp8046
Vfood
p8047
aVbirthday
p8048
asS'2360'
p8049
(lp8050
Vnyc
p8051
aVgroup
p8052
asS'2587'
p8053
(lp8054
Vreview
p8055
asS'2586'
p8056
(lp8057
Vplace
p8058
asS'2585'
p8059
(lp8060
Vdelivery
p8061
aVservice
p8062
asS'2584'
p8063
(lp8064
Vchoice
p8065
asS'2582'
p8066
(lp8067
Vreservations
p8068
aVstuff
p8069
asS'2581'
p8070
(lp8071
Vrestaurant
p8072
asS'2580'
p8073
(lp8074
Vfood
p8075
aVambience
p8076
aVservice
p8077
asS'1612'
p8078
(lp8079
sS'402'
p8080
(lp8081
Vsaturday
p8082
aVnight
p8083
asS'2589'
p8084
(lp8085
Vrest
p8086
aVpizza
p8087
aVmushroom
p8088
ag8088
ag8088
asS'2588'
p8089
(lp8090
Vtables
p8091
aVtimes
p8092
aVorder
p8093
aVwaitress
p8094
aVrestaurant
p8095
aVfirst
p8096
aVfirst
p8097
asS'1861'
p8098
(lp8099
Vhusband
p8100
asS'1860'
p8101
(lp8102
Vevening
p8103
asS'1865'
p8104
(lp8105
Vdinner
p8106
aVwine
p8107
asS'1867'
p8108
(lp8109
Vdessert
p8110
aVwine
p8111
aVchocolate
p8112
aVcourses
p8113
asS'1866'
p8114
(lp8115
Vsake
p8116
aVdessert
p8117
aVtuna
p8118
aVwine
p8119
aVchocolate
p8120
aVpinot
p8121
asS'1869'
p8122
(lp8123
Vmenu
p8124
aVshow
p8125
asS'1868'
p8126
(lp8127
Vsalmon
p8128
aVhusband
p8129
asS'964'
p8130
(lp8131
Vstaff
p8132
aVwait
p8133
asS'965'
p8134
(lp8135
sS'966'
p8136
(lp8137
Vtaste
p8138
aVprices
p8139
aVquality
p8140
asS'967'
p8141
(lp8142
Vfood
p8143
aVplace
p8144
aVpeople
p8145
asS'960'
p8146
(lp8147
Vbit
p8148
aVrestaurant
p8149
aVsomething
p8150
aVmeal
p8151
asS'961'
p8152
(lp8153
Vfriend
p8154
aVrestaurant
p8155
aVfoodie
p8156
aVmine
p8157
asS'962'
p8158
(lp8159
Veveryone
p8160
aVfriends
p8161
asS'1613'
p8162
(lp8163
sS'968'
p8164
(lp8165
Vtown
p8166
aVspot
p8167
aVplaces
p8168
aVlot
p8169
aVclassics
p8170
ag8170
asS'969'
p8171
(lp8172
Vrolls
p8173
aVplaces
p8174
aVlight
p8175
aVsummer
p8176
asS'2109'
p8177
(lp8178
Vatmosphere
p8179
aVservice
p8180
aVarea
p8181
aVsushi
p8182
aVeverything
p8183
aVkitchen
p8184
aVwait
p8185
aVaverage
p8186
ag8186
aVechoes
p8187
asS'2108'
p8188
(lp8189
sS'2103'
p8190
(lp8191
Vtable
p8192
asS'2102'
p8193
(lp8194
Vsum
p8195
aVchinatown
p8196
aVrest
p8197
aVstandards
p8198
asS'2101'
p8199
(lp8200
Vmeat
p8201
ag8201
ag8201
aVbuns
p8202
asS'2100'
p8203
(lp8204
Vreviews
p8205
asS'2107'
p8206
(lp8207
Vsushi
p8208
aVtimes
p8209
aVst
p8210
ag8210
asS'2105'
p8211
(lp8212
Vtips
p8213
asS'2104'
p8214
(lp8215
Vtables
p8216
aVatmosphere
p8217
aVchinatown
p8218
aVsum
p8219
aVwait
p8220
asS'2639'
p8221
(lp8222
Vsalmon
p8223
aVroom
p8224
aVcrispy
p8225
asS'2638'
p8226
(lp8227
Vdumplings
p8228
aVmenu
p8229
aVmeal
p8230
asS'635'
p8231
(lp8232
Vnew
p8233
aVyork
p8234
aVpoint
p8235
asS'2635'
p8236
(lp8237
Vog
p8238
asS'2634'
p8239
(lp8240
sS'2637'
p8241
(lp8242
Vmeal
p8243
asS'2636'
p8244
(lp8245
Vnight
p8246
asS'2631'
p8247
(lp8248
Vdate
p8249
aVhusband
p8250
aVdinners
p8251
aVgroups
p8252
asS'2630'
p8253
(lp8254
Vchance
p8255
aVfriends
p8256
asS'3438'
p8257
(lp8258
Vambience
p8259
aVdate
p8260
aVgroup
p8261
aVservice
p8262
asS'3439'
p8263
(lp8264
Vprices
p8265
aVrestaurant
p8266
aVfallback
p8267
asS'878'
p8268
(lp8269
Vmeal
p8270
aVmontparnasse
p8271
aVmontparnasse
p8272
asS'3093'
p8273
(lp8274
sS'876'
p8275
(lp8276
Vpm
p8277
aVpm
p8278
asS'3431'
p8279
(lp8280
sS'874'
p8281
(lp8282
Vmenu
p8283
aVsteak
p8284
aVsoup
p8285
aVtomato
p8286
asS'3433'
p8287
(lp8288
Vdate
p8289
aVspot
p8290
aVplace
p8291
asS'3434'
p8292
(lp8293
Vdessert
p8294
aVpudding
p8295
asS'3435'
p8296
(lp8297
Vseafood
p8298
aVrestaurant
p8299
asS'870'
p8300
(lp8301
Vfood
p8302
aVprices
p8303
asS'3437'
p8304
(lp8305
Vsandwich
p8306
aVlobster
p8307
aVshrimp
p8308
asS'2741'
p8309
(lp8310
Vpasta
p8311
aVportion
p8312
aVbeef
p8313
aVservice
p8314
asS'2036'
p8315
(lp8316
Vtaste
p8317
aVdish
p8318
aVproblem
p8319
aVdishes
p8320
asS'2035'
p8321
(lp8322
Vfood
p8323
aVdrinks
p8324
aVportions
p8325
aVwaiters
p8326
aVpeople
p8327
asS'2742'
p8328
(lp8329
Vmartini
p8330
asS'2033'
p8331
(lp8332
Vcheese
p8333
aVwine
p8334
aVfare
p8335
ag8335
asS'2747'
p8336
(lp8337
Vtuna
p8338
aVappetizer
p8339
asS'2030'
p8340
(lp8341
Vfood
p8342
aVcheese
p8343
aVwine
p8344
aVtable
p8345
aVserver
p8346
aVpairings
p8347
asS'9'
p8348
(lp8349
Vwaitress
p8350
asS'2748'
p8351
(lp8352
Vthing
p8353
aVservice
p8354
aVrestaurant
p8355
asS'2039'
p8356
(lp8357
Vrice
p8358
asS'2038'
p8359
(lp8360
Vfood
p8361
asS'891'
p8362
(lp8363
Vfood
p8364
aVnothing
p8365
aVservice
p8366
asS'892'
p8367
(lp8368
Vmeal
p8369
asS'894'
p8370
(lp8371
Vrestaurant
p8372
aVprix
p8373
asS'895'
p8374
(lp8375
Vsomething
p8376
asS'896'
p8377
(lp8378
Vbeer
p8379
asS'897'
p8380
(lp8381
Vdinner
p8382
aVwife
p8383
asS'909'
p8384
(lp8385
Vweek
p8386
aVmenu
p8387
aVrestaurant
p8388
aVny
p8389
asS'899'
p8390
(lp8391
Vfood
p8392
aVservice
p8393
asS'1530'
p8394
(lp8395
Vdining
p8396
aVarea
p8397
asS'3651'
p8398
(lp8399
Vchance
p8400
asS'783'
p8401
(lp8402
sS'1968'
p8403
(lp8404
Vdinner
p8405
aVday
p8406
asS'1969'
p8407
(lp8408
Vselection
p8409
aVambiance
p8410
aVservice
p8411
aVwine
p8412
asS'3544'
p8413
(lp8414
Vambience
p8415
aVdate
p8416
aVplace
p8417
asS'3545'
p8418
(lp8419
Vtime
p8420
aVothers
p8421
asS'3546'
p8422
(lp8423
Vcurry
p8424
aVrestaurant
p8425
asS'3547'
p8426
(lp8427
Vfood
p8428
aVvalue
p8429
asS'3541'
p8430
(lp8431
Vdinner
p8432
asS'3542'
p8433
(lp8434
Vrestaurants
p8435
aVmistake
p8436
aVpractice
p8437
asS'3543'
p8438
(lp8439
Vfood
p8440
aVrestaurant
p8441
aVtastes
p8442
asS'3235'
p8443
(lp8444
Vchef
p8445
aVcouple
p8446
aVstaff
p8447
asS'1964'
p8448
(lp8449
Vappetizer
p8450
aVdrinks
p8451
asS'422'
p8452
(lp8453
Vplace
p8454
asS'1965'
p8455
(lp8456
Vrestaurant
p8457
aVnite
p8458
ag8458
ag8458
asS'1966'
p8459
(lp8460
Vbusiness
p8461
aVdinner
p8462
aVplace
p8463
aVfun
p8464
aVtable
p8465
aVfriends
p8466
asS'3069'
p8467
(lp8468
sS'2965'
p8469
(lp8470
Vtable
p8471
aVgroup
p8472
asS'2964'
p8473
(lp8474
Vfood
p8475
aVarea
p8476
aVfeat
p8477
asS'2967'
p8478
(lp8479
Vfood
p8480
aVrestaurant
p8481
aVrestaurants
p8482
aVarea
p8483
aVkilo
p8484
asS'2966'
p8485
(lp8486
sS'2961'
p8487
(lp8488
Vcuisine
p8489
aVportions
p8490
asS'2960'
p8491
(lp8492
Vmenu
p8493
asS'2963'
p8494
(lp8495
Vglass
p8496
aVwine
p8497
aVaccompaniment
p8498
asS'2962'
p8499
(lp8500
Vcheese
p8501
aVworld
p8502
aVsteak
p8503
aVsalad
p8504
aVchoices
p8505
aVmussels
p8506
asS'1780'
p8507
(lp8508
Vfood
p8509
aVmenu
p8510
aVwork
p8511
aVeverything
p8512
aVultra
p8513
asS'1781'
p8514
(lp8515
sS'760'
p8516
(lp8517
Vplaces
p8518
aVfusion
p8519
asS'1783'
p8520
(lp8521
sS'2969'
p8522
(lp8523
Vbill
p8524
asS'2968'
p8525
(lp8526
Vbartender
p8527
aVambiance
p8528
aVservice
p8529
aVbar
p8530
asS'764'
p8531
(lp8532
Vdish
p8533
aVchicken
p8534
asS'765'
p8535
(lp8536
Vprice
p8537
aVsushi
p8538
aVanything
p8539
asS'3049'
p8540
(lp8541
Vfood
p8542
aVportions
p8543
asS'3048'
p8544
(lp8545
Vtable
p8546
aVnoodles
p8547
aVdishes
p8548
asS'3041'
p8549
(lp8550
Vdinner
p8551
aVrestaurant
p8552
aVtimes
p8553
asS'3040'
p8554
(lp8555
Vmenu
p8556
asS'3043'
p8557
(lp8558
Vspecials
p8559
aVdinner
p8560
asS'3042'
p8561
(lp8562
Vfood
p8563
aVminutes
p8564
aVmeal
p8565
asS'3045'
p8566
(lp8567
sS'3044'
p8568
(lp8569
Vchicken
p8570
aVsauce
p8571
aVgarlic
p8572
aVbean
p8573
asS'3047'
p8574
(lp8575
Vplace
p8576
aVstaff
p8577
asS'3046'
p8578
(lp8579
Vplace
p8580
aVposts
p8581
asS'1078'
p8582
(lp8583
Vbatter
p8584
aVcombinations
p8585
asS'1077'
p8586
(lp8587
Vnyc
p8588
asS'1074'
p8589
(lp8590
Vtaste
p8591
aVny
p8592
aVplace
p8593
aVdosa
p8594
asS'1070'
p8595
(lp8596
Vline
p8597
asS'1071'
p8598
(lp8599
Vspot
p8600
asS'1678'
p8601
(lp8602
Vmoney
p8603
asS'1679'
p8604
(lp8605
Vhours
p8606
asS'3030'
p8607
(lp8608
sS'1674'
p8609
(lp8610
Vnight
p8611
aVanniversery
p8612
asS'1675'
p8613
(lp8614
Vfood
p8615
aVquality
p8616
asS'1676'
p8617
(lp8618
Vatmosphere
p8619
aVplaces
p8620
asS'1677'
p8621
(lp8622
Vwait
p8623
aVstaff
p8624
asS'1670'
p8625
(lp8626
Vreservations
p8627
aVwait
p8628
asS'1671'
p8629
(lp8630
Vminutes
p8631
aVdrink
p8632
aVbar
p8633
aVreservation
p8634
asS'1672'
p8635
(lp8636
Vfood
p8637
asS'1673'
p8638
(lp8639
Vselection
p8640
aVwine
p8641
asS'1094'
p8642
(lp8643
Vfood
p8644
asS'1095'
p8645
(lp8646
Vfood
p8647
aVquality
p8648
aVplace
p8649
aVrestaurant
p8650
aVjazz
p8651
ag8651
asS'1096'
p8652
(lp8653
Vdate
p8654
aVspot
p8655
aVambiance
p8656
aVnight
p8657
aVscene
p8658
asS'1097'
p8659
(lp8660
Vanyone
p8661
aVcuisine
p8662
aVspot
p8663
aVprices
p8664
asS'678'
p8665
(lp8666
Vcourse
p8667
aVeverything
p8668
aVmeal
p8669
aVplate
p8670
aVnight
p8671
asS'679'
p8672
(lp8673
sS'1092'
p8674
(lp8675
Vfriends
p8676
aVnight
p8677
aVbasis
p8678
asS'1093'
p8679
(lp8680
Vcity
p8681
aVrestaurant
p8682
aVtime
p8683
aVrestaurants
p8684
aVroth
p8685
asS'674'
p8686
(lp8687
Vfun
p8688
aVgroup
p8689
aVexperience
p8690
asS'675'
p8691
(lp8692
Vselection
p8693
aVexperience
p8694
aVpeople
p8695
asS'676'
p8696
(lp8697
Vnothing
p8698
aVflavors
p8699
asS'677'
p8700
(lp8701
sS'1098'
p8702
(lp8703
Vtimes
p8704
asS'1099'
p8705
(lp8706
Vdinner
p8707
asS'672'
p8708
(lp8709
Vingredients
p8710
asS'673'
p8711
(lp8712
Vnoodles
p8713
aVbroth
p8714
asS'3135'
p8715
(lp8716
Vkind
p8717
aVorder
p8718
asS'3134'
p8719
(lp8720
Vfood
p8721
aVpeople
p8722
aVenglish
p8723
aVjob
p8724
asS'3137'
p8725
(lp8726
Vtable
p8727
asS'3136'
p8728
(lp8729
Vstaff
p8730
asS'3131'
p8731
(lp8732
sS'3130'
p8733
(lp8734
Vfood
p8735
aVoily
p8736
ag8736
asS'3133'
p8737
(lp8738
Vrestaurant
p8739
asS'3139'
p8740
(lp8741
Vlife
p8742
aVsum
p8743
aVchinatown
p8744
aVglass
p8745
aVpart
p8746
aVrestaurants
p8747
aVcreatures
p8748
asS'3138'
p8749
(lp8750
Vfish
p8751
asS'1533'
p8752
(lp8753
Vspot
p8754
aVpastrami
p8755
ag8755
asS'1418'
p8756
(lp8757
Vbill
p8758
asS'1419'
p8759
(lp8760
Vthali
p8761
asS'1410'
p8762
(lp8763
Vvalue
p8764
asS'1411'
p8765
(lp8766
Vfood
p8767
asS'1412'
p8768
(lp8769
Vdishes
p8770
asS'1413'
p8771
(lp8772
Vcity
p8773
aVsandwich
p8774
aVlunch
p8775
asS'1414'
p8776
(lp8777
sS'1415'
p8778
(lp8779
Vfood
p8780
aVservice
p8781
asS'1416'
p8782
(lp8783
Vprices
p8784
aVarea
p8785
aVripoff
p8786
asS'1417'
p8787
(lp8788
Vtimes
p8789
asS'1322'
p8790
(lp8791
Vchicken
p8792
asS'1323'
p8793
(lp8794
Vmusic
p8795
aVrestaurants
p8796
asS'1320'
p8797
(lp8798
Vnothing
p8799
aVsales
p8800
aVamma
p8801
asS'1321'
p8802
(lp8803
Vfood
p8804
aVcity
p8805
aVplace
p8806
aVyork
p8807
aVnew
p8808
asS'1326'
p8809
(lp8810
Vfood
p8811
asS'1327'
p8812
(lp8813
Vmenu
p8814
aVseafood
p8815
aVdishes
p8816
aVvariety
p8817
aVways
p8818
asS'1324'
p8819
(lp8820
sS'1325'
p8821
(lp8822
Vbirthday
p8823
aVmeal
p8824
aVnight
p8825
asS'1328'
p8826
(lp8827
Vthing
p8828
aVbirthday
p8829
asS'1329'
p8830
(lp8831
Vreservations
p8832
asS'5'
p8833
(lp8834
Vplace
p8835
asS'1531'
p8836
(lp8837
sS'1917'
p8838
(lp8839
Vdish
p8840
aVfood
p8841
aVportions
p8842
aVtasting
p8843
asS'3618'
p8844
(lp8845
Vside
p8846
aVrestaurant
p8847
asS'1254'
p8848
(lp8849
Vthai
p8850
aVtea
p8851
ag8851
asS'1527'
p8852
(lp8853
Vfriends
p8854
asS'1250'
p8855
(lp8856
Vcurry
p8857
aVchicken
p8858
aVpad
p8859
aVfriend
p8860
asS'1528'
p8861
(lp8862
Vfood
p8863
aVneighborhood
p8864
aVnosh
p8865
asS'308'
p8866
(lp8867
Vfish
p8868
aVseafood
p8869
aVreview
p8870
asS'309'
p8871
(lp8872
Vbar
p8873
aVservice
p8874
aVstaff
p8875
asS'300'
p8876
(lp8877
Vsushi
p8878
aVrolls
p8879
aVfriend
p8880
aVpresentation
p8881
ag8881
asS'301'
p8882
(lp8883
Vtable
p8884
aVwait
p8885
aVsun
p8886
ag8886
aVinsde
p8887
asS'302'
p8888
(lp8889
Vplace
p8890
aVrestaurant
p8891
asS'303'
p8892
(lp8893
Vlunch
p8894
aVdinner
p8895
aVtimes
p8896
asS'304'
p8897
(lp8898
Veverything
p8899
aVfish
p8900
aVway
p8901
asS'305'
p8902
(lp8903
Vsushi
p8904
asS'306'
p8905
(lp8906
Vdessert
p8907
asS'307'
p8908
(lp8909
Vrestaurant
p8910
aVplace
p8911
aVtimes
p8912
asS'1626'
p8913
(lp8914
Vtime
p8915
aVholiday
p8916
asS'75'
p8917
(lp8918
sS'2399'
p8919
(lp8920
Vlunch
p8921
aVportions
p8922
aVappetizer
p8923
asS'71'
p8924
(lp8925
Vservice
p8926
aVarea
p8927
aVdining
p8928
aVplace
p8929
aVwine
p8930
aVpizza
p8931
asS'70'
p8932
(lp8933
Vnight
p8934
aVplace
p8935
aVtime
p8936
asS'3415'
p8937
(lp8938
sS'3056'
p8939
(lp8940
Vfood
p8941
aVambience
p8942
aVtrip
p8943
aVworld
p8944
asS'989'
p8945
(lp8946
Vservice
p8947
asS'2973'
p8948
(lp8949
Vfood
p8950
aVservice
p8951
asS'1447'
p8952
(lp8953
Vmeal
p8954
asS'3052'
p8955
(lp8956
Vbistro
p8957
aVpath
p8958
ag8958
ag8958
asS'3053'
p8959
(lp8960
Vrestaurant
p8961
aVflair
p8962
ag8962
asS'2974'
p8963
(lp8964
Vtable
p8965
aVsteak
p8966
aVbet
p8967
asS'3051'
p8968
(lp8969
Vplace
p8970
asS'3603'
p8971
(lp8972
Vlot
p8973
aVpizza
p8974
asS'3602'
p8975
(lp8976
sS'3601'
p8977
(lp8978
Vnyc
p8979
aVplaces
p8980
aVpizza
p8981
aVhands
p8982
asS'3600'
p8983
(lp8984
Vcheese
p8985
asS'3607'
p8986
(lp8987
Vnight
p8988
asS'3606'
p8989
(lp8990
Vpizza
p8991
asS'3605'
p8992
(lp8993
Vfun
p8994
aVdecor
p8995
aVselection
p8996
aVservice
p8997
aVwines
p8998
aVfine
p8999
asS'3604'
p9000
(lp9001
Vwaltzes
p9002
asS'3609'
p9003
(lp9004
sS'3608'
p9005
(lp9006
Vway
p9007
aVinconsistency
p9008
aVpizzas
p9009
asS'3413'
p9010
(lp9011
Vrestaurant
p9012
aVstaff
p9013
asS'2479'
p9014
(lp9015
Vweek
p9016
aVbar
p9017
aVservice
p9018
aVrestaurant
p9019
aVmenu
p9020
aVbread
p9021
asS'2478'
p9022
(lp9023
Vdishes
p9024
asS'470'
p9025
(lp9026
sS'2990'
p9027
(lp9028
Vsteak
p9029
aVpoivre
p9030
asS'2359'
p9031
(lp9032
Vbit
p9033
aVbill
p9034
aVexperience
p9035
asS'2350'
p9036
(lp9037
Vtuna
p9038
aVboyfriend
p9039
asS'2356'
p9040
(lp9041
Vclams
p9042
aVkick
p9043
aVeating
p9044
ag9044
asS'2355'
p9045
(lp9046
Vsalad
p9047
asS'2991'
p9048
(lp9049
Vsteak
p9050
aVsauce
p9051
asS'1899'
p9052
(lp9053
Vpastis
p9054
asS'1894'
p9055
(lp9056
Vbistro
p9057
aVatmosphere
p9058
aVplace
p9059
aVdishes
p9060
aVwine
p9061
asS'1890'
p9062
(lp9063
Vatmosphere
p9064
aVvibe
p9065
asS'1891'
p9066
(lp9067
Vfood
p9068
aVsoup
p9069
asS'1893'
p9070
(lp9071
Vfries
p9072
asS'2136'
p9073
(lp9074
Vquiet
p9075
ag9075
aVaccompaniment
p9076
asS'2137'
p9077
(lp9078
Vchicken
p9079
aVservice
p9080
aVcheeseburger
p9081
asS'2134'
p9082
(lp9083
Vkind
p9084
aVbusiness
p9085
asS'2135'
p9086
(lp9087
Vfriend
p9088
aVway
p9089
aVrestaurant
p9090
aVsunday
p9091
asS'2132'
p9092
(lp9093
Vfood
p9094
aVcity
p9095
aVservice
p9096
aVdrinks
p9097
asS'2133'
p9098
(lp9099
Vmeal
p9100
aVdrinks
p9101
aVround
p9102
asS'2130'
p9103
(lp9104
Vnew
p9105
aVyork
p9106
asS'2131'
p9107
(lp9108
Veveryone
p9109
aVfamily
p9110
asS'951'
p9111
(lp9112
Vwaiter
p9113
aVminutes
p9114
aVorder
p9115
aVdrinks
p9116
asS'950'
p9117
(lp9118
sS'953'
p9119
(lp9120
Vfood
p9121
aVservice
p9122
aVrestaurants
p9123
asS'952'
p9124
(lp9125
sS'955'
p9126
(lp9127
sS'954'
p9128
(lp9129
Vdinner
p9130
aVrestaurant
p9131
asS'2138'
p9132
(lp9133
Vexperiences
p9134
ag9134
aVdistrict
p9135
asS'2139'
p9136
(lp9137
Vtimes
p9138
aVoasis
p9139
asS'2648'
p9140
(lp9141
Vfood
p9142
aVportion
p9143
asS'2649'
p9144
(lp9145
Vdinner
p9146
aVplace
p9147
aVbusiness
p9148
aVrestaurant
p9149
asS'2640'
p9150
(lp9151
Vsake
p9152
aVsaturday
p9153
asS'2641'
p9154
(lp9155
Vbistro
p9156
aVtrip
p9157
asS'2642'
p9158
(lp9159
Vfood
p9160
aVmenu
p9161
aVquality
p9162
aVspecials
p9163
asS'2643'
p9164
(lp9165
Vsalad
p9166
aVrestaurants
p9167
aVcalamari
p9168
aVdisaster
p9169
asS'2644'
p9170
(lp9171
Vsalmon
p9172
asS'2645'
p9173
(lp9174
Vplaces
p9175
aVshrimp
p9176
aVdish
p9177
aVthai
p9178
aVnoodles
p9179
aVcurry
p9180
asS'2646'
p9181
(lp9182
Vhouse
p9183
aVbeer
p9184
aVwine
p9185
aVvarities
p9186
asS'2647'
p9187
(lp9188
Vbar
p9189
aVstaff
p9190
aVcigar
p9191
asS'3429'
p9192
(lp9193
Vexperience
p9194
aVnight
p9195
asS'3428'
p9196
(lp9197
sS'3423'
p9198
(lp9199
Vsandwich
p9200
aVlobster
p9201
aVfantastic
p9202
asS'3422'
p9203
(lp9204
Vcity
p9205
aVtrip
p9206
asS'3421'
p9207
(lp9208
Vlunch
p9209
aVdinner
p9210
aVdowntown
p9211
asS'3420'
p9212
(lp9213
Vchef
p9214
aVcuisine
p9215
aVlife
p9216
aVdishes
p9217
aVrestaurant
p9218
asS'3426'
p9219
(lp9220
Vreservation
p9221
aVpeople
p9222
asS'3425'
p9223
(lp9224
Vsauce
p9225
aVappetizer
p9226
asS'3424'
p9227
(lp9228
Vportion
p9229
aVhusband
p9230
aVfries
p9231
ag9231
asS'2002'
p9232
(lp9233
Vdining
p9234
aVprice
p9235
aVexperience
p9236
aVrestaurant
p9237
asS'2003'
p9238
(lp9239
Vdinner
p9240
aVtime
p9241
asS'2000'
p9242
(lp9243
Vexperience
p9244
aVpeople
p9245
asS'2001'
p9246
(lp9247
Vdinner
p9248
aVdrinks
p9249
aVwine
p9250
aVbottle
p9251
asS'2006'
p9252
(lp9253
Vservice
p9254
asS'2007'
p9255
(lp9256
sS'2004'
p9257
(lp9258
Vdining
p9259
aVoccasion
p9260
ag9260
asS'2005'
p9261
(lp9262
Veverything
p9263
aVrestaurant
p9264
asS'2008'
p9265
(lp9266
Vparty
p9267
aVmeal
p9268
aVtouch
p9269
ag9269
asS'2009'
p9270
(lp9271
Vvisit
p9272
asS'2034'
p9273
(lp9274
Vwork
p9275
aVplace
p9276
aVorder
p9277
asS'1544'
p9278
(lp9279
Vplace
p9280
asS'1268'
p9281
(lp9282
Vwater
p9283
aVcurry
p9284
aVtofu
p9285
asS'3026'
p9286
(lp9287
Vsake
p9288
aVdecor
p9289
aVservice
p9290
aVwood
p9291
aVpremium
p9292
asS'3557'
p9293
(lp9294
Vfood
p9295
aVquality
p9296
aVshoulders
p9297
aVneighboors
p9298
asS'3556'
p9299
(lp9300
sS'3555'
p9301
(lp9302
Vplace
p9303
aVfriends
p9304
aVfoods
p9305
ag9305
ag9305
asS'3554'
p9306
(lp9307
Vnaan
p9308
asS'3553'
p9309
(lp9310
Vtables
p9311
asS'3551'
p9312
(lp9313
Vcareful
p9314
aVspice
p9315
asS'3558'
p9316
(lp9317
Vdishes
p9318
asS'919'
p9319
(lp9320
Vfamily
p9321
asS'2997'
p9322
(lp9323
Vdelicious
p9324
asS'918'
p9325
(lp9326
sS'2910'
p9327
(lp9328
Vny
p9329
aVplace
p9330
aVyears
p9331
asS'2911'
p9332
(lp9333
Vfood
p9334
aVmenu
p9335
aVservice
p9336
aVsetting
p9337
asS'2912'
p9338
(lp9339
Vlamb
p9340
aVdishes
p9341
aVshrimp
p9342
aVbiscuits
p9343
aVpistachio
p9344
aVcream
p9345
asS'1798'
p9346
(lp9347
Vtable
p9348
aVtime
p9349
aVkitchen
p9350
aVcorridor
p9351
asS'2914'
p9352
(lp9353
Vprune
p9354
asS'2915'
p9355
(lp9356
Vservice
p9357
aVfood
p9358
aVambiance
p9359
aVreviews
p9360
aVstaff
p9361
aVwait
p9362
asS'719'
p9363
(lp9364
Vappetizers
p9365
aVtime
p9366
aVanything
p9367
aVdrinks
p9368
asS'718'
p9369
(lp9370
Vspot
p9371
aVplace
p9372
asS'1793'
p9373
(lp9374
Vhour
p9375
aVdrinks
p9376
aVcheck
p9377
asS'1792'
p9378
(lp9379
Vtime
p9380
aVfriends
p9381
aVstaff
p9382
asS'1791'
p9383
(lp9384
Vreview
p9385
asS'714'
p9386
(lp9387
sS'1797'
p9388
(lp9389
Vplace
p9390
aVservice
p9391
aVpink
p9392
asS'712'
p9393
(lp9394
Vdate
p9395
aVservice
p9396
aVanything
p9397
asS'711'
p9398
(lp9399
Vpeople
p9400
aVamount
p9401
ag9401
asS'710'
p9402
(lp9403
Vfood
p9404
asS'716'
p9405
(lp9406
sS'660'
p9407
(lp9408
Vtimes
p9409
asS'917'
p9410
(lp9411
Vservice
p9412
asS'1069'
p9413
(lp9414
Vworld
p9415
asS'1068'
p9416
(lp9417
Vdiet
p9418
ag9418
ag9418
asS'2179'
p9419
(lp9420
Vfriends
p9421
aVyears
p9422
asS'1061'
p9423
(lp9424
Vservice
p9425
asS'1060'
p9426
(lp9427
Vbit
p9428
aVtoppings
p9429
asS'1063'
p9430
(lp9431
sS'1062'
p9432
(lp9433
Vbagel
p9434
aVdrawback
p9435
asS'1065'
p9436
(lp9437
Vfood
p9438
aVnothing
p9439
aVprice
p9440
aVfancy
p9441
asS'1064'
p9442
(lp9443
sS'1067'
p9444
(lp9445
Vbagel
p9446
asS'1066'
p9447
(lp9448
Vfood
p9449
aVapetizers
p9450
asS'1669'
p9451
(lp9452
Vsomeone
p9453
aVplace
p9454
asS'1668'
p9455
(lp9456
Vcuisine
p9457
asS'1667'
p9458
(lp9459
Vfood
p9460
aVambience
p9461
aVpeople
p9462
aVyorkers
p9463
aVappreciation
p9464
asS'1666'
p9465
(lp9466
Vfood
p9467
aVvisit
p9468
aVwait
p9469
asS'1665'
p9470
(lp9471
Vway
p9472
aVdrinks
p9473
asS'1664'
p9474
(lp9475
Vfood
p9476
aVservice
p9477
asS'1663'
p9478
(lp9479
Vreservation
p9480
aVtable
p9481
aVwife
p9482
asS'1662'
p9483
(lp9484
Vsushi
p9485
asS'1661'
p9486
(lp9487
sS'1660'
p9488
(lp9489
Vfood
p9490
aVthing
p9491
asS'1087'
p9492
(lp9493
Vplace
p9494
aVplanet
p9495
ag9495
ag9495
ag9495
asS'1086'
p9496
(lp9497
sS'593'
p9498
(lp9499
Vnew
p9500
aVyork
p9501
aVdeal
p9502
asS'592'
p9503
(lp9504
Vtime
p9505
asS'595'
p9506
(lp9507
Vparts
p9508
asS'594'
p9509
(lp9510
Vambience
p9511
aVfood
p9512
aVthing
p9513
asS'597'
p9514
(lp9515
Vplace
p9516
asS'596'
p9517
(lp9518
Vnothing
p9519
aVrestaurant
p9520
asS'599'
p9521
(lp9522
Vfood
p9523
asS'598'
p9524
(lp9525
Vfood
p9526
aVatmosphere
p9527
aVservice
p9528
asS'1089'
p9529
(lp9530
Vway
p9531
aVsandwiches
p9532
asS'1088'
p9533
(lp9534
sS'3140'
p9535
(lp9536
Vprices
p9537
aVsum
p9538
asS'3141'
p9539
(lp9540
Vfood
p9541
aVservice
p9542
aVtimes
p9543
asS'3142'
p9544
(lp9545
Videa
p9546
asS'3144'
p9547
(lp9548
Vtable
p9549
aVgroup
p9550
aVservice
p9551
asS'3145'
p9552
(lp9553
Vsum
p9554
aVdim
p9555
asS'3146'
p9556
(lp9557
Vreviews
p9558
aVsum
p9559
aVplace
p9560
aVdinner
p9561
aVdim
p9562
asS'3147'
p9563
(lp9564
Vrestaurant
p9565
asS'3148'
p9566
(lp9567
Vrice
p9568
aVcart
p9569
asS'2825'
p9570
(lp9571
sS'2826'
p9572
(lp9573
Vavenue
p9574
ag9574
asS'2827'
p9575
(lp9576
Vfood
p9577
aVambience
p9578
aVservice
p9579
aVaverage
p9580
asS'2822'
p9581
(lp9582
Vfish
p9583
aVsalad
p9584
aVpizza
p9585
aVguests
p9586
asS'2823'
p9587
(lp9588
Vfood
p9589
aVambience
p9590
aVservice
p9591
asS'3384'
p9592
(lp9593
sS'3382'
p9594
(lp9595
Vmenu
p9596
aVflavors
p9597
asS'3383'
p9598
(lp9599
Vhouse
p9600
aVwine
p9601
asS'3380'
p9602
(lp9603
Vprices
p9604
aVnothing
p9605
aVportions
p9606
asS'3381'
p9607
(lp9608
Vplate
p9609
aVfact
p9610
aVpeople
p9611
asS'3388'
p9612
(lp9613
Vway
p9614
asS'713'
p9615
(lp9616
Vmoney
p9617
aVservice
p9618
asS'1409'
p9619
(lp9620
Vlunch
p9621
aVcouple
p9622
aVneighborhood
p9623
aVtimes
p9624
asS'1408'
p9625
(lp9626
Vrestaurant
p9627
asS'1403'
p9628
(lp9629
Vcity
p9630
aVrestaurant
p9631
asS'1402'
p9632
(lp9633
Vfood
p9634
aVexpert
p9635
asS'1401'
p9636
(lp9637
Vthumbs
p9638
asS'1400'
p9639
(lp9640
Vplace
p9641
asS'1407'
p9642
(lp9643
Vseats
p9644
asS'1404'
p9645
(lp9646
Vprices
p9647
aVamazin
p9648
ag9648
asS'1546'
p9649
(lp9650
Vfood
p9651
aVpeople
p9652
aVdeli
p9653
asS'449'
p9654
(lp9655
Vpizza
p9656
aVgarlic
p9657
ag9657
asS'448'
p9658
(lp9659
Vcrust
p9660
aVpies
p9661
asS'1339'
p9662
(lp9663
Vlunch
p9664
aVweekday
p9665
asS'1338'
p9666
(lp9667
Vfood
p9668
aVline
p9669
aVservice
p9670
asS'1491'
p9671
(lp9672
Vsauce
p9673
aVcrust
p9674
asS'693'
p9675
(lp9676
Veverything
p9677
aVdecor
p9678
aVservice
p9679
aVcool
p9680
asS'443'
p9681
(lp9682
Vnyc
p9683
aVbread
p9684
aVpizza
p9685
aVtoppings
p9686
aVtastes
p9687
asS'442'
p9688
(lp9689
Vproblem
p9690
asS'441'
p9691
(lp9692
Vservice
p9693
asS'440'
p9694
(lp9695
Vrestaurants
p9696
asS'447'
p9697
(lp9698
Vplace
p9699
aVpizza
p9700
asS'1330'
p9701
(lp9702
Vhour
p9703
asS'445'
p9704
(lp9705
sS'444'
p9706
(lp9707
Vparmigana
p9708
asS'1545'
p9709
(lp9710
Vlot
p9711
asS'696'
p9712
(lp9713
Vfood
p9714
aVtimes
p9715
aVsaul
p9716
asS'1631'
p9717
(lp9718
Vlist
p9719
aVmeal
p9720
aVwine
p9721
asS'697'
p9722
(lp9723
Vstreet
p9724
aVrestaurant
p9725
asS'1933'
p9726
(lp9727
Vdinner
p9728
aVbirthday
p9729
asS'39'
p9730
(lp9731
Vorder
p9732
aVwaitress
p9733
asS'38'
p9734
(lp9735
Vtable
p9736
aVparty
p9737
aVboths
p9738
asS'1540'
p9739
(lp9740
Vtuna
p9741
aVminutes
p9742
asS'1932'
p9743
(lp9744
Vrestaurant
p9745
aVexperience
p9746
aVnight
p9747
asS'30'
p9748
(lp9749
Vbartender
p9750
aVvisit
p9751
asS'37'
p9752
(lp9753
Vbar
p9754
aVstaff
p9755
asS'36'
p9756
(lp9757
Vdining
p9758
aVexperience
p9759
asS'35'
p9760
(lp9761
sS'34'
p9762
(lp9763
Vbartender
p9764
aVbar
p9765
aVpeople
p9766
asS'1537'
p9767
(lp9768
Vexperience
p9769
aVrestaurant
p9770
asS'1240'
p9771
(lp9772
Vcook
p9773
asS'1535'
p9774
(lp9775
Vfood
p9776
aVorder
p9777
aVbusiness
p9778
aVcounter
p9779
asS'1242'
p9780
(lp9781
Vrice
p9782
asS'645'
p9783
(lp9784
sS'1244'
p9785
(lp9786
Vthai
p9787
aVdrink
p9788
aVfriends
p9789
asS'647'
p9790
(lp9791
Vfood
p9792
aVdesserts
p9793
aVcourse
p9794
aVwow
p9795
asS'646'
p9796
(lp9797
Vnothing
p9798
asS'649'
p9799
(lp9800
Vlife
p9801
aVplace
p9802
aVtime
p9803
aVlobster
p9804
aVmeal
p9805
aVhusband
p9806
aVummmmm
p9807
aVummmmm
p9808
asS'648'
p9809
(lp9810
Vmoney
p9811
aVmeal
p9812
asS'3098'
p9813
(lp9814
Vdrinks
p9815
asS'1539'
p9816
(lp9817
Vmenu
p9818
aVdogs
p9819
aVsection
p9820
ag9820
asS'1538'
p9821
(lp9822
Vcheese
p9823
aVtuna
p9824
aVsandwich
p9825
asS'339'
p9826
(lp9827
Vsushi
p9828
asS'338'
p9829
(lp9830
Vwater
p9831
aVsoup
p9832
aVsauce
p9833
asS'335'
p9834
(lp9835
Vmanager
p9836
aVpart
p9837
aVexperience
p9838
aVwoman
p9839
ag9839
aVsmile
p9840
asS'334'
p9841
(lp9842
Vfood
p9843
aVservice
p9844
asS'337'
p9845
(lp9846
Vfood
p9847
aVexcuse
p9848
asS'336'
p9849
(lp9850
Vrestaurant
p9851
asS'331'
p9852
(lp9853
Vfriend
p9854
aVrestaurant
p9855
aVupper
p9856
asS'330'
p9857
(lp9858
sS'333'
p9859
(lp9860
Vboy
p9861
asS'332'
p9862
(lp9863
Vnyc
p9864
aVsushi
p9865
aVrestaurant
p9866
asS'1633'
p9867
(lp9868
Vrestaurant
p9869
aVrao
p9870
asS'543'
p9871
(lp9872
Vtrip
p9873
aVpoint
p9874
aVino
p9875
asS'1901'
p9876
(lp9877
Vpeople
p9878
aVvibe
p9879
asS'3467'
p9880
(lp9881
Vfood
p9882
asS'3464'
p9883
(lp9884
Vreviews
p9885
aVplaces
p9886
aVpeople
p9887
asS'1085'
p9888
(lp9889
Vtime
p9890
aVtrust
p9891
asS'8'
p9892
(lp9893
Veverything
p9894
aVpeople
p9895
aVservice
p9896
aVthing
p9897
asS'3463'
p9898
(lp9899
Vfood
p9900
aVatmosphere
p9901
asS'1496'
p9902
(lp9903
Vservice
p9904
asS'842'
p9905
(lp9906
Vprices
p9907
aVplace
p9908
aVservice
p9909
asS'1466'
p9910
(lp9911
Vconversation
p9912
aVside
p9913
aVattorney
p9914
aVunion
p9915
asS'841'
p9916
(lp9917
Vnothing
p9918
asS'840'
p9919
(lp9920
Vfood
p9921
aVfish
p9922
asS'3375'
p9923
(lp9924
Vweek
p9925
aVparty
p9926
asS'2854'
p9927
(lp9928
Vdining
p9929
aVservice
p9930
asS'3638'
p9931
(lp9932
Vspecials
p9933
aVcheese
p9934
aVpizza
p9935
aVlunch
p9936
aVpelligrino
p9937
asS'3639'
p9938
(lp9939
Vhouse
p9940
aVsalad
p9941
asS'3636'
p9942
(lp9943
Vfood
p9944
aVny
p9945
aVway
p9946
asS'3637'
p9947
(lp9948
Vplace
p9949
aVblock
p9950
aVpeople
p9951
asS'3634'
p9952
(lp9953
Vanyone
p9954
aVdinner
p9955
aVfamily
p9956
asS'3635'
p9957
(lp9958
Vdining
p9959
aVexperience
p9960
asS'3632'
p9961
(lp9962
Vkitchen
p9963
asS'3633'
p9964
(lp9965
Vfamily
p9966
aVservice
p9967
asS'3630'
p9968
(lp9969
sS'3631'
p9970
(lp9971
Vplace
p9972
aVpizza
p9973
aVstyles
p9974
ag9974
asS'849'
p9975
(lp9976
Vevening
p9977
asS'848'
p9978
(lp9979
Vexperience
p9980
asS'2347'
p9981
(lp9982
Vspot
p9983
aVtimes
p9984
aVive
p9985
asS'2341'
p9986
(lp9987
Vreservation
p9988
aVtime
p9989
asS'2349'
p9990
(lp9991
Vsalad
p9992
aVshrimp
p9993
asS'2348'
p9994
(lp9995
Vfun
p9996
aVreservations
p9997
aVdinner
p9998
aVschool
p9999
aVscenery
p10000
asS'2469'
p10001
(lp10002
Vglass
p10003
aVeverything
p10004
asS'2987'
p10005
(lp10006
Vfood
p10007
aVplate
p10008
aVatmosphere
p10009
asS'2067'
p10010
(lp10011
Vdecor
p10012
aVservice
p10013
asS'3708'
p10014
(lp10015
Vnyc
p10016
asS'3709'
p10017
(lp10018
Vwife
p10019
aVshrimp
p10020
asS'1889'
p10021
(lp10022
sS'1888'
p10023
(lp10024
Vny
p10025
aVplace
p10026
aVboyfriend
p10027
aVdays
p10028
asS'1887'
p10029
(lp10030
Vtables
p10031
aVdinner
p10032
aVplace
p10033
asS'3703'
p10034
(lp10035
Vcheese
p10036
asS'3700'
p10037
(lp10038
Vplace
p10039
aVpeople
p10040
asS'1884'
p10041
(lp10042
Vmenu
p10043
aVsteak
p10044
aVselections
p10045
asS'3706'
p10046
(lp10047
Vnight
p10048
asS'3707'
p10049
(lp10050
Vportion
p10051
aVpastrami
p10052
asS'3704'
p10053
(lp10054
sS'3705'
p10055
(lp10056
Vplace
p10057
asS'2121'
p10058
(lp10059
Vindoor
p10060
aVindoor
p10061
asS'2120'
p10062
(lp10063
Vseating
p10064
aVlocation
p10065
asS'2123'
p10066
(lp10067
Vdeal
p10068
aVnobu
p10069
aVfeeling
p10070
ag10070
asS'2122'
p10071
(lp10072
Vportion
p10073
aVsushi
p10074
aVsizes
p10075
asS'2125'
p10076
(lp10077
Vsushi
p10078
aVlargest
p10079
asS'2124'
p10080
(lp10081
Vstaff
p10082
asS'948'
p10083
(lp10084
sS'949'
p10085
(lp10086
Vwaiter
p10087
aVdate
p10088
aVwine
p10089
aVtea
p10090
asS'946'
p10091
(lp10092
Vdesserts
p10093
aVdrinks
p10094
asS'2128'
p10095
(lp10096
Vsushi
p10097
aVservice
p10098
aVvalue
p10099
asS'944'
p10100
(lp10101
Vfriend
p10102
asS'1457'
p10103
(lp10104
Vportions
p10105
aVwife
p10106
aVprimi
p10107
asS'942'
p10108
(lp10109
Vprices
p10110
asS'943'
p10111
(lp10112
Vwine
p10113
aVchoices
p10114
asS'940'
p10115
(lp10116
Vparis
p10117
asS'941'
p10118
(lp10119
Vservice
p10120
asS'3038'
p10121
(lp10122
Vtaste
p10123
asS'2564'
p10124
(lp10125
Vfamily
p10126
aVnight
p10127
asS'1594'
p10128
(lp10129
Vfood
p10130
asS'642'
p10131
(lp10132
sS'2653'
p10133
(lp10134
Vprices
p10135
aVmenu
p10136
aVportion
p10137
aVquality
p10138
aVbit
p10139
asS'2652'
p10140
(lp10141
Vspot
p10142
aVrestaurant
p10143
aVsunglasses
p10144
ag10144
ag10144
asS'2651'
p10145
(lp10146
Vdinner
p10147
aVplace
p10148
aVpast
p10149
ag10149
ag10149
asS'2650'
p10150
(lp10151
Vdining
p10152
aVplace
p10153
aVfamily
p10154
asS'2657'
p10155
(lp10156
Vreservations
p10157
aVday
p10158
aVmemorial
p10159
aVweekend
p10160
asS'2656'
p10161
(lp10162
Vplace
p10163
asS'2655'
p10164
(lp10165
Vsalad
p10166
asS'2654'
p10167
(lp10168
sS'133'
p10169
(lp10170
Vthings
p10171
aVatmosphere
p10172
aVwaiters
p10173
asS'132'
p10174
(lp10175
Vfood
p10176
aVprice
p10177
aVservice
p10178
asS'3414'
p10179
(lp10180
Vfood
p10181
aVcity
p10182
asS'130'
p10183
(lp10184
Vservice
p10185
asS'3412'
p10186
(lp10187
Vambience
p10188
aVstaff
p10189
aVplace
p10190
aVfriend
p10191
aVtime
p10192
asS'136'
p10193
(lp10194
Vquality
p10195
aVtakeout
p10196
asS'3410'
p10197
(lp10198
Vappetizers
p10199
aVshrimp
p10200
asS'134'
p10201
(lp10202
Vfood
p10203
asS'1931'
p10204
(lp10205
Vwaiter
p10206
asS'139'
p10207
(lp10208
Vfood
p10209
aVservice
p10210
asS'138'
p10211
(lp10212
Vplace
p10213
aVtranslation
p10214
aVwong
p10215
aVprosperity
p10216
asS'3418'
p10217
(lp10218
Vdishes
p10219
aVchoices
p10220
aVnumber
p10221
ag10221
asS'3419'
p10222
(lp10223
Vcuisine
p10224
aVindian
p10225
asS'2019'
p10226
(lp10227
Vfish
p10228
aVspicy
p10229
aVboyfriend
p10230
aVeater
p10231
aVhalf
p10232
ag10232
ag10231
aVpieces
p10233
asS'2018'
p10234
(lp10235
Vappetizer
p10236
asS'2015'
p10237
(lp10238
Vdinner
p10239
aVexperience
p10240
aVboyfriend
p10241
aVartisanal
p10242
aVartisanal
p10243
asS'2017'
p10244
(lp10245
Vportions
p10246
aVhuge
p10247
asS'2016'
p10248
(lp10249
Vcheese
p10250
aVfondue
p10251
ag10251
asS'2011'
p10252
(lp10253
Vmenu
p10254
aVrestaurants
p10255
aVcourse
p10256
aVchoices
p10257
asS'2010'
p10258
(lp10259
Vweek
p10260
aVdinner
p10261
aVrestaurant
p10262
aVnight
p10263
asS'2012'
p10264
(lp10265
Vfood
p10266
aVconversation
p10267
aVtable
p10268
asS'183'
p10269
(lp10270
Vday
p10271
aVservice
p10272
asS'3562'
p10273
(lp10274
Vevening
p10275
aVfriend
p10276
aVencounter
p10277
asS'3563'
p10278
(lp10279
Vfood
p10280
aVstreet
p10281
aVblock
p10282
aVrestaurants
p10283
aVeast
p10284
asS'3561'
p10285
(lp10286
Vrestaurants
p10287
aVblock
p10288
aVyears
p10289
aVtaj
p10290
aVeateries
p10291
ag10291
ag10291
ag10291
asS'3566'
p10292
(lp10293
Vline
p10294
asS'3567'
p10295
(lp10296
Vline
p10297
asS'3564'
p10298
(lp10299
Vline
p10300
aVdeals
p10301
aVestablishment
p10302
asS'3565'
p10303
(lp10304
Vstreet
p10305
aVwindows
p10306
aVseats
p10307
asS'1590'
p10308
(lp10309
Vtime
p10310
asS'2903'
p10311
(lp10312
Vfood
p10313
aVtimes
p10314
asS'2902'
p10315
(lp10316
Vfood
p10317
aVdining
p10318
asS'2901'
p10319
(lp10320
Vcity
p10321
aVatmosphere
p10322
aVrestaurant
p10323
aVfood
p10324
aVyork
p10325
aVnew
p10326
asS'2900'
p10327
(lp10328
Vdessert
p10329
aVbeverages
p10330
asS'2907'
p10331
(lp10332
Vtable
p10333
aVproblem
p10334
aVservice
p10335
asS'709'
p10336
(lp10337
Vfood
p10338
aVprices
p10339
asS'2905'
p10340
(lp10341
Vlist
p10342
aVorder
p10343
aVwine
p10344
asS'3035'
p10345
(lp10346
Vtaste
p10347
aVrestaurant
p10348
asS'704'
p10349
(lp10350
Vprices
p10351
aVthai
p10352
aVpad
p10353
asS'705'
p10354
(lp10355
Vfood
p10356
aVportions
p10357
aVnot
p10358
asS'2909'
p10359
(lp10360
Vdessert
p10361
asS'2908'
p10362
(lp10363
Vreservations
p10364
asS'700'
p10365
(lp10366
Vprice
p10367
aVmanhattan
p10368
asS'701'
p10369
(lp10370
Vthai
p10371
asS'702'
p10372
(lp10373
Vfood
p10374
aVatmosphere
p10375
aVdrinks
p10376
asS'703'
p10377
(lp10378
Vbit
p10379
aVtimes
p10380
aVgroup
p10381
aVrestaurant
p10382
asS'89'
p10383
(lp10384
Vfood
p10385
aVwine
p10386
aVlist
p10387
aVservice
p10388
aVrestaurants
p10389
asS'1593'
p10390
(lp10391
Vfamily
p10392
aVtime
p10393
asS'82'
p10394
(lp10395
Vambience
p10396
aVwine
p10397
aVfires
p10398
asS'83'
p10399
(lp10400
Vprices
p10401
asS'80'
p10402
(lp10403
Vplace
p10404
asS'81'
p10405
(lp10406
Vwork
p10407
asS'87'
p10408
(lp10409
Vreviews
p10410
aVrestaurant
p10411
asS'84'
p10412
(lp10413
Vdate
p10414
asS'85'
p10415
(lp10416
Vchocolate
p10417
asS'1743'
p10418
(lp10419
Vcheese
p10420
aVpizza
p10421
aVmozzarella
p10422
aVpizzaria
p10423
asS'1659'
p10424
(lp10425
Vnigiri
p10426
asS'1652'
p10427
(lp10428
Vprices
p10429
aVatmosphere
p10430
aVplace
p10431
aVservice
p10432
asS'1653'
p10433
(lp10434
sS'1650'
p10435
(lp10436
Vsushi
p10437
aVdraw
p10438
asS'1651'
p10439
(lp10440
Vplate
p10441
aVcatch
p10442
aVpig
p10443
asS'1656'
p10444
(lp10445
Vtuna
p10446
aVspicy
p10447
aVsalmon
p10448
asS'1654'
p10449
(lp10450
Vnew
p10451
asS'1655'
p10452
(lp10453
Vsushi
p10454
aVplace
p10455
asS'586'
p10456
(lp10457
Vrao
p10458
asS'3214'
p10459
(lp10460
Vlocations
p10461
asS'584'
p10462
(lp10463
Vnyc
p10464
aVatmosphere
p10465
aVservice
p10466
asS'585'
p10467
(lp10468
Vtable
p10469
aVluck
p10470
asS'582'
p10471
(lp10472
Vtimes
p10473
aVyears
p10474
asS'583'
p10475
(lp10476
sS'580'
p10477
(lp10478
Vchocolate
p10479
aVcake
p10480
asS'581'
p10481
(lp10482
sS'3216'
p10483
(lp10484
Vfish
p10485
aVrice
p10486
asS'588'
p10487
(lp10488
Vfood
p10489
aVservice
p10490
aVexperience
p10491
asS'589'
p10492
(lp10493
Vscene
p10494
asS'3150'
p10495
(lp10496
Vfood
p10497
aVnothing
p10498
asS'3157'
p10499
(lp10500
Vbagel
p10501
aVcheese
p10502
aVeverything
p10503
aVcream
p10504
aVwheat
p10505
asS'3156'
p10506
(lp10507
Vtables
p10508
asS'3155'
p10509
(lp10510
Vservice
p10511
aVweekends
p10512
ag10512
asS'3154'
p10513
(lp10514
Vbagel
p10515
asS'1982'
p10516
(lp10517
sS'2835'
p10518
(lp10519
Vplace
p10520
aVgroup
p10521
aVservice
p10522
asS'2834'
p10523
(lp10524
sS'2833'
p10525
(lp10526
Vsummer
p10527
aVpatio
p10528
asS'2832'
p10529
(lp10530
Vfood
p10531
aVservice
p10532
aVfilling
p10533
asS'2831'
p10534
(lp10535
Vdining
p10536
aVroom
p10537
aVworld
p10538
aVceiling
p10539
ag10539
aVoutside
p10540
asS'2830'
p10541
(lp10542
sS'1436'
p10543
(lp10544
Vmenu
p10545
aVfish
p10546
aVspicy
p10547
aVchicken
p10548
aVbean
p10549
asS'1437'
p10550
(lp10551
Vspicy
p10552
asS'3393'
p10553
(lp10554
Vfood
p10555
aVnyc
p10556
aVthai
p10557
aVplaces
p10558
aVpeople
p10559
asS'1435'
p10560
(lp10561
Vlamb
p10562
aVfood
p10563
aVfish
p10564
aVchicken
p10565
aVquality
p10566
aVprice
p10567
asS'1432'
p10568
(lp10569
Vnyc
p10570
aVrestaurant
p10571
aVgrand
p10572
aVgrand
p10573
asS'1433'
p10574
(lp10575
Vchef
p10576
aVchinatown
p10577
aVsichuan
p10578
asS'1430'
p10579
(lp10580
Vfood
p10581
aVplace
p10582
aVchinatown
p10583
aVvalue
p10584
aVrestaurants
p10585
asS'3396'
p10586
(lp10587
Veverything
p10588
asS'418'
p10589
(lp10590
Vfood
p10591
aVminutes
p10592
asS'3213'
p10593
(lp10594
Vluxury
p10595
asS'1438'
p10596
(lp10597
Vfood
p10598
aVplace
p10599
aVsauce
p10600
asS'1439'
p10601
(lp10602
Vfood
p10603
aVmenu
p10604
aVamerican
p10605
aVchinese
p10606
asS'1349'
p10607
(lp10608
Vfun
p10609
aVevening
p10610
aVfriends
p10611
asS'458'
p10612
(lp10613
Vfamily
p10614
aVrestaurant
p10615
asS'459'
p10616
(lp10617
Veverything
p10618
aVingredients
p10619
asS'1340'
p10620
(lp10621
Vnothing
p10622
aVdecor
p10623
asS'451'
p10624
(lp10625
Vmeal
p10626
aVslice
p10627
ag10627
asS'452'
p10628
(lp10629
Vwaiters
p10630
asS'1343'
p10631
(lp10632
Vfish
p10633
aVoil
p10634
asS'454'
p10635
(lp10636
Vfavorite
p10637
asS'1345'
p10638
(lp10639
Vsauce
p10640
aVtexture
p10641
aVseasoning
p10642
asS'1346'
p10643
(lp10644
Vlunch
p10645
aVdinner
p10646
aVingredients
p10647
asS'457'
p10648
(lp10649
Vdinner
p10650
asS'3702'
p10651
(lp10652
Vcheese
p10653
aVexistant
p10654
asS'1082'
p10655
(lp10656
Vmenu
p10657
aVchalk
p10658
aVsounds
p10659
asS'1885'
p10660
(lp10661
Vfood
p10662
asS'766'
p10663
(lp10664
Vsum
p10665
asS'517'
p10666
(lp10667
Vmenu
p10668
aVwine
p10669
asS'3701'
p10670
(lp10671
Vvariety
p10672
aVomelletes
p10673
ag10673
ag10673
asS'3368'
p10674
(lp10675
Vmint
p10676
asS'1883'
p10677
(lp10678
sS'832'
p10679
(lp10680
Vfood
p10681
aVgrand
p10682
asS'1882'
p10683
(lp10684
Vgroup
p10685
aVkinda
p10686
asS'656'
p10687
(lp10688
Vanyone
p10689
asS'657'
p10690
(lp10691
Vwait
p10692
asS'654'
p10693
(lp10694
Varea
p10695
aVrestaurant
p10696
aVbest
p10697
asS'655'
p10698
(lp10699
Vtaste
p10700
aVfood
p10701
aVyears
p10702
aVrestaurant
p10703
asS'652'
p10704
(lp10705
Vmoney
p10706
asS'1507'
p10707
(lp10708
sS'650'
p10709
(lp10710
Vrestaurants
p10711
aVqueens
p10712
asS'651'
p10713
(lp10714
Vshrimp
p10715
aVscampi
p10716
aVantipasti
p10717
asS'3085'
p10718
(lp10719
Vplace
p10720
aVbar
p10721
aVjoints
p10722
asS'3084'
p10723
(lp10724
Vfood
p10725
aVappetizers
p10726
aVbombay
p10727
aVchaat
p10728
asS'3087'
p10729
(lp10730
Vthing
p10731
aVdrinks
p10732
aVyork
p10733
aVnew
p10734
aVpeople
p10735
asS'3086'
p10736
(lp10737
Vplace
p10738
aVlot
p10739
aVdrinks
p10740
asS'3081'
p10741
(lp10742
Vlamb
p10743
aVanything
p10744
aVshrimp
p10745
asS'3080'
p10746
(lp10747
Vfood
p10748
aVflavoring
p10749
ag10749
asS'3083'
p10750
(lp10751
Vfood
p10752
aVstaff
p10753
aVwait
p10754
asS'3082'
p10755
(lp10756
Vchance
p10757
aVrestaurant
p10758
asS'1886'
p10759
(lp10760
Vservice
p10761
asS'314'
p10762
(lp10763
Vcity
p10764
aVquality
p10765
aVhour
p10766
aVoysters
p10767
asS'1992'
p10768
(lp10769
Veverything
p10770
aVtable
p10771
aViron
p10772
asS'2127'
p10773
(lp10774
Vmenu
p10775
aVrolls
p10776
aVdishes
p10777
aVterrific
p10778
asS'2126'
p10779
(lp10780
Vprices
p10781
aVservice
p10782
asS'2129'
p10783
(lp10784
Vsushi
p10785
asS'947'
p10786
(lp10787
Vchat
p10788
ag10788
ag10788
asS'945'
p10789
(lp10790
Vtables
p10791
aVservice
p10792
aVchairs
p10793
ag10793
ag10793
asS'54'
p10794
(lp10795
Vday
p10796
aVway
p10797
asS'188'
p10798
(lp10799
Vservice
p10800
aVfood
p10801
aVpart
p10802
aVlot
p10803
aVtime
p10804
aVquality
p10805
asS'1081'
p10806
(lp10807
Vmeal
p10808
aVcomplaint
p10809
aVcost
p10810
asS'322'
p10811
(lp10812
sS'323'
p10813
(lp10814
Vspecials
p10815
aVmenu
p10816
aVsea
p10817
aVoutside
p10818
asS'321'
p10819
(lp10820
Vthings
p10821
aVplace
p10822
asS'327'
p10823
(lp10824
Vrestaurant
p10825
aVwork
p10826
aVpeople
p10827
aVidea
p10828
aVneed
p10829
ag10829
asS'324'
p10830
(lp10831
Vspecials
p10832
aVquestions
p10833
ag10833
asS'328'
p10834
(lp10835
Vfish
p10836
aVplace
p10837
aVday
p10838
aVtrip
p10839
asS'329'
p10840
(lp10841
Vprice
p10842
aVservice
p10843
aVoysters
p10844
asS'3629'
p10845
(lp10846
Vpizza
p10847
asS'3628'
p10848
(lp10849
Vtrip
p10850
asS'3621'
p10851
(lp10852
Vfood
p10853
aVdiamond
p10854
aVhomemade
p10855
aVbalance
p10856
asS'564'
p10857
(lp10858
Vtable
p10859
asS'3623'
p10860
(lp10861
Vny
p10862
aVplaces
p10863
asS'3622'
p10864
(lp10865
sS'3625'
p10866
(lp10867
Vfood
p10868
aVpeople
p10869
asS'3624'
p10870
(lp10871
sS'3627'
p10872
(lp10873
Vneighborhood
p10874
asS'3626'
p10875
(lp10876
Vnyc
p10877
aVpeople
p10878
aVplace
p10879
aVpizza
p10880
aVcharts
p10881
asS'1881'
p10882
(lp10883
sS'2330'
p10884
(lp10885
Vfamily
p10886
asS'3070'
p10887
(lp10888
sS'2332'
p10889
(lp10890
Vfood
p10891
aVprices
p10892
asS'2333'
p10893
(lp10894
Vside
p10895
aVrestaurant
p10896
aVdakshin
p10897
asS'2334'
p10898
(lp10899
Vprices
p10900
aVmenu
p10901
aVdinner
p10902
asS'2335'
p10903
(lp10904
Vprices
p10905
aVchicken
p10906
aVmarsala
p10907
asS'2336'
p10908
(lp10909
Vambiance
p10910
aVmanagement
p10911
asS'2337'
p10912
(lp10913
Vlunch
p10914
aVfixe
p10915
asS'2338'
p10916
(lp10917
sS'1341'
p10918
(lp10919
Vservice
p10920
asS'3072'
p10921
(lp10922
Vservice
p10923
asS'2537'
p10924
(lp10925
Vfood
p10926
aVambiance
p10927
aVengine
p10928
asS'3073'
p10929
(lp10930
Vfood
p10931
aVworld
p10932
asS'1880'
p10933
(lp10934
Vstreet
p10935
aVplace
p10936
aVexperience
p10937
aVpeople
p10938
asS'1591'
p10939
(lp10940
sS'2959'
p10941
(lp10942
Vseating
p10943
aVgarden
p10944
ag10944
aVsummer
p10945
ag10945
asS'3710'
p10946
(lp10947
Vprice
p10948
aVdeli
p10949
asS'3077'
p10950
(lp10951
Vsurprise
p10952
asS'3078'
p10953
(lp10954
sS'3079'
p10955
(lp10956
Vnyc
p10957
aVplace
p10958
aVrestaurants
p10959
asS'2488'
p10960
(lp10961
Vgroup
p10962
aVnight
p10963
aVbar
p10964
aVsaturday
p10965
aVbread
p10966
asS'2486'
p10967
(lp10968
Vconversation
p10969
asS'2487'
p10970
(lp10971
Vmeal
p10972
aVdishes
p10973
aVrestaurants
p10974
aVlexington
p10975
asS'2484'
p10976
(lp10977
Vweek
p10978
aVvisit
p10979
aVchristmas
p10980
asS'2485'
p10981
(lp10982
Vdish
p10983
aVmenu
p10984
aVflavor
p10985
aVrice
p10986
aVportions
p10987
asS'2482'
p10988
(lp10989
Vchicken
p10990
asS'2483'
p10991
(lp10992
Vmeal
p10993
aVprix
p10994
aVfixe
p10995
asS'2248'
p10996
(lp10997
Vrecommendation
p10998
asS'2249'
p10999
(lp11000
Vfood
p11001
aVquality
p11002
aVvillage
p11003
aVfan
p11004
aVeast
p11005
asS'2244'
p11006
(lp11007
Vthai
p11008
aVnoodles
p11009
aVchicken
p11010
aVshrimp
p11011
asS'2245'
p11012
(lp11013
Vservice
p11014
asS'2246'
p11015
(lp11016
Vsuan
p11017
asS'2247'
p11018
(lp11019
Voutside
p11020
aVfeature
p11021
asS'2240'
p11022
(lp11023
Vfood
p11024
aVsauce
p11025
aVservice
p11026
asS'2241'
p11027
(lp11028
Vneighborhood
p11029
aVstop
p11030
ag11030
asS'2242'
p11031
(lp11032
Vfriends
p11033
aVplace
p11034
asS'2243'
p11035
(lp11036
Vprices
p11037
aVlocation
p11038
aVfact
p11039
aVcollege
p11040
aVstudents
p11041
aVsuan
p11042
asS'2464'
p11043
(lp11044
Vspecial
p11045
aVaffordable
p11046
asS'994'
p11047
(lp11048
Vprices
p11049
asS'2466'
p11050
(lp11051
Vplace
p11052
aVnight
p11053
asS'2467'
p11054
(lp11055
Vfood
p11056
aVwine
p11057
asS'2460'
p11058
(lp11059
Vrestaurant
p11060
asS'990'
p11061
(lp11062
sS'993'
p11063
(lp11064
Vsetting
p11065
ag11065
asS'2463'
p11066
(lp11067
Vmodern
p11068
aVcozy
p11069
asS'999'
p11070
(lp11071
Vstreet
p11072
asS'998'
p11073
(lp11074
Vrestaurant
p11075
aVlawns
p11076
ag11076
asS'120'
p11077
(lp11078
Vworld
p11079
aVschool
p11080
asS'121'
p11081
(lp11082
sS'122'
p11083
(lp11084
sS'123'
p11085
(lp11086
sS'3405'
p11087
(lp11088
Vfood
p11089
aVtouch
p11090
ag11090
asS'3404'
p11091
(lp11092
Vfood
p11093
aVplace
p11094
asS'126'
p11095
(lp11096
Vseating
p11097
aVpeople
p11098
asS'127'
p11099
(lp11100
Vdishes
p11101
aVnoodle
p11102
asS'3409'
p11103
(lp11104
Vcuisine
p11105
aVplace
p11106
aVnight
p11107
asS'3408'
p11108
(lp11109
Vrestaurants
p11110
asS'1020'
p11111
(lp11112
sS'3379'
p11113
(lp11114
Vfood
p11115
aVplace
p11116
aVmanhattan
p11117
aVupper
p11118
aVupper
p11119
aVsquare
p11120
asS'3417'
p11121
(lp11122
Vmenu
p11123
aVrestaurant
p11124
aVfurniture
p11125
ag11125
aVtiffin
p11126
asS'1921'
p11127
(lp11128
Vfood
p11129
aVstaff
p11130
aVheights
p11131
asS'3378'
p11132
(lp11133
Vwaiter
p11134
aVlook
p11135
ag11135
asS'131'
p11136
(lp11137
Vwong
p11138
aVwong
p11139
aVestablishment
p11140
asS'2068'
p11141
(lp11142
Vplace
p11143
asS'2069'
p11144
(lp11145
sS'2798'
p11146
(lp11147
sS'2799'
p11148
(lp11149
Vprices
p11150
asS'1187'
p11151
(lp11152
sS'2792'
p11153
(lp11154
Vdissapointment
p11155
asS'2061'
p11156
(lp11157
sS'2062'
p11158
(lp11159
Vlunch
p11160
aVtamarind
p11161
asS'2791'
p11162
(lp11163
Vpasta
p11164
aVseafood
p11165
aVspecial
p11166
ag11166
asS'2064'
p11167
(lp11168
Vvegetable
p11169
asS'2797'
p11170
(lp11171
Vfood
p11172
aVplace
p11173
aVcomfort
p11174
ag11174
ag11174
asS'2066'
p11175
(lp11176
Vdishes
p11177
aVselections
p11178
asS'2795'
p11179
(lp11180
Vrange
p11181
asS'1185'
p11182
(lp11183
Vlunch
p11184
aVdinner
p11185
aVplace
p11186
asS'135'
p11187
(lp11188
Vprice
p11189
aVrice
p11190
aVnoodles
p11191
aVdishes
p11192
asS'1182'
p11193
(lp11194
Vdumplings
p11195
aVfood
p11196
aVprice
p11197
asS'3411'
p11198
(lp11199
Veverything
p11200
aVfriend
p11201
asS'1183'
p11202
(lp11203
Vsoup
p11204
asS'3371'
p11205
(lp11206
Vpasta
p11207
aVnew
p11208
aVrestaurants
p11209
aVyork
p11210
aVpizza
p11211
asS'1181'
p11212
(lp11213
Vkind
p11214
aVdoor
p11215
aVfood
p11216
aVplace
p11217
aVline
p11218
aVboyfriend
p11219
asS'3579'
p11220
(lp11221
Vpiece
p11222
aVpastries
p11223
ag11223
ag11223
asS'3578'
p11224
(lp11225
Vfood
p11226
aVplace
p11227
aVservice
p11228
aVpeople
p11229
asS'3575'
p11230
(lp11231
Vwaiter
p11232
aVcouple
p11233
aVdoor
p11234
asS'3574'
p11235
(lp11236
Vtable
p11237
aVhour
p11238
aVtotal
p11239
asS'3577'
p11240
(lp11241
sS'3576'
p11242
(lp11243
Vfriends
p11244
asS'3571'
p11245
(lp11246
Vfood
p11247
aVservice
p11248
aVvow
p11249
asS'3570'
p11250
(lp11251
Vpeople
p11252
aVtip
p11253
asS'3573'
p11254
(lp11255
Vpeople
p11256
asS'3572'
p11257
(lp11258
Vwaiter
p11259
aVmoney
p11260
aVguys
p11261
asS'2666'
p11262
(lp11263
Vprice
p11264
aVexperience
p11265
asS'2667'
p11266
(lp11267
Vdessert
p11268
aVservice
p11269
asS'2664'
p11270
(lp11271
Vpractice
p11272
ag11272
ag11272
ag11272
asS'2665'
p11273
(lp11274
Vplace
p11275
asS'2662'
p11276
(lp11277
sS'2663'
p11278
(lp11279
Vweek
p11280
aVreservation
p11281
aVplace
p11282
aVnyc
p11283
asS'722'
p11284
(lp11285
Vambience
p11286
asS'2668'
p11287
(lp11288
Vwaiter
p11289
aVwater
p11290
asS'2669'
p11291
(lp11292
Vchance
p11293
aVvisit
p11294
asS'3668'
p11295
(lp11296
Vchicken
p11297
aVpresentation
p11298
asS'2938'
p11299
(lp11300
Vtable
p11301
aVdoor
p11302
aVservice
p11303
aVserver
p11304
asS'2939'
p11305
(lp11306
Vfood
p11307
aVquality
p11308
aVrestaurants
p11309
asS'2936'
p11310
(lp11311
Vtaste
p11312
aVscents
p11313
aVright
p11314
asS'2937'
p11315
(lp11316
Vreservation
p11317
aVnight
p11318
asS'2934'
p11319
(lp11320
sS'2935'
p11321
(lp11322
Vplace
p11323
aVside
p11324
aVnight
p11325
asS'2932'
p11326
(lp11327
Vwaiter
p11328
aVspecials
p11329
asS'2933'
p11330
(lp11331
Vspecials
p11332
aVdecision
p11333
asS'2930'
p11334
(lp11335
Vreservation
p11336
aVcouple
p11337
aVplace
p11338
aVexpectations
p11339
aVoccasion
p11340
asS'2931'
p11341
(lp11342
Vfood
p11343
aVbit
p11344
asS'3595'
p11345
(lp11346
Vfood
p11347
asS'1645'
p11348
(lp11349
Vsushi
p11350
aVquality
p11351
aVfriend
p11352
aVplaces
p11353
asS'1644'
p11354
(lp11355
Vdeal
p11356
asS'1647'
p11357
(lp11358
Vweek
p11359
aVeverything
p11360
asS'1646'
p11361
(lp11362
Vspicy
p11363
aVrolls
p11364
aVfried
p11365
asS'1641'
p11366
(lp11367
Vtown
p11368
aVtuna
p11369
aVspicy
p11370
aVeveryone
p11371
aVrolls
p11372
asS'1640'
p11373
(lp11374
Vhours
p11375
ag11375
asS'1643'
p11376
(lp11377
Vmenu
p11378
aVrice
p11379
aVrolls
p11380
aVavocado
p11381
asS'1642'
p11382
(lp11383
Vproblem
p11384
aVyears
p11385
aVstaff
p11386
asS'1649'
p11387
(lp11388
Vcuisine
p11389
aVsushi
p11390
aVplace
p11391
aVmenu
p11392
asS'1648'
p11393
(lp11394
Vrestuarant
p11395
ag11395
ag11395
ag11395
ag11395
ag11395
asS'1742'
p11396
(lp11397
Vblock
p11398
asS'729'
p11399
(lp11400
Vprices
p11401
aVatmosphere
p11402
asS'579'
p11403
(lp11404
Vpasta
p11405
aVdish
p11406
asS'604'
p11407
(lp11408
Vbeer
p11409
aVselection
p11410
asS'573'
p11411
(lp11412
Vservice
p11413
aVwine
p11414
asS'572'
p11415
(lp11416
Vravioli
p11417
asS'571'
p11418
(lp11419
Vbirthday
p11420
aVtime
p11421
asS'570'
p11422
(lp11423
sS'576'
p11424
(lp11425
Vfriend
p11426
asS'575'
p11427
(lp11428
Vparty
p11429
aVnoise
p11430
asS'574'
p11431
(lp11432
Vprices
p11433
asS'2808'
p11434
(lp11435
Vfood
p11436
aVspecials
p11437
aVwaitstaff
p11438
asS'2809'
p11439
(lp11440
Vplace
p11441
asS'3168'
p11442
(lp11443
Vbagel
p11444
aVway
p11445
aVcorner
p11446
asS'3169'
p11447
(lp11448
Vbagel
p11449
aVplace
p11450
asS'2802'
p11451
(lp11452
Vdinner
p11453
asS'2803'
p11454
(lp11455
Vyokocho
p11456
aVyokocho
p11457
asS'2800'
p11458
(lp11459
sS'2801'
p11460
(lp11461
Vsake
p11462
aVportion
p11463
aVdishes
p11464
aVstyle
p11465
asS'2806'
p11466
(lp11467
Vyears
p11468
aVplace
p11469
aVarea
p11470
aVtristate
p11471
aVtristate
p11472
asS'2807'
p11473
(lp11474
Vplace
p11475
asS'2804'
p11476
(lp11477
Vnyc
p11478
aVfried
p11479
aVskewers
p11480
asS'3161'
p11481
(lp11482
Vtaste
p11483
aVbagels
p11484
aVtexture
p11485
asS'1421'
p11486
(lp11487
Vrestaurant
p11488
asS'2154'
p11489
(lp11490
Vbagels
p11491
asS'1997'
p11492
(lp11493
Vhome
p11494
asS'1425'
p11495
(lp11496
Vcity
p11497
aVpeople
p11498
aVhot
p11499
asS'3369'
p11500
(lp11501
Vspot
p11502
aVwilliamsburg
p11503
asS'1426'
p11504
(lp11505
sS'1429'
p11506
(lp11507
Vfood
p11508
aVflavor
p11509
aVsauce
p11510
asS'1428'
p11511
(lp11512
Vreviews
p11513
aVlunch
p11514
asS'3366'
p11515
(lp11516
Vfood
p11517
aVpizza
p11518
aVpastas
p11519
ag11519
asS'3367'
p11520
(lp11521
Vowner
p11522
aVservice
p11523
aVbest
p11524
aVvibe
p11525
asS'3360'
p11526
(lp11527
Vchoices
p11528
aVcreation
p11529
asS'2404'
p11530
(lp11531
Vplace
p11532
aVplayfull
p11533
asS'3362'
p11534
(lp11535
Vowner
p11536
aVpart
p11537
aVfamily
p11538
asS'3363'
p11539
(lp11540
Vmonth
p11541
asS'731'
p11542
(lp11543
Vtaste
p11544
aVsalad
p11545
aVexperience
p11546
asS'730'
p11547
(lp11548
Vfood
p11549
asS'733'
p11550
(lp11551
Vtown
p11552
aVlunch
p11553
aVpart
p11554
aVplace
p11555
aVvalue
p11556
asS'2157'
p11557
(lp11558
Vny
p11559
aVbagels
p11560
asS'737'
p11561
(lp11562
Vmoney
p11563
aVrestaurant
p11564
aVtime
p11565
asS'736'
p11566
(lp11567
Vfood
p11568
aVplace
p11569
aVstop
p11570
ag11570
asS'739'
p11571
(lp11572
Vfood
p11573
aVwaiter
p11574
aVmeal
p11575
aVwine
p11576
asS'738'
p11577
(lp11578
Vfood
p11579
aVservice
p11580
aVexperience
p11581
asS'2151'
p11582
(lp11583
Vhome
p11584
asS'1358'
p11585
(lp11586
Vprice
p11587
aVnoodles
p11588
aVrolls
p11589
aVspring
p11590
asS'469'
p11591
(lp11592
Vreviews
p11593
aVhusband
p11594
asS'468'
p11595
(lp11596
Vneighborhood
p11597
aVkind
p11598
aVplace
p11599
aVrestaurant
p11600
asS'1353'
p11601
(lp11602
Vfood
p11603
aVbit
p11604
aVthai
p11605
aVservice
p11606
aVnolita
p11607
asS'1352'
p11608
(lp11609
Vchef
p11610
aVhats
p11611
asS'467'
p11612
(lp11613
Vtown
p11614
aVrestaurant
p11615
asS'466'
p11616
(lp11617
Vbit
p11618
aVdishes
p11619
aVkitchen
p11620
aVsalads
p11621
aVmix
p11622
aVpiping
p11623
asS'461'
p11624
(lp11625
Vmeal
p11626
aVstaff
p11627
asS'1356'
p11628
(lp11629
Vmodeling
p11630
asS'1355'
p11631
(lp11632
Vdrinks
p11633
asS'608'
p11634
(lp11635
Vyears
p11636
asS'1273'
p11637
(lp11638
Vfact
p11639
aVpizza
p11640
aVtastes
p11641
ag11641
asS'937'
p11642
(lp11643
Vfood
p11644
aVprices
p11645
aVquality
p11646
aVservice
p11647
asS'936'
p11648
(lp11649
Vglasses
p11650
asS'1519'
p11651
(lp11652
Vbar
p11653
aVstaff
p11654
asS'1518'
p11655
(lp11656
Vbartender
p11657
aVfood
p11658
aVplace
p11659
aVbar
p11660
aVsteak
p11661
aVdrinks
p11662
asS'1514'
p11663
(lp11664
Vhome
p11665
aVthings
p11666
aVbar
p11667
aVworld
p11668
asS'1517'
p11669
(lp11670
Vevening
p11671
aVplace
p11672
aVtime
p11673
aVarea
p11674
asS'934'
p11675
(lp11676
Vlamb
p11677
asS'1274'
p11678
(lp11679
Vslice
p11680
ag11680
asS'1510'
p11681
(lp11682
Vdeal
p11683
asS'1004'
p11684
(lp11685
Vcity
p11686
aVtrip
p11687
asS'3184'
p11688
(lp11689
Vfood
p11690
aVthai
p11691
asS'3185'
p11692
(lp11693
Vtime
p11694
aVmeal
p11695
aVlocation
p11696
asS'3186'
p11697
(lp11698
Vstaff
p11699
asS'3187'
p11700
(lp11701
sS'3180'
p11702
(lp11703
Vmoney
p11704
aVconcern
p11705
asS'3181'
p11706
(lp11707
sS'3182'
p11708
(lp11709
sS'3183'
p11710
(lp11711
Vcuisine
p11712
aVtimes
p11713
asS'3188'
p11714
(lp11715
Vlunch
p11716
asS'3189'
p11717
(lp11718
Vfood
p11719
aVambience
p11720
aVlocation
p11721
asS'3397'
p11722
(lp11723
Vbit
p11724
aVinwood
p11725
asS'355'
p11726
(lp11727
Vpizza
p11728
asS'353'
p11729
(lp11730
Vmargarita
p11731
asS'352'
p11732
(lp11733
Vpizza
p11734
asS'351'
p11735
(lp11736
Vroll
p11737
asS'350'
p11738
(lp11739
Vapppetizers
p11740
asS'359'
p11741
(lp11742
Vtable
p11743
aVpizza
p11744
aVsort
p11745
asS'3107'
p11746
(lp11747
Vtable
p11748
asS'3612'
p11749
(lp11750
Vhome
p11751
asS'2298'
p11752
(lp11753
Vingredients
p11754
aVstaff
p11755
asS'2323'
p11756
(lp11757
Vlunch
p11758
aVbuffet
p11759
asS'2322'
p11760
(lp11761
sS'2321'
p11762
(lp11763
Vconversation
p11764
aVplace
p11765
asS'2793'
p11766
(lp11767
Vnothing
p11768
asS'2325'
p11769
(lp11770
Vselection
p11771
aVdishes
p11772
asS'2324'
p11773
(lp11774
Vweekends
p11775
ag11775
asS'2329'
p11776
(lp11777
Vowner
p11778
asS'2328'
p11779
(lp11780
Vfood
p11781
aVservice
p11782
asS'289'
p11783
(lp11784
Vreview
p11785
aVexperience
p11786
aVsunday
p11787
asS'288'
p11788
(lp11789
Vneighborhood
p11790
asS'280'
p11791
(lp11792
Vfood
p11793
aVservice
p11794
asS'282'
p11795
(lp11796
Vtable
p11797
aVplace
p11798
aVthing
p11799
aVguests
p11800
asS'285'
p11801
(lp11802
Vportions
p11803
aVservice
p11804
aVrestaurant
p11805
aVsauces
p11806
asS'284'
p11807
(lp11808
Vquality
p11809
aVvalue
p11810
asS'287'
p11811
(lp11812
Vdish
p11813
aVtuna
p11814
asS'1441'
p11815
(lp11816
Vcouple
p11817
aVseafood
p11818
aVshrimp
p11819
aVpot
p11820
aVimitation
p11821
asS'1440'
p11822
(lp11823
Vnothing
p11824
aVsoup
p11825
aVpepper
p11826
asS'263'
p11827
(lp11828
Vrestaurant
p11829
asS'262'
p11830
(lp11831
Vrestaurant
p11832
asS'261'
p11833
(lp11834
Vchoices
p11835
asS'260'
p11836
(lp11837
Vdish
p11838
aVmignon
p11839
asS'267'
p11840
(lp11841
Vbar
p11842
aVbeers
p11843
asS'266'
p11844
(lp11845
Vstaff
p11846
asS'265'
p11847
(lp11848
sS'264'
p11849
(lp11850
Vfood
p11851
aVcombinations
p11852
asS'269'
p11853
(lp11854
Vfriends
p11855
aVgem
p11856
asS'268'
p11857
(lp11858
Vrestaurants
p11859
asS'1562'
p11860
(lp11861
Vplace
p11862
aVbargain
p11863
asS'2499'
p11864
(lp11865
sS'2498'
p11866
(lp11867
Vprice
p11868
aVneighborhood
p11869
aVmeal
p11870
asS'2491'
p11871
(lp11872
Vfood
p11873
aVservice
p11874
aVdrinks
p11875
asS'1296'
p11876
(lp11877
Vprices
p11878
aVtime
p11879
asS'2493'
p11880
(lp11881
Vexperience
p11882
asS'2492'
p11883
(lp11884
Vlamb
p11885
aVchicken
p11886
aVsteak
p11887
aVsandwhich
p11888
asS'2495'
p11889
(lp11890
Vfood
p11891
aVthai
p11892
aVplace
p11893
aVlot
p11894
aVpretension
p11895
asS'2494'
p11896
(lp11897
Vneighborhood
p11898
aVthai
p11899
aVplace
p11900
asS'2497'
p11901
(lp11902
Vthai
p11903
aVpad
p11904
asS'2496'
p11905
(lp11906
Vflavor
p11907
aVspicy
p11908
aVmasaman
p11909
ag11909
asS'2193'
p11910
(lp11911
Vthai
p11912
asS'1566'
p11913
(lp11914
Vfood
p11915
asS'2259'
p11916
(lp11917
Vsake
p11918
aVbar
p11919
aVdoor
p11920
aVrestaurant
p11921
aVharu
p11922
asS'2258'
p11923
(lp11924
sS'2257'
p11925
(lp11926
sS'2256'
p11927
(lp11928
Vsake
p11929
aVsomething
p11930
aVside
p11931
asS'2254'
p11932
(lp11933
Vseating
p11934
aVcrowd
p11935
ag11935
aVhip
p11936
asS'2253'
p11937
(lp11938
Vcurry
p11939
asS'2252'
p11940
(lp11941
Vpalates
p11942
ag11942
ag11942
ag11942
asS'2251'
p11943
(lp11944
Vcuisine
p11945
aVeastsider
p11946
ag11946
ag11946
asS'2250'
p11947
(lp11948
sS'2477'
p11949
(lp11950
Vdinner
p11951
asS'988'
p11952
(lp11953
Vfood
p11954
asS'3224'
p11955
(lp11956
Vmenu
p11957
aVeverything
p11958
asS'2473'
p11959
(lp11960
sS'2472'
p11961
(lp11962
sS'2471'
p11963
(lp11964
Vthing
p11965
aVprice
p11966
aVwaitress
p11967
aVglass
p11968
asS'982'
p11969
(lp11970
Vmenu
p11971
aVchicken
p11972
aVbeef
p11973
aVkicker
p11974
aVgrass
p11975
asS'983'
p11976
(lp11977
Vlunch
p11978
aVdinner
p11979
aVfilling
p11980
asS'980'
p11981
(lp11982
sS'981'
p11983
(lp11984
Vstaff
p11985
aVdecor
p11986
aVwait
p11987
aVrestaurants
p11988
aVlack
p11989
aVmeals
p11990
asS'986'
p11991
(lp11992
Vgermain
p11993
aVsongs
p11994
aVsabbath
p11995
asS'987'
p11996
(lp11997
Vpark
p11998
asS'984'
p11999
(lp12000
Vbeef
p12001
aVtimes
p12002
aVnha
p12003
aVcubes
p12004
asS'985'
p12005
(lp12006
Vselection
p12007
aVmusic
p12008
aVattention
p12009
asS'115'
p12010
(lp12011
sS'1790'
p12012
(lp12013
Vnew
p12014
aVyork
p12015
aVrestaurant
p12016
asS'116'
p12017
(lp12018
Vfood
p12019
aVprices
p12020
aVwine
p12021
aVyears
p12022
aVsecret
p12023
asS'110'
p12024
(lp12025
Vlist
p12026
aVwine
p12027
aVwines
p12028
asS'119'
p12029
(lp12030
Vroom
p12031
aVsecret
p12032
asS'3432'
p12033
(lp12034
Vbill
p12035
aVappetizer
p12036
asS'2785'
p12037
(lp12038
Vstaff
p12039
asS'2784'
p12040
(lp12041
Vcity
p12042
aVpastas
p12043
aVlasagna
p12044
asS'2787'
p12045
(lp12046
Vappetizer
p12047
asS'2786'
p12048
(lp12049
Vdate
p12050
aVlunch
p12051
aVplace
p12052
asS'2781'
p12053
(lp12054
Vpasta
p12055
asS'2780'
p12056
(lp12057
Vhost
p12058
asS'2783'
p12059
(lp12060
Vlunch
p12061
aVdinner
p12062
aVplace
p12063
asS'2782'
p12064
(lp12065
Vfood
p12066
aVaverage
p12067
ag12067
aVdinners
p12068
asS'2789'
p12069
(lp12070
Veveryone
p12071
aVfriend
p12072
asS'2788'
p12073
(lp12074
sS'2079'
p12075
(lp12076
Vfood
p12077
aVplace
p12078
aVstaff
p12079
asS'2078'
p12080
(lp12081
Vlunch
p12082
aVrestaurant
p12083
aVtime
p12084
asS'2072'
p12085
(lp12086
sS'2071'
p12087
(lp12088
sS'2070'
p12089
(lp12090
Vfood
p12091
asS'2077'
p12092
(lp12093
Vbreads
p12094
asS'2076'
p12095
(lp12096
Vlamb
p12097
aVspicy
p12098
aVprice
p12099
aVvalue
p12100
aVappetizer
p12101
aVworld
p12102
aVshrimp
p12103
aVvindaloo
p12104
asS'2075'
p12105
(lp12106
Vreviews
p12107
aVtimes
p12108
asS'1388'
p12109
(lp12110
Vplace
p12111
aVmonths
p12112
ag12112
ag12112
aVsecret
p12113
ag12113
asS'1796'
p12114
(lp12115
Vguys
p12116
asS'3508'
p12117
(lp12118
Vlist
p12119
aVwine
p12120
asS'3504'
p12121
(lp12122
Vchef
p12123
aVhome
p12124
aVeating
p12125
aVeating
p12126
asS'3505'
p12127
(lp12128
Vpizza
p12129
aVneapolitan
p12130
aVbrick
p12131
asS'3506'
p12132
(lp12133
Vcuisine
p12134
aVvisit
p12135
aVyears
p12136
aVsalvatore
p12137
aVneapolitan
p12138
asS'3507'
p12139
(lp12140
Vatmosphere
p12141
aVwife
p12142
asS'2671'
p12143
(lp12144
Vgroup
p12145
aVkind
p12146
aVmusic
p12147
aVroofdeck
p12148
asS'2670'
p12149
(lp12150
Vwent
p12151
asS'2060'
p12152
(lp12153
Vplaces
p12154
aVjersey
p12155
asS'2672'
p12156
(lp12157
Vdrink
p12158
asS'2675'
p12159
(lp12160
sS'2674'
p12161
(lp12162
Vplace
p12163
aVnight
p12164
aVroof
p12165
aVyear
p12166
asS'2677'
p12167
(lp12168
Vbar
p12169
aVrestaurant
p12170
aVhalf
p12171
ag12171
asS'2676'
p12172
(lp12173
Vnyc
p12174
aVdinner
p12175
aVstreet
p12176
aVside
p12177
aVwest
p12178
aVpo
p12179
aVsetting
p12180
asS'2929'
p12181
(lp12182
sS'2928'
p12183
(lp12184
Vnothing
p12185
aVproblem
p12186
aVprune
p12187
asS'2921'
p12188
(lp12189
Vfood
p12190
asS'2920'
p12191
(lp12192
sS'2923'
p12193
(lp12194
Vambiance
p12195
asS'2922'
p12196
(lp12197
Vprices
p12198
aVresturant
p12199
asS'2925'
p12200
(lp12201
Vmenu
p12202
asS'2924'
p12203
(lp12204
Vfood
p12205
aVsalad
p12206
aVpepper
p12207
asS'2927'
p12208
(lp12209
Vdecor
p12210
aVplace
p12211
aVkind
p12212
aVvillage
p12213
aVeast
p12214
asS'2926'
p12215
(lp12216
Vbranzino
p12217
ag12217
asS'708'
p12218
(lp12219
Vplace
p12220
aVinterior
p12221
ag12221
asS'2906'
p12222
(lp12223
Vbeer
p12224
aVice
p12225
asS'1630'
p12226
(lp12227
Vpasta
p12228
asS'1987'
p12229
(lp12230
Vservice
p12231
aVtaste
p12232
aVambiance
p12233
aVfood
p12234
aVquality
p12235
aVrestaurants
p12236
aVhand
p12237
asS'1632'
p12238
(lp12239
Vhouse
p12240
aVbill
p12241
aVmeasures
p12242
asS'3217'
p12243
(lp12244
Vsushi
p12245
asS'1634'
p12246
(lp12247
Vfood
p12248
aVmenu
p12249
aVkitchen
p12250
aVeating
p12251
asS'3211'
p12252
(lp12253
Vwaiter
p12254
aVreservations
p12255
aVmanager
p12256
aVtable
p12257
aVpeople
p12258
aVbeers
p12259
asS'1980'
p12260
(lp12261
Vsteak
p12262
asS'1981'
p12263
(lp12264
Vsuits
p12265
asS'1638'
p12266
(lp12267
Vfood
p12268
aVprices
p12269
asS'1639'
p12270
(lp12271
Vdesserts
p12272
aVstreet
p12273
aVlist
p12274
aVwine
p12275
asS'2904'
p12276
(lp12277
Vlamb
p12278
aVchicken
p12279
aVdishes
p12280
aVbeef
p12281
asS'3218'
p12282
(lp12283
sS'3219'
p12284
(lp12285
Vfood
p12286
aVatmosphere
p12287
aVservice
p12288
aVfabulous
p12289
asS'1988'
p12290
(lp12291
Vwand
p12292
ag12292
aVrepeat
p12293
asS'1989'
p12294
(lp12295
Vdining
p12296
aVdoor
p12297
aVpeople
p12298
aVvault
p12299
ag12299
asS'706'
p12300
(lp12301
sS'568'
p12302
(lp12303
Vtable
p12304
aVright
p12305
asS'569'
p12306
(lp12307
Vexperience
p12308
asS'2817'
p12309
(lp12310
Vbar
p12311
asS'2811'
p12312
(lp12313
Vtapas
p12314
aVtapas
p12315
asS'2810'
p12316
(lp12317
sS'2812'
p12318
(lp12319
Vowner
p12320
aVstreet
p12321
aVmarks
p12322
asS'560'
p12323
(lp12324
Vmenu
p12325
aVdinner
p12326
asS'561'
p12327
(lp12328
Vtimes
p12329
aVmonth
p12330
asS'562'
p12331
(lp12332
Vwaiter
p12333
aVtable
p12334
aVdinner
p12335
aVedge
p12336
asS'563'
p12337
(lp12338
Vtable
p12339
aVstaff
p12340
aVdiner
p12341
ag12341
aVheads
p12342
asS'2819'
p12343
(lp12344
Vmorning
p12345
ag12345
aVguests
p12346
asS'565'
p12347
(lp12348
sS'566'
p12349
(lp12350
sS'567'
p12351
(lp12352
Vfood
p12353
aVbrulee
p12354
asS'3178'
p12355
(lp12356
Vplace
p12357
aVmsg
p12358
asS'3171'
p12359
(lp12360
Vbig
p12361
aVavailable
p12362
asS'3170'
p12363
(lp12364
Vbagels
p12365
aVspreads
p12366
ag12366
asS'3173'
p12367
(lp12368
sS'3172'
p12369
(lp12370
Vbagel
p12371
aVexperience
p12372
asS'3175'
p12373
(lp12374
Vservice
p12375
aVanything
p12376
asS'3174'
p12377
(lp12378
Vservice
p12379
asS'3177'
p12380
(lp12381
Vreviews
p12382
aVthai
p12383
aVplace
p12384
asS'3176'
p12385
(lp12386
sS'659'
p12387
(lp12388
sS'1188'
p12389
(lp12390
Vfood
p12391
aVservice
p12392
aVok
p12393
asS'1189'
p12394
(lp12395
Vbucks
p12396
asS'3377'
p12397
(lp12398
Vwine
p12399
aVbox
p12400
asS'3376'
p12401
(lp12402
Vorder
p12403
aVduck
p12404
asS'1184'
p12405
(lp12406
Vdeal
p12407
aVdollars
p12408
asS'3374'
p12409
(lp12410
Vplace
p12411
asS'3373'
p12412
(lp12413
Vwine
p12414
aVfree
p12415
asS'3372'
p12416
(lp12417
Vtime
p12418
asS'1180'
p12419
(lp12420
Veveryone
p12421
asS'3370'
p12422
(lp12423
Vnyc
p12424
aVpizza
p12425
asS'726'
p12426
(lp12427
Vthumbs
p12428
asS'727'
p12429
(lp12430
Vfood
p12431
aVsushi
p12432
asS'1748'
p12433
(lp12434
Vservice
p12435
aVpizza
p12436
asS'1749'
p12437
(lp12438
Vwait
p12439
asS'720'
p12440
(lp12441
Vplace
p12442
asS'721'
p12443
(lp12444
Vstreet
p12445
aVwarehouse
p12446
asS'1745'
p12447
(lp12448
sS'1746'
p12449
(lp12450
Vlot
p12451
asS'1747'
p12452
(lp12453
Vbusiness
p12454
aVstaff
p12455
aVpie
p12456
asS'1740'
p12457
(lp12458
sS'1741'
p12459
(lp12460
sS'728'
p12461
(lp12462
Vmenu
p12463
aVvariety
p12464
asS'1486'
p12465
(lp12466
Vvillage
p12467
aVslice
p12468
asS'1164'
p12469
(lp12470
Vfood
p12471
aVwait
p12472
asS'1165'
p12473
(lp12474
Vtrust
p12475
asS'1166'
p12476
(lp12477
Vplace
p12478
asS'1167'
p12479
(lp12480
Vthing
p12481
aVsaturday
p12482
aVdumpling
p12483
asS'1614'
p12484
(lp12485
Vhouse
p12486
aVdinner
p12487
aVaunt
p12488
aVcook
p12489
ag12489
asS'1161'
p12490
(lp12491
Vbar
p12492
aVbartenders
p12493
aVlady
p12494
asS'1162'
p12495
(lp12496
Vatmosphere
p12497
aVmusic
p12498
asS'1163'
p12499
(lp12500
Vservice
p12501
asS'1623'
p12502
(lp12503
Vlist
p12504
aVwine
p12505
asS'1168'
p12506
(lp12507
Vsoup
p12508
aVrice
p12509
aVtable
p12510
aVpeople
p12511
aVsubway
p12512
asS'1169'
p12513
(lp12514
Vdollar
p12515
asS'3092'
p12516
(lp12517
Vsalmon
p12518
asS'1489'
p12519
(lp12520
Vavenue
p12521
asS'1366'
p12522
(lp12523
Vdrinks
p12524
aVservice
p12525
aVstaff
p12526
asS'2913'
p12527
(lp12528
Vny
p12529
aVplace
p12530
aVgem
p12531
asS'1488'
p12532
(lp12533
Vplaces
p12534
aVpizza
p12535
asS'1367'
p12536
(lp12537
sS'46'
p12538
(lp12539
Vfood
p12540
aVcity
p12541
aVaverage
p12542
ag12542
aVmidtown
p12543
aVheartland
p12544
asS'47'
p12545
(lp12546
Vbeer
p12547
aVplace
p12548
asS'44'
p12549
(lp12550
Vplace
p12551
asS'45'
p12552
(lp12553
Vservice
p12554
aVtimes
p12555
aVbunch
p12556
asS'42'
p12557
(lp12558
sS'43'
p12559
(lp12560
Vtourists
p12561
aVproximity
p12562
asS'40'
p12563
(lp12564
Vsalmon
p12565
aVfriends
p12566
asS'41'
p12567
(lp12568
Vfood
p12569
aVservice
p12570
asS'1568'
p12571
(lp12572
Vyear
p12573
asS'1569'
p12574
(lp12575
Vexperience
p12576
asS'1298'
p12577
(lp12578
Vpizza
p12579
asS'1299'
p12580
(lp12581
Vny
p12582
aVplaces
p12583
asS'1587'
p12584
(lp12585
Vfriends
p12586
aVplace
p12587
aVsomething
p12588
aVdifferent
p12589
asS'1560'
p12590
(lp12591
sS'1293'
p12592
(lp12593
Vyuck
p12594
asS'1290'
p12595
(lp12596
sS'1563'
p12597
(lp12598
Vfood
p12599
asS'1564'
p12600
(lp12601
Vpeople
p12602
asS'1565'
p12603
(lp12604
Vmoney
p12605
aVdecor
p12606
asS'1294'
p12607
(lp12608
Vvegetables
p12609
asS'1567'
p12610
(lp12611
Vfun
p12612
aVplace
p12613
aVlot
p12614
asS'1713'
p12615
(lp12616
Vfood
p12617
aVcourse
p12618
aVatmosphere
p12619
aVbit
p12620
aVpeople
p12621
asS'474'
p12622
(lp12623
Vfood
p12624
aVmoney
p12625
aVstreet
p12626
aVservice
p12627
aVbest
p12628
asS'796'
p12629
(lp12630
Vfood
p12631
asS'591'
p12632
(lp12633
Vreview
p12634
asS'475'
p12635
(lp12636
Vny
p12637
aVexperience
p12638
asS'795'
p12639
(lp12640
sS'1789'
p12641
(lp12642
Vtown
p12643
aVpart
p12644
aVplace
p12645
asS'1716'
p12646
(lp12647
Vplace
p12648
aVstrike
p12649
asS'1715'
p12650
(lp12651
Vmartinis
p12652
ag12652
ag12652
asS'590'
p12653
(lp12654
Vbar
p12655
asS'732'
p12656
(lp12657
Vburger
p12658
asS'1714'
p12659
(lp12660
Vdish
p12661
aVnyc
p12662
aVsauce
p12663
aVdishes
p12664
aVoil
p12665
aVgarlic
p12666
aVjoints
p12667
asS'472'
p12668
(lp12669
Vdish
p12670
aVmanager
p12671
aVchicken
p12672
asS'473'
p12673
(lp12674
sS'3195'
p12675
(lp12676
Vcuisine
p12677
asS'3194'
p12678
(lp12679
Vfood
p12680
aVperson
p12681
aVthai
p12682
aVfriend
p12683
asS'476'
p12684
(lp12685
Vway
p12686
asS'3192'
p12687
(lp12688
Vquantity
p12689
ag12689
asS'3191'
p12690
(lp12691
Vcurry
p12692
asS'3190'
p12693
(lp12694
Vvariety
p12695
aVlot
p12696
aVpeople
p12697
aVvegetarian
p12698
asS'479'
p12699
(lp12700
Vworld
p12701
asS'2916'
p12702
(lp12703
Vprice
p12704
aVportions
p12705
asS'3199'
p12706
(lp12707
Vnothing
p12708
aVpeople
p12709
asS'3198'
p12710
(lp12711
Vfish
p12712
as.