(dp0
S'217'
p1
(lp2
sS'762'
p3
(lp4
sS'3495'
p5
(lp6
sS'3049'
p7
(lp8
Vfood
p9
aVlousy
p10
asS'134'
p11
(lp12
Vfood
p13
aVprepared
p14
asS'3041'
p15
(lp16
sS'339'
p17
(lp18
Vsushi
p19
asS'3045'
p20
(lp21
sS'3126'
p22
(lp23
Vone
p24
asS'1548'
p25
(lp26
Vfood
p27
asS'2152'
p28
(lp29
Vbagels
p30
asS'813'
p31
(lp32
Vpasta
p33
aV!!!
p34
aVsteak
p35
aVappetizers
p36
asS'2912'
p37
(lp38
Vdishes
p39
asS'1159'
p40
(lp41
sS'2708'
p42
(lp43
sS'2707'
p44
(lp45
sS'3641'
p46
(lp47
sS'1656'
p48
(lp49
Vtuna
p50
asS'537'
p51
(lp52
sS'2141'
p53
(lp54
sS'1709'
p55
(lp56
Vfood
p57
asS'924'
p58
(lp59
Vmeal
p60
aVroom
p61
aV2
p62
aVblocks
p63
asS'3411'
p64
(lp65
sS'1124'
p66
(lp67
Vwaitress
p68
asS'193'
p69
(lp70
sS'3440'
p71
(lp72
Vprices
p73
aVhigh
p74
asS'83'
p75
(lp76
sS'3471'
p77
(lp78
Vbeen
p79
asS'3575'
p80
(lp81
sS'3478'
p82
(lp83
sS'3020'
p84
(lp85
Vgoodness
p86
aVamazing
p87
asS'2171'
p88
(lp89
sS'1401'
p90
(lp91
sS'2077'
p92
(lp93
sS'586'
p94
(lp95
sS'2769'
p96
(lp97
sS'2609'
p98
(lp99
sS'381'
p100
(lp101
VEverything
p102
aVtasty
p103
asS'109'
p104
(lp105
Vsalads
p106
asS'3315'
p107
(lp108
Vevening
p109
asS'3018'
p110
(lp111
sS'2041'
p112
(lp113
Vthing
p114
asS'1380'
p115
(lp116
sS'2575'
p117
(lp118
Vbe
p119
asS'2673'
p120
(lp121
sS'1242'
p122
(lp123
Vrice
p124
asS'2164'
p125
(lp126
Vbit
p127
asS'2459'
p128
(lp129
sS'2591'
p130
(lp131
Vtime
p132
aVwilliamsburg
p133
asS'628'
p134
(lp135
Vserver
p136
aVcool
p137
asS'2451'
p138
(lp139
Vprices
p140
asS'1471'
p141
(lp142
Vlarge
p143
aV$
p144
asS'179'
p145
(lp146
VService
p147
aVprompt
p148
asS'2806'
p149
(lp150
sS'3292'
p151
(lp152
VService
p153
aVnotch
p154
asS'2882'
p155
(lp156
Vlassi
p157
aVexcellent
p158
aVrasamalai
p159
asS'2202'
p160
(lp161
sS'3368'
p162
(lp163
sS'2205'
p164
(lp165
Vfood
p166
aVplace
p167
asS'3081'
p168
(lp169
Vshrimp
p170
asS'2811'
p171
(lp172
sS'2186'
p173
(lp174
VIt
p175
aVrestaurant
p176
asS'1593'
p177
(lp178
sS'3077'
p179
(lp180
sS'3170'
p181
(lp182
sS'2211'
p183
(lp184
Vsoup
p185
asS'3681'
p186
(lp187
Vdeal
p188
aVgreat
p189
aVfood
p190
aVgood
p191
asS'3372'
p192
(lp193
sS'1180'
p194
(lp195
sS'3208'
p196
(lp197
VNight
p198
aVTokyo
p199
asS'1455'
p200
(lp201
Vrestaurant
p202
asS'1105'
p203
(lp204
sS'2751'
p205
(lp206
Vgo
p207
asS'2105'
p208
(lp209
Vcake
p210
asS'882'
p211
(lp212
Vambiance
p213
aVfood
p214
asS'742'
p215
(lp216
Vatmosphere
p217
asS'745'
p218
(lp219
Vvisit
p220
asS'746'
p221
(lp222
VI
p223
aVmet
p224
asS'2630'
p225
(lp226
Vchance
p227
asS'2460'
p228
(lp229
sS'1057'
p230
(lp231
Vservice
p232
asS'3343'
p233
(lp234
Vfood
p235
aVinconsistent
p236
asS'1194'
p237
(lp238
Vcouple
p239
asS'870'
p240
(lp241
Vfood
p242
aVgood
p243
aVprices
p244
asS'2740'
p245
(lp246
sS'1112'
p247
(lp248
sS'2507'
p249
(lp250
Vfood
p251
aVgreat
p252
asS'1293'
p253
(lp254
Vcalzones
p255
aVhorrific
p256
asS'3188'
p257
(lp258
Vlunch
p259
asS'1698'
p260
(lp261
sS'201'
p262
(lp263
Vfood
p264
aVgood
p265
aVprice
p266
aVlist
p267
aVwine
p268
asS'776'
p269
(lp270
Vfood
p271
asS'1273'
p272
(lp273
Vfact
p274
asS'1884'
p275
(lp276
Vmenu
p277
asS'3358'
p278
(lp279
sS'1609'
p280
(lp281
VService
p282
asS'3546'
p283
(lp284
sS'948'
p285
(lp286
Vit
p287
aV24hrs
p288
asS'1579'
p289
(lp290
sS'1769'
p291
(lp292
s.