(dp0
S'643'
p1
(lp2
I1
asS'344'
p3
(lp4
sS'345'
p5
(lp6
I-1
asS'346'
p7
(lp8
I-1
aI-1
asS'347'
p9
(lp10
I-1
asS'340'
p11
(lp12
I-1
aI-1
asS'341'
p13
(lp14
I-1
asS'342'
p15
(lp16
I0
asS'343'
p17
(lp18
I-1
aI-1
asS'348'
p19
(lp20
I1
asS'349'
p21
(lp22
sS'2318'
p23
(lp24
I0
asS'2316'
p25
(lp26
I1
aI1
asS'2317'
p27
(lp28
I1
asS'2314'
p29
(lp30
I1
asS'2315'
p31
(lp32
I0
asS'2312'
p33
(lp34
I0
aI0
asS'2311'
p35
(lp36
I-1
aI-1
asS'2184'
p37
(lp38
I1
aI1
asS'298'
p39
(lp40
I0
asS'299'
p41
(lp42
I1
aI1
asS'296'
p43
(lp44
I-1
aI-1
aI-1
asS'297'
p45
(lp46
I0
aI0
asS'294'
p47
(lp48
I1
asS'295'
p49
(lp50
sS'292'
p51
(lp52
I-1
asS'293'
p53
(lp54
sS'291'
p55
(lp56
sS'587'
p57
(lp58
sS'270'
p59
(lp60
I1
aI1
aI1
aI1
asS'271'
p61
(lp62
I1
aI1
asS'272'
p63
(lp64
I1
asS'273'
p65
(lp66
I0
aI0
asS'274'
p67
(lp68
I0
aI0
asS'275'
p69
(lp70
I1
asS'276'
p71
(lp72
I1
asS'277'
p73
(lp74
I1
aI1
asS'278'
p75
(lp76
I0
aI0
asS'279'
p77
(lp78
I1
aI1
asS'58'
p79
(lp80
I1
aI1
asS'2268'
p81
(lp82
I1
aI1
asS'2269'
p83
(lp84
sS'2262'
p85
(lp86
I1
aI1
aI1
asS'2263'
p87
(lp88
I1
asS'2260'
p89
(lp90
sS'2261'
p91
(lp92
I0
asS'2267'
p93
(lp94
I1
aI1
asS'2442'
p95
(lp96
sS'2443'
p97
(lp98
I1
aI1
aI1
asS'2440'
p99
(lp100
I1
asS'2441'
p101
(lp102
I1
asS'2446'
p103
(lp104
I1
asS'2447'
p105
(lp106
sS'2444'
p107
(lp108
I1
asS'2445'
p109
(lp110
I0
asS'2448'
p111
(lp112
I-1
aI-1
asS'2449'
p113
(lp114
I1
aI1
asS'2189'
p115
(lp116
I0
asS'109'
p117
(lp118
I1
aI1
asS'102'
p119
(lp120
I1
asS'103'
p121
(lp122
I1
asS'101'
p123
(lp124
I1
asS'2042'
p125
(lp126
I-1
asS'2040'
p127
(lp128
sS'2041'
p129
(lp130
I1
asS'1297'
p131
(lp132
sS'2839'
p133
(lp134
I0
asS'2838'
p135
(lp136
I-1
aI-1
asS'3159'
p137
(lp138
I1
asS'3519'
p139
(lp140
I1
aI1
aI1
asS'3518'
p141
(lp142
I1
asS'3513'
p143
(lp144
I-1
aI-1
asS'3512'
p145
(lp146
I0
aI0
aI0
asS'3511'
p147
(lp148
I-1
aI-1
asS'3510'
p149
(lp150
I-1
aI-1
asS'3517'
p151
(lp152
I1
asS'3516'
p153
(lp154
I1
aI1
asS'3515'
p155
(lp156
I1
asS'3514'
p157
(lp158
sS'2688'
p159
(lp160
I1
aI1
asS'2689'
p161
(lp162
I1
asS'2686'
p163
(lp164
I1
aI1
asS'2687'
p165
(lp166
sS'1785'
p167
(lp168
I-1
aI-1
asS'2681'
p169
(lp170
I1
asS'3391'
p171
(lp172
sS'1434'
p173
(lp174
I0
aI-1
asS'98'
p175
(lp176
I1
asS'3392'
p177
(lp178
sS'91'
p179
(lp180
sS'90'
p181
(lp182
I1
asS'93'
p183
(lp184
I-1
aI-1
asS'92'
p185
(lp186
I1
asS'95'
p187
(lp188
I1
aI1
asS'94'
p189
(lp190
I1
aI1
aI1
asS'97'
p191
(lp192
I1
asS'96'
p193
(lp194
sS'3207'
p195
(lp196
I1
aI1
asS'3206'
p197
(lp198
sS'1621'
p199
(lp200
I1
aI1
asS'3204'
p201
(lp202
I1
aI1
asS'1627'
p203
(lp204
I1
asS'1994'
p205
(lp206
I1
asS'1625'
p207
(lp208
I1
aI1
asS'1624'
p209
(lp210
I1
aI1
aI1
asS'1998'
p211
(lp212
sS'1431'
p213
(lp214
sS'3209'
p215
(lp216
I1
asS'3208'
p217
(lp218
sS'2860'
p219
(lp220
sS'2861'
p221
(lp222
I1
aI1
asS'2862'
p223
(lp224
I-1
aI-1
asS'2863'
p225
(lp226
sS'2864'
p227
(lp228
I-1
asS'558'
p229
(lp230
I0
asS'555'
p231
(lp232
I1
asS'554'
p233
(lp234
sS'557'
p235
(lp236
I0
asS'556'
p237
(lp238
I1
aI1
aI1
aI1
aI1
asS'551'
p239
(lp240
sS'550'
p241
(lp242
I1
aI1
aI1
asS'553'
p243
(lp244
I1
asS'552'
p245
(lp246
I1
asS'1199'
p247
(lp248
I-1
asS'1198'
p249
(lp250
I1
asS'1191'
p251
(lp252
I-1
asS'3343'
p253
(lp254
I-1
asS'3340'
p255
(lp256
I0
aI0
asS'3341'
p257
(lp258
I-1
aI-1
asS'1195'
p259
(lp260
I0
aI0
asS'1194'
p261
(lp262
sS'1197'
p263
(lp264
sS'1196'
p265
(lp266
I-1
asS'1759'
p267
(lp268
sS'1756'
p269
(lp270
I1
asS'1755'
p271
(lp272
I1
asS'1750'
p273
(lp274
I1
asS'1177'
p275
(lp276
sS'1176'
p277
(lp278
I1
asS'1175'
p279
(lp280
I1
aI1
asS'1174'
p281
(lp282
I0
aI0
asS'1173'
p283
(lp284
I1
asS'1171'
p285
(lp286
I1
asS'1170'
p287
(lp288
sS'1179'
p289
(lp290
I0
asS'1178'
p291
(lp292
sS'511'
p293
(lp294
I1
asS'510'
p295
(lp296
I1
asS'1005'
p297
(lp298
I1
asS'644'
p299
(lp300
sS'1285'
p301
(lp302
sS'1287'
p303
(lp304
I1
aI1
asS'1286'
p305
(lp306
I1
aI1
asS'1281'
p307
(lp308
sS'1280'
p309
(lp310
sS'1283'
p311
(lp312
I1
asS'1282'
p313
(lp314
I1
asS'879'
p315
(lp316
sS'1289'
p317
(lp318
I-1
asS'1288'
p319
(lp320
I1
aI1
asS'514'
p321
(lp322
I0
asS'1579'
p323
(lp324
sS'1578'
p325
(lp326
I1
asS'689'
p327
(lp328
I0
asS'688'
p329
(lp330
I-1
asS'877'
p331
(lp332
sS'685'
p333
(lp334
I1
asS'1572'
p335
(lp336
I1
aI1
asS'1571'
p337
(lp338
sS'686'
p339
(lp340
sS'1577'
p341
(lp342
I1
asS'680'
p343
(lp344
I1
asS'1575'
p345
(lp346
I1
aI1
asS'1574'
p347
(lp348
I1
aI1
asS'1227'
p349
(lp350
I0
asS'875'
p351
(lp352
I1
asS'2818'
p353
(lp354
I1
aI1
asS'622'
p355
(lp356
I1
asS'872'
p357
(lp358
I1
aI1
asS'873'
p359
(lp360
I1
asS'3436'
p361
(lp362
I1
asS'1295'
p363
(lp364
I-1
asS'871'
p365
(lp366
I1
asS'2037'
p367
(lp368
I-1
aI-1
aI-1
aI-1
asS'2740'
p369
(lp370
sS'1243'
p371
(lp372
I1
asS'2743'
p373
(lp374
I-1
asS'1371'
p375
(lp376
I-1
asS'1370'
p377
(lp378
I-1
asS'1373'
p379
(lp380
sS'404'
p381
(lp382
I0
asS'1375'
p383
(lp384
sS'1374'
p385
(lp386
I1
asS'1377'
p387
(lp388
I1
asS'400'
p389
(lp390
I1
asS'1379'
p391
(lp392
sS'1378'
p393
(lp394
I1
asS'409'
p395
(lp396
I1
aI1
aI1
asS'408'
p397
(lp398
I1
aI1
asS'453'
p399
(lp400
I-1
asS'1344'
p401
(lp402
I1
asS'2746'
p403
(lp404
I1
aI1
asS'1245'
p405
(lp406
sS'379'
p407
(lp408
I1
asS'378'
p409
(lp410
I1
aI1
asS'370'
p411
(lp412
sS'375'
p413
(lp414
I1
aI1
asS'377'
p415
(lp416
I1
asS'391'
p417
(lp418
I0
aI0
asS'390'
p419
(lp420
I-1
asS'397'
p421
(lp422
I1
aI1
asS'396'
p423
(lp424
I1
aI1
asS'395'
p425
(lp426
I1
asS'394'
p427
(lp428
I0
aI0
asS'2309'
p429
(lp430
I-1
asS'2308'
p431
(lp432
sS'2301'
p433
(lp434
sS'2300'
p435
(lp436
I1
asS'2303'
p437
(lp438
I1
asS'2302'
p439
(lp440
I1
aI1
asS'2305'
p441
(lp442
I-1
aI0
asS'2304'
p443
(lp444
sS'2307'
p445
(lp446
I1
aI1
asS'2306'
p447
(lp448
I1
asS'247'
p449
(lp450
I1
aI1
aI1
asS'246'
p451
(lp452
sS'241'
p453
(lp454
I1
asS'240'
p455
(lp456
I1
asS'249'
p457
(lp458
I1
asS'248'
p459
(lp460
I0
aI0
asS'2275'
p461
(lp462
I1
asS'2274'
p463
(lp464
I1
aI1
aI1
asS'2277'
p465
(lp466
I0
asS'2276'
p467
(lp468
I0
aI0
aI0
aI0
asS'2271'
p469
(lp470
I1
aI1
aI1
aI1
asS'2273'
p471
(lp472
I1
aI1
asS'2272'
p473
(lp474
sS'2279'
p475
(lp476
I1
aI1
asS'2278'
p477
(lp478
I-1
asS'2459'
p479
(lp480
I1
asS'2458'
p481
(lp482
I1
aI1
aI1
aI1
asS'2455'
p483
(lp484
I0
asS'2454'
p485
(lp486
sS'2457'
p487
(lp488
sS'2456'
p489
(lp490
I-1
aI-1
asS'2451'
p491
(lp492
I1
asS'2450'
p493
(lp494
I1
aI1
asS'2453'
p495
(lp496
I1
aI1
asS'2452'
p497
(lp498
I-1
asS'179'
p499
(lp500
I1
asS'178'
p501
(lp502
I1
asS'177'
p503
(lp504
I1
asS'176'
p505
(lp506
I1
asS'175'
p507
(lp508
I1
asS'174'
p509
(lp510
I-1
aI-1
aI-1
asS'173'
p511
(lp512
I0
aI-1
asS'3698'
p513
(lp514
I1
asS'3699'
p515
(lp516
I0
aI-1
asS'2053'
p517
(lp518
sS'2052'
p519
(lp520
I1
asS'2054'
p521
(lp522
I1
asS'2057'
p523
(lp524
I1
asS'2059'
p525
(lp526
sS'2058'
p527
(lp528
sS'3692'
p529
(lp530
I-1
aI-1
aI-1
asS'3693'
p531
(lp532
I1
asS'3694'
p533
(lp534
sS'3695'
p535
(lp536
I0
asS'3696'
p537
(lp538
I1
aI1
aI1
asS'3697'
p539
(lp540
I1
aI1
asS'1501'
p541
(lp542
I-1
asS'3089'
p543
(lp544
sS'1507'
p545
(lp546
sS'3526'
p547
(lp548
sS'3527'
p549
(lp550
I-1
asS'3524'
p551
(lp552
I0
asS'3525'
p553
(lp554
sS'3520'
p555
(lp556
I1
aI0
asS'3521'
p557
(lp558
sS'1508'
p559
(lp560
I-1
asS'1509'
p561
(lp562
sS'1977'
p563
(lp564
I0
aI0
asS'658'
p565
(lp566
I1
asS'2699'
p567
(lp568
I1
asS'1976'
p569
(lp570
sS'2697'
p571
(lp572
I1
aI1
asS'2696'
p573
(lp574
I1
asS'2695'
p575
(lp576
I0
asS'2694'
p577
(lp578
sS'2693'
p579
(lp580
I1
aI1
asS'1603'
p581
(lp582
I1
asS'2691'
p583
(lp584
I1
asS'2690'
p585
(lp586
sS'3226'
p587
(lp588
I1
aI1
asS'1973'
p589
(lp590
I-1
asS'3220'
p591
(lp592
I-1
asS'3223'
p593
(lp594
I0
aI0
asS'1606'
p595
(lp596
I1
asS'1362'
p597
(lp598
sS'3232'
p599
(lp600
I1
asS'3233'
p601
(lp602
I1
asS'3230'
p603
(lp604
I1
aI1
asS'3236'
p605
(lp606
I1
asS'3237'
p607
(lp608
sS'3234'
p609
(lp610
I0
aI0
asS'1619'
p611
(lp612
sS'1616'
p613
(lp614
I0
asS'1617'
p615
(lp616
I0
asS'1614'
p617
(lp618
I0
aI0
asS'3239'
p619
(lp620
sS'1960'
p621
(lp622
I1
aI1
aI1
asS'1961'
p623
(lp624
I0
aI0
asS'1610'
p625
(lp626
I1
asS'1611'
p627
(lp628
sS'2063'
p629
(lp630
I1
asS'1363'
p631
(lp632
I0
asS'2872'
p633
(lp634
I0
asS'2871'
p635
(lp636
I1
aI1
asS'2877'
p637
(lp638
sS'2876'
p639
(lp640
sS'2875'
p641
(lp642
I1
aI1
asS'2879'
p643
(lp644
I1
aI1
aI1
aI1
asS'2878'
p645
(lp646
I1
asS'3355'
p647
(lp648
I0
asS'3354'
p649
(lp650
sS'3353'
p651
(lp652
I0
aI0
aI0
asS'3352'
p653
(lp654
I1
aI1
asS'3359'
p655
(lp656
I1
asS'3358'
p657
(lp658
sS'1768'
p659
(lp660
sS'1769'
p661
(lp662
sS'1760'
p663
(lp664
I0
asS'1766'
p665
(lp666
I1
asS'1767'
p667
(lp668
I1
asS'1765'
p669
(lp670
I1
asS'1788'
p671
(lp672
I0
aI0
asS'1140'
p673
(lp674
I1
aI1
aI1
asS'1146'
p675
(lp676
I-1
asS'1147'
p677
(lp678
sS'1144'
p679
(lp680
sS'1145'
p681
(lp682
sS'1148'
p683
(lp684
I0
asS'1149'
p685
(lp686
sS'768'
p687
(lp688
I1
aI1
asS'769'
p689
(lp690
I0
asS'2402'
p691
(lp692
I0
aI-1
aI0
asS'692'
p693
(lp694
I0
aI0
asS'1547'
p695
(lp696
I-1
aI-1
asS'690'
p697
(lp698
I-1
aI-1
asS'691'
p699
(lp700
I-1
asS'1542'
p701
(lp702
I-1
aI-1
asS'1543'
p703
(lp704
I-1
asS'694'
p705
(lp706
I1
asS'1541'
p707
(lp708
I-1
asS'698'
p709
(lp710
I1
asS'699'
p711
(lp712
I1
asS'1548'
p713
(lp714
I-1
asS'1549'
p715
(lp716
I1
aI1
asS'542'
p717
(lp718
I1
asS'762'
p719
(lp720
I-1
aI0
asS'540'
p721
(lp722
I1
asS'541'
p723
(lp724
sS'547'
p725
(lp726
I0
aI0
asS'544'
p727
(lp728
I1
asS'763'
p729
(lp730
I-1
asS'548'
p731
(lp732
I-1
asS'549'
p733
(lp734
sS'1782'
p735
(lp736
sS'761'
p737
(lp738
sS'1784'
p739
(lp740
I1
asS'2968'
p741
(lp742
I1
aI1
aI1
asS'1941'
p743
(lp744
sS'1786'
p745
(lp746
I1
aI1
asS'1787'
p747
(lp748
sS'414'
p749
(lp750
I-1
aI-1
aI-1
asS'415'
p751
(lp752
I0
asS'416'
p753
(lp754
I-1
asS'417'
p755
(lp756
I0
aI0
asS'410'
p757
(lp758
I-1
aI1
asS'411'
p759
(lp760
sS'412'
p761
(lp762
I-1
aI-1
aI-1
asS'413'
p763
(lp764
I1
aI1
asS'1384'
p765
(lp766
I1
aI1
aI1
asS'1385'
p767
(lp768
I1
aI1
asS'1386'
p769
(lp770
I1
aI1
aI1
aI1
asS'1387'
p771
(lp772
I1
aI1
asS'1380'
p773
(lp774
sS'1381'
p775
(lp776
I1
aI1
asS'1382'
p777
(lp778
sS'1383'
p779
(lp780
I-1
aI-1
asS'2769'
p781
(lp782
sS'3583'
p783
(lp784
I-1
asS'368'
p785
(lp786
I0
aI0
asS'369'
p787
(lp788
I0
asS'366'
p789
(lp790
I-1
asS'367'
p791
(lp792
sS'364'
p793
(lp794
I-1
aI-1
asS'365'
p795
(lp796
I-1
aI-1
asS'362'
p797
(lp798
I1
asS'363'
p799
(lp800
I1
aI1
asS'380'
p801
(lp802
sS'381'
p803
(lp804
I1
asS'382'
p805
(lp806
I1
asS'385'
p807
(lp808
I1
asS'386'
p809
(lp810
sS'387'
p811
(lp812
sS'388'
p813
(lp814
I1
aI1
asS'3215'
p815
(lp816
sS'2065'
p817
(lp818
sS'2792'
p819
(lp820
sS'2190'
p821
(lp822
sS'2191'
p823
(lp824
I-1
asS'2192'
p825
(lp826
I1
aI1
asS'259'
p827
(lp828
I1
aI1
aI1
asS'2194'
p829
(lp830
I-1
asS'2195'
p831
(lp832
I1
asS'2196'
p833
(lp834
sS'2197'
p835
(lp836
I1
aI1
asS'2198'
p837
(lp838
sS'2199'
p839
(lp840
I1
asS'250'
p841
(lp842
I1
aI1
aI1
aI1
asS'256'
p843
(lp844
I-1
aI-1
asS'257'
p845
(lp846
I0
asS'254'
p847
(lp848
I1
aI1
asS'255'
p849
(lp850
I-1
asS'2200'
p851
(lp852
I1
asS'2201'
p853
(lp854
I1
asS'2202'
p855
(lp856
sS'2203'
p857
(lp858
sS'2204'
p859
(lp860
I0
aI0
asS'2205'
p861
(lp862
I1
aI1
asS'2206'
p863
(lp864
sS'2207'
p865
(lp866
I0
asS'2208'
p867
(lp868
sS'2209'
p869
(lp870
I-1
aI-1
asS'2428'
p871
(lp872
I1
aI1
asS'2429'
p873
(lp874
I0
asS'2400'
p875
(lp876
I1
aI1
asS'2420'
p877
(lp878
I1
asS'2421'
p879
(lp880
I1
aI1
asS'2422'
p881
(lp882
I1
aI1
aI1
asS'2423'
p883
(lp884
sS'2424'
p885
(lp886
I1
asS'2425'
p887
(lp888
I0
asS'2426'
p889
(lp890
I0
asS'2427'
p891
(lp892
I-1
aI-1
asS'2432'
p893
(lp894
I-1
asS'168'
p895
(lp896
sS'169'
p897
(lp898
I1
asS'164'
p899
(lp900
I-1
asS'165'
p901
(lp902
I0
asS'166'
p903
(lp904
I-1
asS'167'
p905
(lp906
sS'160'
p907
(lp908
I1
aI1
asS'161'
p909
(lp910
I1
asS'162'
p911
(lp912
I0
aI0
asS'163'
p913
(lp914
I-1
asS'3689'
p915
(lp916
I0
asS'3688'
p917
(lp918
I0
aI0
asS'3683'
p919
(lp920
I0
aI0
asS'3682'
p921
(lp922
sS'3681'
p923
(lp924
I1
aI1
aI1
asS'3680'
p925
(lp926
I1
asS'3687'
p927
(lp928
sS'3686'
p929
(lp930
I1
asS'3685'
p931
(lp932
sS'3684'
p933
(lp934
I0
asS'2796'
p935
(lp936
I1
asS'3257'
p937
(lp938
I-1
asS'2514'
p939
(lp940
I-1
aI-1
asS'2515'
p941
(lp942
I1
asS'2516'
p943
(lp944
I1
asS'2517'
p945
(lp946
I1
aI1
aI1
asS'2511'
p947
(lp948
sS'2512'
p949
(lp950
I1
aI1
aI1
asS'2513'
p951
(lp952
I1
asS'2734'
p953
(lp954
I1
aI0
aI0
aI1
asS'2735'
p955
(lp956
I1
asS'2736'
p957
(lp958
I1
asS'2737'
p959
(lp960
I1
aI1
aI1
asS'2730'
p961
(lp962
I0
asS'2733'
p963
(lp964
I0
aI0
asS'2738'
p965
(lp966
I-1
asS'2739'
p967
(lp968
sS'3531'
p969
(lp970
I-1
aI-1
asS'3530'
p971
(lp972
I-1
asS'3533'
p973
(lp974
I-1
asS'3532'
p975
(lp976
I1
aI1
asS'3535'
p977
(lp978
I1
aI1
aI1
aI1
asS'3534'
p979
(lp980
I-1
asS'3537'
p981
(lp982
I-1
aI-1
asS'3536'
p983
(lp984
I1
asS'3539'
p985
(lp986
I0
aI0
asS'3538'
p987
(lp988
I1
asS'1814'
p989
(lp990
sS'1815'
p991
(lp992
sS'1816'
p993
(lp994
I1
asS'1817'
p995
(lp996
sS'1811'
p997
(lp998
I1
aI1
asS'1093'
p999
(lp1000
I1
aI1
asS'1818'
p1001
(lp1002
I1
asS'1819'
p1003
(lp1004
I1
asS'671'
p1005
(lp1006
I0
aI0
asS'1609'
p1007
(lp1008
I1
asS'1608'
p1009
(lp1010
I1
aI1
asS'3229'
p1011
(lp1012
I1
aI1
asS'3228'
p1013
(lp1014
I1
aI1
asS'1979'
p1015
(lp1016
sS'3225'
p1017
(lp1018
I1
asS'1600'
p1019
(lp1020
I1
asS'1975'
p1021
(lp1022
sS'1602'
p1023
(lp1024
I1
aI1
asS'3221'
p1025
(lp1026
sS'1972'
p1027
(lp1028
I0
asS'1971'
p1029
(lp1030
I-1
asS'3222'
p1031
(lp1032
sS'809'
p1033
(lp1034
I0
aI-1
asS'808'
p1035
(lp1036
sS'803'
p1037
(lp1038
I1
aI1
asS'802'
p1039
(lp1040
I1
asS'801'
p1041
(lp1042
I1
asS'800'
p1043
(lp1044
I1
asS'804'
p1045
(lp1046
I1
asS'2848'
p1047
(lp1048
I0
aI1
asS'2849'
p1049
(lp1050
sS'2846'
p1051
(lp1052
I1
asS'2847'
p1053
(lp1054
I1
aI1
aI1
asS'2844'
p1055
(lp1056
I1
asS'2845'
p1057
(lp1058
I1
aI1
asS'2842'
p1059
(lp1060
sS'2843'
p1061
(lp1062
I1
aI1
asS'2840'
p1063
(lp1064
I-1
asS'2841'
p1065
(lp1066
I0
asS'3320'
p1067
(lp1068
I1
aI1
aI1
asS'3321'
p1069
(lp1070
I-1
aI-1
asS'3322'
p1071
(lp1072
I-1
asS'3323'
p1073
(lp1074
I-1
asS'3324'
p1075
(lp1076
I1
asS'3325'
p1077
(lp1078
I-1
asS'3326'
p1079
(lp1080
sS'3327'
p1081
(lp1082
I0
aI0
aI0
asS'3328'
p1083
(lp1084
I0
aI0
asS'1777'
p1085
(lp1086
sS'1771'
p1087
(lp1088
I0
asS'1770'
p1089
(lp1090
I-1
aI-1
aI-1
asS'1779'
p1091
(lp1092
I1
aI1
asS'1778'
p1093
(lp1094
I0
aI0
asS'321'
p1095
(lp1096
I1
asS'2998'
p1097
(lp1098
I1
aI1
asS'1159'
p1099
(lp1100
I0
aI0
asS'1158'
p1101
(lp1102
I1
aI1
asS'1550'
p1103
(lp1104
I1
asS'1155'
p1105
(lp1106
I1
asS'1154'
p1107
(lp1108
I-1
asS'1157'
p1109
(lp1110
sS'1156'
p1111
(lp1112
I1
asS'1151'
p1113
(lp1114
I-1
asS'1150'
p1115
(lp1116
sS'1153'
p1117
(lp1118
sS'1152'
p1119
(lp1120
sS'59'
p1121
(lp1122
I1
asS'1554'
p1123
(lp1124
I-1
aI-1
aI-1
asS'1551'
p1125
(lp1126
I1
asS'2999'
p1127
(lp1128
sS'1553'
p1129
(lp1130
I1
asS'1552'
p1131
(lp1132
I1
asS'1555'
p1133
(lp1134
I-1
asS'3039'
p1135
(lp1136
I-1
aI-1
asS'1557'
p1137
(lp1138
sS'1556'
p1139
(lp1140
sS'3034'
p1141
(lp1142
I-1
asS'1558'
p1143
(lp1144
I1
aI1
aI1
asS'2992'
p1145
(lp1146
I1
aI1
asS'56'
p1147
(lp1148
I1
asS'51'
p1149
(lp1150
I1
asS'2995'
p1151
(lp1152
sS'53'
p1153
(lp1154
I1
aI1
asS'3033'
p1155
(lp1156
I-1
aI-1
aI-1
asS'537'
p1157
(lp1158
sS'55'
p1159
(lp1160
sS'533'
p1161
(lp1162
I1
asS'532'
p1163
(lp1164
I1
aI1
aI1
asS'531'
p1165
(lp1166
I1
asS'530'
p1167
(lp1168
sS'57'
p1169
(lp1170
I1
asS'539'
p1171
(lp1172
I1
asS'538'
p1173
(lp1174
I1
asS'2993'
p1175
(lp1176
I1
aI1
asS'2994'
p1177
(lp1178
sS'1906'
p1179
(lp1180
I1
asS'3295'
p1181
(lp1182
sS'52'
p1183
(lp1184
I1
asS'3296'
p1185
(lp1186
I-1
asS'1905'
p1187
(lp1188
I1
asS'536'
p1189
(lp1190
sS'1902'
p1191
(lp1192
I0
aI1
asS'3291'
p1193
(lp1194
I1
asS'429'
p1195
(lp1196
I1
aI1
asS'428'
p1197
(lp1198
I1
aI1
asS'1900'
p1199
(lp1200
I0
asS'1399'
p1201
(lp1202
I1
aI1
asS'1398'
p1203
(lp1204
I1
aI1
aI1
aI1
asS'423'
p1205
(lp1206
I1
asS'1394'
p1207
(lp1208
I1
asS'1393'
p1209
(lp1210
I1
aI1
aI1
asS'1392'
p1211
(lp1212
I1
asS'427'
p1213
(lp1214
I1
asS'426'
p1215
(lp1216
I1
asS'854'
p1217
(lp1218
sS'3453'
p1219
(lp1220
I0
asS'3074'
p1221
(lp1222
I1
asS'3450'
p1223
(lp1224
I1
aI1
asS'857'
p1225
(lp1226
I1
asS'850'
p1227
(lp1228
sS'1423'
p1229
(lp1230
I1
asS'1321'
p1231
(lp1232
I1
aI1
asS'258'
p1233
(lp1234
I1
asS'1840'
p1235
(lp1236
I1
asS'1970'
p1237
(lp1238
I1
aI-1
asS'1424'
p1239
(lp1240
I1
aI1
asS'2331'
p1241
(lp1242
sS'3475'
p1243
(lp1244
sS'2183'
p1245
(lp1246
I1
aI1
aI1
aI1
asS'2187'
p1247
(lp1248
I1
aI1
asS'2186'
p1249
(lp1250
I1
asS'229'
p1251
(lp1252
sS'228'
p1253
(lp1254
sS'227'
p1255
(lp1256
I0
asS'226'
p1257
(lp1258
sS'225'
p1259
(lp1260
sS'224'
p1261
(lp1262
I1
aI1
asS'223'
p1263
(lp1264
sS'222'
p1265
(lp1266
I0
asS'221'
p1267
(lp1268
I1
asS'220'
p1269
(lp1270
I1
asS'2213'
p1271
(lp1272
I1
asS'2212'
p1273
(lp1274
I-1
asS'2211'
p1275
(lp1276
I-1
asS'2210'
p1277
(lp1278
I-1
aI-1
aI-1
asS'2217'
p1279
(lp1280
I1
asS'2216'
p1281
(lp1282
I-1
aI-1
asS'2215'
p1283
(lp1284
I1
aI1
aI1
aI1
aI1
asS'2214'
p1285
(lp1286
I1
asS'2219'
p1287
(lp1288
I0
aI0
asS'2218'
p1289
(lp1290
I1
aI1
aI1
asS'151'
p1291
(lp1292
I1
aI1
aI1
asS'150'
p1293
(lp1294
I-1
asS'2439'
p1295
(lp1296
I1
asS'152'
p1297
(lp1298
I1
asS'154'
p1299
(lp1300
sS'2433'
p1301
(lp1302
I-1
asS'158'
p1303
(lp1304
I0
aI0
asS'2431'
p1305
(lp1306
sS'2437'
p1307
(lp1308
sS'2436'
p1309
(lp1310
sS'2435'
p1311
(lp1312
I1
asS'2434'
p1313
(lp1314
I1
aI1
asS'2508'
p1315
(lp1316
sS'2507'
p1317
(lp1318
I1
asS'2506'
p1319
(lp1320
sS'2503'
p1321
(lp1322
I-1
asS'2502'
p1323
(lp1324
sS'2501'
p1325
(lp1326
I1
asS'2500'
p1327
(lp1328
sS'2727'
p1329
(lp1330
I1
asS'2726'
p1331
(lp1332
sS'2723'
p1333
(lp1334
sS'2722'
p1335
(lp1336
I1
asS'2721'
p1337
(lp1338
I1
asS'1712'
p1339
(lp1340
I1
aI1
asS'125'
p1341
(lp1342
sS'1805'
p1343
(lp1344
I-1
asS'1804'
p1345
(lp1346
sS'1803'
p1347
(lp1348
I0
asS'1800'
p1349
(lp1350
I-1
asS'1808'
p1351
(lp1352
I-1
asS'3258'
p1353
(lp1354
I0
asS'3259'
p1355
(lp1356
I0
asS'1948'
p1357
(lp1358
I1
aI1
asS'1949'
p1359
(lp1360
I0
aI0
asS'1942'
p1361
(lp1362
I1
asS'3251'
p1363
(lp1364
I1
asS'1940'
p1365
(lp1366
I1
aI1
asS'3253'
p1367
(lp1368
I1
aI1
asS'3254'
p1369
(lp1370
I1
asS'3255'
p1371
(lp1372
I1
aI1
asS'3256'
p1373
(lp1374
I0
asS'1945'
p1375
(lp1376
I1
aI1
aI1
asS'818'
p1377
(lp1378
I1
asS'810'
p1379
(lp1380
I0
aI0
asS'811'
p1381
(lp1382
I-1
asS'812'
p1383
(lp1384
I1
aI1
asS'813'
p1385
(lp1386
I1
asS'814'
p1387
(lp1388
I1
asS'817'
p1389
(lp1390
I1
asS'2859'
p1391
(lp1392
I-1
asS'1991'
p1393
(lp1394
I1
aI1
asS'1522'
p1395
(lp1396
sS'1990'
p1397
(lp1398
I1
asS'2851'
p1399
(lp1400
sS'2850'
p1401
(lp1402
I1
aI1
aI1
asS'2853'
p1403
(lp1404
I1
asS'2852'
p1405
(lp1406
I1
asS'2855'
p1407
(lp1408
I1
aI1
asS'3205'
p1409
(lp1410
I1
aI1
aI1
asS'2856'
p1411
(lp1412
I1
aI1
aI1
asS'1490'
p1413
(lp1414
I1
aI1
asS'3332'
p1415
(lp1416
I1
aI1
asS'1492'
p1417
(lp1418
I0
asS'1493'
p1419
(lp1420
I1
aI1
asS'1494'
p1421
(lp1422
I1
asS'1495'
p1423
(lp1424
sS'3335'
p1425
(lp1426
I-1
asS'3334'
p1427
(lp1428
I1
aI1
asS'3203'
p1429
(lp1430
I0
aI0
asS'3339'
p1431
(lp1432
I1
asS'1395'
p1433
(lp1434
I1
asS'3202'
p1435
(lp1436
I1
aI1
aI1
asS'1700'
p1437
(lp1438
I0
asS'1701'
p1439
(lp1440
sS'1702'
p1441
(lp1442
I1
aI1
asS'1703'
p1443
(lp1444
sS'1704'
p1445
(lp1446
I-1
aI-1
asS'3201'
p1447
(lp1448
I1
aI1
asS'1706'
p1449
(lp1450
I1
aI1
aI1
asS'1707'
p1451
(lp1452
I1
aI1
asS'1708'
p1453
(lp1454
I0
asS'1709'
p1455
(lp1456
I-1
asS'3200'
p1457
(lp1458
sS'424'
p1459
(lp1460
I1
asS'3658'
p1461
(lp1462
I1
asS'3659'
p1463
(lp1464
I1
asS'1128'
p1465
(lp1466
I-1
asS'1129'
p1467
(lp1468
I0
asS'1120'
p1469
(lp1470
I1
aI1
aI1
asS'1123'
p1471
(lp1472
I1
aI1
asS'1124'
p1473
(lp1474
sS'1125'
p1475
(lp1476
I0
asS'1126'
p1477
(lp1478
sS'1127'
p1479
(lp1480
I1
aI1
asS'2989'
p1481
(lp1482
I0
asS'2988'
p1483
(lp1484
I-1
asS'3029'
p1485
(lp1486
sS'2983'
p1487
(lp1488
I1
aI1
asS'2099'
p1489
(lp1490
I1
asS'3025'
p1491
(lp1492
sS'3024'
p1493
(lp1494
I0
aI-1
asS'3023'
p1495
(lp1496
sS'2986'
p1497
(lp1498
I1
asS'2985'
p1499
(lp1500
I1
asS'3020'
p1501
(lp1502
I1
aI1
asS'524'
p1503
(lp1504
I1
asS'527'
p1505
(lp1506
I1
aI1
asS'520'
p1507
(lp1508
I0
asS'1019'
p1509
(lp1510
sS'523'
p1511
(lp1512
I1
asS'1014'
p1513
(lp1514
I1
asS'1015'
p1515
(lp1516
I1
aI1
asS'1017'
p1517
(lp1518
I0
aI0
asS'528'
p1519
(lp1520
sS'529'
p1521
(lp1522
I1
aI1
asS'1012'
p1523
(lp1524
I1
asS'1013'
p1525
(lp1526
I1
asS'1236'
p1527
(lp1528
I1
asS'1237'
p1529
(lp1530
I1
asS'1231'
p1531
(lp1532
I1
asS'1232'
p1533
(lp1534
I1
asS'1233'
p1535
(lp1536
sS'1238'
p1537
(lp1538
sS'1239'
p1539
(lp1540
sS'438'
p1541
(lp1542
I-1
asS'439'
p1543
(lp1544
sS'433'
p1545
(lp1546
sS'430'
p1547
(lp1548
I1
aI1
aI1
asS'1966'
p1549
(lp1550
I1
aI1
aI1
asS'559'
p1551
(lp1552
I1
asS'1967'
p1553
(lp1554
sS'3162'
p1555
(lp1556
I1
asS'3160'
p1557
(lp1558
I1
asS'2465'
p1559
(lp1560
sS'2948'
p1561
(lp1562
I-1
asS'997'
p1563
(lp1564
I1
asS'238'
p1565
(lp1566
I1
aI1
asS'239'
p1567
(lp1568
I0
asS'991'
p1569
(lp1570
I1
aI1
asS'236'
p1571
(lp1572
I1
asS'237'
p1573
(lp1574
I1
aI1
asS'230'
p1575
(lp1576
sS'231'
p1577
(lp1578
I0
asS'232'
p1579
(lp1580
I1
asS'233'
p1581
(lp1582
I1
aI1
asS'2228'
p1583
(lp1584
sS'2229'
p1585
(lp1586
sS'2226'
p1587
(lp1588
I1
aI1
asS'2227'
p1589
(lp1590
I1
asS'2224'
p1591
(lp1592
I0
aI0
asS'2225'
p1593
(lp1594
I-1
asS'2222'
p1595
(lp1596
I0
aI0
asS'2223'
p1597
(lp1598
I1
asS'2220'
p1599
(lp1600
I0
asS'2221'
p1601
(lp1602
sS'147'
p1603
(lp1604
I1
aI1
asS'142'
p1605
(lp1606
I1
asS'140'
p1607
(lp1608
I1
aI1
asS'141'
p1609
(lp1610
I1
asS'2468'
p1611
(lp1612
I1
asS'148'
p1613
(lp1614
I1
aI1
asS'149'
p1615
(lp1616
I1
aI1
asS'3401'
p1617
(lp1618
I-1
asS'2088'
p1619
(lp1620
I-1
asS'2089'
p1621
(lp1622
I1
aI1
asS'2082'
p1623
(lp1624
sS'2083'
p1625
(lp1626
sS'2080'
p1627
(lp1628
I1
aI1
asS'2081'
p1629
(lp1630
I0
asS'2086'
p1631
(lp1632
I0
asS'2087'
p1633
(lp1634
I-1
asS'2084'
p1635
(lp1636
I-1
aI-1
asS'2085'
p1637
(lp1638
I1
asS'3342'
p1639
(lp1640
sS'2538'
p1641
(lp1642
I1
aI1
asS'2539'
p1643
(lp1644
I1
aI1
asS'1190'
p1645
(lp1646
I-1
asS'2532'
p1647
(lp1648
sS'2533'
p1649
(lp1650
I1
asS'2536'
p1651
(lp1652
sS'1193'
p1653
(lp1654
sS'2534'
p1655
(lp1656
sS'2535'
p1657
(lp1658
sS'2712'
p1659
(lp1660
I1
asS'2713'
p1661
(lp1662
I1
asS'2710'
p1663
(lp1664
sS'2711'
p1665
(lp1666
I1
asS'2716'
p1667
(lp1668
I1
aI1
asS'2717'
p1669
(lp1670
I1
asS'2714'
p1671
(lp1672
sS'2715'
p1673
(lp1674
I1
aI1
asS'2718'
p1675
(lp1676
I1
aI1
aI1
asS'130'
p1677
(lp1678
I-1
asS'128'
p1679
(lp1680
I1
asS'3344'
p1681
(lp1682
sS'129'
p1683
(lp1684
sS'3345'
p1685
(lp1686
I1
asS'1832'
p1687
(lp1688
I1
asS'1830'
p1689
(lp1690
I1
aI1
asS'1831'
p1691
(lp1692
sS'1836'
p1693
(lp1694
I-1
aI-1
asS'1837'
p1695
(lp1696
I1
asS'1835'
p1697
(lp1698
I-1
aI-1
asS'1838'
p1699
(lp1700
sS'1839'
p1701
(lp1702
I1
asS'2406'
p1703
(lp1704
I1
aI1
asS'2155'
p1705
(lp1706
I1
asS'2156'
p1707
(lp1708
I1
asS'2405'
p1709
(lp1710
I1
aI1
asS'2150'
p1711
(lp1712
sS'2403'
p1713
(lp1714
I0
asS'2152'
p1715
(lp1716
I1
asS'2153'
p1717
(lp1718
I0
aI0
asS'932'
p1719
(lp1720
I0
asS'931'
p1721
(lp1722
I0
asS'930'
p1723
(lp1724
I1
asS'2158'
p1725
(lp1726
I1
asS'2159'
p1727
(lp1728
I1
aI1
asS'2408'
p1729
(lp1730
I-1
asS'2409'
p1731
(lp1732
I-1
asS'471'
p1733
(lp1734
I-1
aI-1
asS'3091'
p1735
(lp1736
I1
aI-1
asS'1955'
p1737
(lp1738
sS'1954'
p1739
(lp1740
sS'1957'
p1741
(lp1742
sS'1956'
p1743
(lp1744
I1
aI1
asS'1951'
p1745
(lp1746
I1
asS'1950'
p1747
(lp1748
I0
asS'1953'
p1749
(lp1750
sS'1952'
p1751
(lp1752
I1
aI1
asS'1959'
p1753
(lp1754
I0
asS'1958'
p1755
(lp1756
I0
asS'3249'
p1757
(lp1758
I1
aI1
asS'3248'
p1759
(lp1760
I-1
asS'3243'
p1761
(lp1762
I0
aI1
aI0
asS'3242'
p1763
(lp1764
I1
asS'3241'
p1765
(lp1766
I1
aI1
asS'3247'
p1767
(lp1768
I1
asS'3246'
p1769
(lp1770
sS'3245'
p1771
(lp1772
I1
asS'3244'
p1773
(lp1774
sS'828'
p1775
(lp1776
sS'825'
p1777
(lp1778
I1
asS'824'
p1779
(lp1780
I0
aI0
asS'827'
p1781
(lp1782
I1
asS'826'
p1783
(lp1784
I-1
asS'823'
p1785
(lp1786
I0
aI0
asS'822'
p1787
(lp1788
I1
aI1
asS'2284'
p1789
(lp1790
I0
aI0
asS'1536'
p1791
(lp1792
I1
asS'1993'
p1793
(lp1794
I1
asS'3227'
p1795
(lp1796
I1
aI1
aI1
asS'1483'
p1797
(lp1798
I1
asS'1482'
p1799
(lp1800
I1
asS'1481'
p1801
(lp1802
I1
asS'1480'
p1803
(lp1804
I1
asS'1487'
p1805
(lp1806
I1
asS'1823'
p1807
(lp1808
I1
asS'1485'
p1809
(lp1810
I1
asS'1484'
p1811
(lp1812
I1
asS'3306'
p1813
(lp1814
sS'3304'
p1815
(lp1816
I1
aI1
asS'3305'
p1817
(lp1818
I0
asS'3302'
p1819
(lp1820
I1
asS'3303'
p1821
(lp1822
I1
asS'797'
p1823
(lp1824
I-1
asS'928'
p1825
(lp1826
I0
aI0
asS'1711'
p1827
(lp1828
I-1
aI-1
aI-1
asS'1710'
p1829
(lp1830
I-1
aI-1
aI-1
aI-1
asS'1717'
p1831
(lp1832
sS'792'
p1833
(lp1834
I0
asS'791'
p1835
(lp1836
I-1
asS'2410'
p1837
(lp1838
I-1
asS'1719'
p1839
(lp1840
sS'1718'
p1841
(lp1842
I1
aI1
aI1
asS'2413'
p1843
(lp1844
I-1
asS'799'
p1845
(lp1846
I0
asS'798'
p1847
(lp1848
sS'612'
p1849
(lp1850
I1
aI1
asS'2412'
p1851
(lp1852
I1
asS'1271'
p1853
(lp1854
I-1
aI-1
asS'2415'
p1855
(lp1856
I1
asS'610'
p1857
(lp1858
I1
asS'2414'
p1859
(lp1860
I0
aI0
asS'1139'
p1861
(lp1862
sS'1138'
p1863
(lp1864
I1
aI0
asS'2417'
p1865
(lp1866
I1
asS'1133'
p1867
(lp1868
I0
asS'1995'
p1869
(lp1870
sS'1131'
p1871
(lp1872
sS'1130'
p1873
(lp1874
I1
aI1
asS'617'
p1875
(lp1876
I1
asS'2419'
p1877
(lp1878
I1
aI1
asS'1276'
p1879
(lp1880
I0
asS'2418'
p1881
(lp1882
I1
asS'615'
p1883
(lp1884
I1
asS'2790'
p1885
(lp1886
I-1
aI-1
asS'3018'
p1887
(lp1888
sS'3019'
p1889
(lp1890
I0
aI0
aI0
asS'3012'
p1891
(lp1892
I1
aI1
asS'3013'
p1893
(lp1894
I1
asS'3011'
p1895
(lp1896
sS'3016'
p1897
(lp1898
I-1
asS'3017'
p1899
(lp1900
I0
aI0
aI0
asS'3014'
p1901
(lp1902
I1
asS'3015'
p1903
(lp1904
I-1
asS'519'
p1905
(lp1906
I1
aI1
asS'518'
p1907
(lp1908
I1
aI1
asS'926'
p1909
(lp1910
sS'1009'
p1911
(lp1912
I-1
aI-1
aI-1
asS'1008'
p1913
(lp1914
I-1
asS'1007'
p1915
(lp1916
sS'1006'
p1917
(lp1918
I-1
aI-1
asS'513'
p1919
(lp1920
sS'927'
p1921
(lp1922
I0
asS'1003'
p1923
(lp1924
I1
asS'1002'
p1925
(lp1926
I1
asS'1001'
p1927
(lp1928
I1
asS'1000'
p1929
(lp1930
I1
aI1
asS'623'
p1931
(lp1932
sS'1226'
p1933
(lp1934
I0
asS'621'
p1935
(lp1936
I1
aI1
asS'620'
p1937
(lp1938
I1
aI1
asS'627'
p1939
(lp1940
I0
aI0
asS'626'
p1941
(lp1942
I0
asS'625'
p1943
(lp1944
I1
aI1
asS'624'
p1945
(lp1946
sS'629'
p1947
(lp1948
I1
asS'628'
p1949
(lp1950
I1
aI1
asS'1228'
p1951
(lp1952
I0
aI-1
asS'2882'
p1953
(lp1954
I1
asS'2883'
p1955
(lp1956
sS'2880'
p1957
(lp1958
I1
asS'2881'
p1959
(lp1960
I1
asS'2886'
p1961
(lp1962
I1
aI1
asS'2887'
p1963
(lp1964
I0
asS'2884'
p1965
(lp1966
I1
aI1
asS'2885'
p1967
(lp1968
sS'2888'
p1969
(lp1970
I0
asS'2889'
p1971
(lp1972
sS'3196'
p1973
(lp1974
sS'1920'
p1975
(lp1976
I1
asS'15'
p1977
(lp1978
I1
asS'14'
p1979
(lp1980
I-1
asS'16'
p1981
(lp1982
I1
asS'1922'
p1983
(lp1984
I1
aI1
aI1
asS'3275'
p1985
(lp1986
sS'1925'
p1987
(lp1988
I-1
asS'3193'
p1989
(lp1990
I0
asS'929'
p1991
(lp1992
sS'201'
p1993
(lp1994
I1
aI1
asS'200'
p1995
(lp1996
I1
asS'202'
p1997
(lp1998
sS'205'
p1999
(lp2000
I0
asS'204'
p2001
(lp2002
I-1
aI-1
asS'206'
p2003
(lp2004
I1
aI1
asS'209'
p2005
(lp2006
I1
asS'208'
p2007
(lp2008
sS'1573'
p2009
(lp2010
I1
asS'831'
p2011
(lp2012
I-1
asS'3470'
p2013
(lp2014
I0
asS'687'
p2015
(lp2016
I1
asS'837'
p2017
(lp2018
I-1
asS'2239'
p2019
(lp2020
I1
aI1
asS'2238'
p2021
(lp2022
sS'1570'
p2023
(lp2024
I0
asS'834'
p2025
(lp2026
sS'2230'
p2027
(lp2028
I-1
asS'2233'
p2029
(lp2030
I-1
asS'3473'
p2031
(lp2032
I-1
asS'2235'
p2033
(lp2034
I-1
asS'2234'
p2035
(lp2036
sS'2237'
p2037
(lp2038
I-1
asS'2236'
p2039
(lp2040
I-1
asS'682'
p2041
(lp2042
sS'3499'
p2043
(lp2044
I-1
asS'3496'
p2045
(lp2046
I-1
asS'3494'
p2047
(lp2048
I0
asS'3495'
p2049
(lp2050
sS'3492'
p2051
(lp2052
I1
asS'3493'
p2053
(lp2054
I1
aI1
asS'3490'
p2055
(lp2056
I1
asS'3491'
p2057
(lp2058
I1
asS'2095'
p2059
(lp2060
I0
asS'2094'
p2061
(lp2062
sS'2097'
p2063
(lp2064
I0
asS'2096'
p2065
(lp2066
I1
asS'2091'
p2067
(lp2068
I1
asS'2090'
p2069
(lp2070
I1
asS'2093'
p2071
(lp2072
I-1
asS'2092'
p2073
(lp2074
sS'3654'
p2075
(lp2076
I1
aI1
asS'3655'
p2077
(lp2078
I1
asS'3650'
p2079
(lp2080
I0
asS'2098'
p2081
(lp2082
I0
asS'3652'
p2083
(lp2084
sS'3653'
p2085
(lp2086
I1
aI1
asS'2525'
p2087
(lp2088
I-1
aI-1
asS'2524'
p2089
(lp2090
I1
asS'2526'
p2091
(lp2092
I-1
aI-1
asS'2521'
p2093
(lp2094
I-1
aI-1
aI-1
asS'2520'
p2095
(lp2096
I-1
asS'2523'
p2097
(lp2098
I-1
asS'2522'
p2099
(lp2100
I-1
aI-1
asS'2529'
p2101
(lp2102
I-1
aI-1
asS'2709'
p2103
(lp2104
I1
aI1
asS'2708'
p2105
(lp2106
I1
asS'2705'
p2107
(lp2108
I0
asS'2704'
p2109
(lp2110
sS'2707'
p2111
(lp2112
sS'2706'
p2113
(lp2114
sS'2701'
p2115
(lp2116
I1
aI1
asS'2700'
p2117
(lp2118
I-1
asS'2703'
p2119
(lp2120
sS'2702'
p2121
(lp2122
I1
asS'1829'
p2123
(lp2124
sS'1828'
p2125
(lp2126
sS'1825'
p2127
(lp2128
I1
asS'1824'
p2129
(lp2130
sS'1827'
p2131
(lp2132
I1
aI1
asS'1826'
p2133
(lp2134
sS'1821'
p2135
(lp2136
I1
asS'1820'
p2137
(lp2138
I1
asS'512'
p2139
(lp2140
sS'1822'
p2141
(lp2142
I1
aI1
asS'2147'
p2143
(lp2144
I1
aI1
asS'2146'
p2145
(lp2146
I1
aI1
asS'2145'
p2147
(lp2148
sS'2144'
p2149
(lp2150
sS'2143'
p2151
(lp2152
sS'2142'
p2153
(lp2154
I1
asS'2141'
p2155
(lp2156
sS'2140'
p2157
(lp2158
sS'920'
p2159
(lp2160
I1
asS'921'
p2161
(lp2162
I1
asS'922'
p2163
(lp2164
I-1
asS'923'
p2165
(lp2166
I1
asS'924'
p2167
(lp2168
I1
aI1
asS'925'
p2169
(lp2170
I1
asS'2149'
p2171
(lp2172
I1
asS'2148'
p2173
(lp2174
sS'2411'
p2175
(lp2176
I1
aI1
asS'3276'
p2177
(lp2178
I1
asS'3277'
p2179
(lp2180
sS'3274'
p2181
(lp2182
I-1
asS'1923'
p2183
(lp2184
I1
asS'3272'
p2185
(lp2186
I1
asS'3273'
p2187
(lp2188
I-1
asS'1926'
p2189
(lp2190
sS'1927'
p2191
(lp2192
I0
asS'1928'
p2193
(lp2194
sS'1929'
p2195
(lp2196
I1
aI1
aI1
asS'3278'
p2197
(lp2198
I-1
aI-1
aI-1
asS'3279'
p2199
(lp2200
I-1
aI-1
asS'3474'
p2201
(lp2202
sS'833'
p2203
(lp2204
I1
asS'3476'
p2205
(lp2206
I1
asS'3477'
p2207
(lp2208
I1
aI1
aI1
asS'836'
p2209
(lp2210
sS'3471'
p2211
(lp2212
sS'3472'
p2213
(lp2214
sS'835'
p2215
(lp2216
I0
asS'838'
p2217
(lp2218
I-1
asS'839'
p2219
(lp2220
I1
asS'3478'
p2221
(lp2222
I-1
asS'3479'
p2223
(lp2224
sS'3'
p2225
(lp2226
I-1
aI-1
asS'1986'
p2227
(lp2228
I1
aI1
asS'3319'
p2229
(lp2230
I0
aI1
asS'3318'
p2231
(lp2232
sS'3313'
p2233
(lp2234
sS'3315'
p2235
(lp2236
I1
aI1
aI1
asS'3314'
p2237
(lp2238
I1
asS'3317'
p2239
(lp2240
I1
asS'3316'
p2241
(lp2242
I1
asS'784'
p2243
(lp2244
I1
aI1
asS'785'
p2245
(lp2246
sS'780'
p2247
(lp2248
sS'781'
p2249
(lp2250
I1
asS'1728'
p2251
(lp2252
I1
asS'1729'
p2253
(lp2254
I1
asS'1727'
p2255
(lp2256
sS'1724'
p2257
(lp2258
I1
asS'788'
p2259
(lp2260
I0
aI0
asS'1723'
p2261
(lp2262
I1
asS'1720'
p2263
(lp2264
I1
asS'1721'
p2265
(lp2266
sS'153'
p2267
(lp2268
I1
aI1
aI1
asS'3005'
p2269
(lp2270
I0
aI0
asS'61'
p2271
(lp2272
I1
aI1
asS'62'
p2273
(lp2274
I1
aI1
asS'2438'
p2275
(lp2276
sS'3001'
p2277
(lp2278
sS'3000'
p2279
(lp2280
sS'66'
p2281
(lp2282
I1
asS'3002'
p2283
(lp2284
I1
asS'1985'
p2285
(lp2286
I-1
aI0
asS'407'
p2287
(lp2288
I1
asS'406'
p2289
(lp2290
sS'1582'
p2291
(lp2292
I1
asS'1583'
p2293
(lp2294
sS'1580'
p2295
(lp2296
sS'1581'
p2297
(lp2298
I1
asS'1586'
p2299
(lp2300
I1
aI1
asS'405'
p2301
(lp2302
I1
aI1
asS'1584'
p2303
(lp2304
I1
asS'1585'
p2305
(lp2306
sS'159'
p2307
(lp2308
I1
aI1
asS'1038'
p2309
(lp2310
I0
aI-1
asS'1372'
p2311
(lp2312
I-1
aI-1
asS'508'
p2313
(lp2314
I1
asS'509'
p2315
(lp2316
I1
asS'1032'
p2317
(lp2318
I1
aI1
aI1
aI1
asS'1033'
p2319
(lp2320
I1
asS'504'
p2321
(lp2322
I1
aI1
asS'505'
p2323
(lp2324
I1
asS'502'
p2325
(lp2326
I1
aI1
asS'1037'
p2327
(lp2328
I-1
asS'500'
p2329
(lp2330
sS'1035'
p2331
(lp2332
I0
asS'630'
p2333
(lp2334
I1
aI1
asS'1213'
p2335
(lp2336
I-1
aI-1
aI-1
asS'1210'
p2337
(lp2338
sS'1211'
p2339
(lp2340
I1
asS'1216'
p2341
(lp2342
I1
aI1
aI1
asS'401'
p2343
(lp2344
I1
aI1
asS'1214'
p2345
(lp2346
I1
aI1
asS'1215'
p2347
(lp2348
I1
aI1
asS'638'
p2349
(lp2350
I1
aI1
asS'639'
p2351
(lp2352
sS'1218'
p2353
(lp2354
I0
aI0
aI0
aI-1
asS'1376'
p2355
(lp2356
sS'2416'
p2357
(lp2358
I1
asS'2899'
p2359
(lp2360
I1
aI1
asS'782'
p2361
(lp2362
I1
aI1
asS'2895'
p2363
(lp2364
I1
asS'2894'
p2365
(lp2366
I1
aI1
asS'2897'
p2367
(lp2368
I1
aI1
aI1
asS'2896'
p2369
(lp2370
I1
aI1
asS'2891'
p2371
(lp2372
I1
aI1
asS'2890'
p2373
(lp2374
I1
asS'2893'
p2375
(lp2376
I1
aI1
asS'2892'
p2377
(lp2378
I1
asS'1454'
p2379
(lp2380
I-1
asS'1455'
p2381
(lp2382
I1
asS'1104'
p2383
(lp2384
I-1
aI-1
asS'1105'
p2385
(lp2386
I1
asS'1102'
p2387
(lp2388
I-1
asS'1103'
p2389
(lp2390
I0
asS'1100'
p2391
(lp2392
I-1
asS'1101'
p2393
(lp2394
I0
asS'1458'
p2395
(lp2396
I1
aI1
asS'1459'
p2397
(lp2398
I1
aI1
asS'1108'
p2399
(lp2400
I1
asS'1109'
p2401
(lp2402
I1
asS'1722'
p2403
(lp2404
I1
aI1
asS'789'
p2405
(lp2406
sS'1357'
p2407
(lp2408
I1
aI1
asS'1576'
p2409
(lp2410
I-1
asS'959'
p2411
(lp2412
I1
aI1
asS'958'
p2413
(lp2414
I1
aI1
asS'2794'
p2415
(lp2416
I0
asS'216'
p2417
(lp2418
I1
asS'217'
p2419
(lp2420
I1
asS'214'
p2421
(lp2422
sS'215'
p2423
(lp2424
I0
asS'212'
p2425
(lp2426
I1
aI1
asS'213'
p2427
(lp2428
I0
asS'210'
p2429
(lp2430
I1
asS'211'
p2431
(lp2432
I0
aI0
asS'218'
p2433
(lp2434
I1
asS'3094'
p2435
(lp2436
sS'957'
p2437
(lp2438
I1
aI1
asS'956'
p2439
(lp2440
I1
asS'939'
p2441
(lp2442
I1
asS'4'
p2443
(lp2444
I1
asS'3489'
p2445
(lp2446
I1
asS'3488'
p2447
(lp2448
I-1
asS'3481'
p2449
(lp2450
I-1
asS'3480'
p2451
(lp2452
sS'3483'
p2453
(lp2454
I0
aI0
asS'3482'
p2455
(lp2456
I1
asS'3487'
p2457
(lp2458
I-1
aI-1
asS'938'
p2459
(lp2460
I1
aI1
asS'2474'
p2461
(lp2462
I0
aI-1
asS'3649'
p2463
(lp2464
I-1
asS'3648'
p2465
(lp2466
I1
asS'3647'
p2467
(lp2468
sS'3646'
p2469
(lp2470
sS'3645'
p2471
(lp2472
I1
asS'3644'
p2473
(lp2474
sS'3643'
p2475
(lp2476
sS'3642'
p2477
(lp2478
I1
aI1
asS'3641'
p2479
(lp2480
I1
asS'3640'
p2481
(lp2482
I1
asS'2550'
p2483
(lp2484
sS'2551'
p2485
(lp2486
sS'2553'
p2487
(lp2488
I-1
asS'2554'
p2489
(lp2490
I1
asS'2555'
p2491
(lp2492
I1
aI1
aI1
aI1
asS'3004'
p2493
(lp2494
I1
aI1
asS'2558'
p2495
(lp2496
I1
aI1
aI1
asS'2559'
p2497
(lp2498
sS'2396'
p2499
(lp2500
I1
aI1
aI1
asS'2397'
p2501
(lp2502
I0
asS'2394'
p2503
(lp2504
sS'2395'
p2505
(lp2506
sS'2392'
p2507
(lp2508
I1
aI1
asS'2393'
p2509
(lp2510
sS'2390'
p2511
(lp2512
I-1
asS'2391'
p2513
(lp2514
I1
asS'2398'
p2515
(lp2516
I1
aI1
asS'65'
p2517
(lp2518
I1
asS'2778'
p2519
(lp2520
I-1
asS'2779'
p2521
(lp2522
I0
aI0
aI0
asS'3003'
p2523
(lp2524
I1
aI1
aI1
asS'2770'
p2525
(lp2526
I-1
aI-1
asS'2771'
p2527
(lp2528
sS'2772'
p2529
(lp2530
I-1
aI-1
aI-1
asS'2773'
p2531
(lp2532
I-1
aI-1
asS'2774'
p2533
(lp2534
I-1
aI-1
asS'2777'
p2535
(lp2536
I1
aI1
asS'3166'
p2537
(lp2538
I1
asS'3167'
p2539
(lp2540
I0
asS'3165'
p2541
(lp2542
I-1
asS'1851'
p2543
(lp2544
I0
asS'1852'
p2545
(lp2546
I0
aI0
asS'1853'
p2547
(lp2548
I0
aI0
aI0
asS'1854'
p2549
(lp2550
I-1
asS'1855'
p2551
(lp2552
I1
asS'1856'
p2553
(lp2554
I1
asS'1857'
p2555
(lp2556
I1
asS'2172'
p2557
(lp2558
I0
asS'2173'
p2559
(lp2560
I1
asS'2170'
p2561
(lp2562
sS'2171'
p2563
(lp2564
I1
asS'2176'
p2565
(lp2566
sS'2177'
p2567
(lp2568
sS'915'
p2569
(lp2570
I1
asS'914'
p2571
(lp2572
I-1
asS'2178'
p2573
(lp2574
I1
asS'916'
p2575
(lp2576
I1
aI1
asS'911'
p2577
(lp2578
I-1
aI-1
asS'910'
p2579
(lp2580
I1
asS'913'
p2581
(lp2582
I1
asS'912'
p2583
(lp2584
I1
aI1
aI1
asS'2604'
p2585
(lp2586
I1
aI1
asS'2605'
p2587
(lp2588
I1
aI1
asS'2606'
p2589
(lp2590
I1
aI1
asS'2607'
p2591
(lp2592
sS'2600'
p2593
(lp2594
I1
asS'2601'
p2595
(lp2596
sS'2602'
p2597
(lp2598
sS'1420'
p2599
(lp2600
I-1
asS'2608'
p2601
(lp2602
I-1
aI-1
asS'2609'
p2603
(lp2604
sS'3261'
p2605
(lp2606
sS'3260'
p2607
(lp2608
I1
asS'3263'
p2609
(lp2610
I1
asS'1930'
p2611
(lp2612
I0
aI0
asS'3265'
p2613
(lp2614
I-1
aI-1
asS'3264'
p2615
(lp2616
I1
aI1
asS'1935'
p2617
(lp2618
I0
aI0
asS'3266'
p2619
(lp2620
I1
aI1
asS'3268'
p2621
(lp2622
I1
asS'1939'
p2623
(lp2624
I1
asS'2051'
p2625
(lp2626
I0
asS'847'
p2627
(lp2628
I1
aI-1
asS'846'
p2629
(lp2630
I1
aI1
asS'845'
p2631
(lp2632
I1
asS'844'
p2633
(lp2634
I1
asS'843'
p2635
(lp2636
I1
aI1
aI1
aI1
asS'3462'
p2637
(lp2638
I1
asS'3461'
p2639
(lp2640
sS'3460'
p2641
(lp2642
I1
asS'3469'
p2643
(lp2644
I1
asS'3468'
p2645
(lp2646
I1
aI1
asS'3364'
p2647
(lp2648
I1
asS'3365'
p2649
(lp2650
sS'3361'
p2651
(lp2652
sS'2407'
p2653
(lp2654
I-1
asS'1192'
p2655
(lp2656
I1
asS'1739'
p2657
(lp2658
I1
asS'1738'
p2659
(lp2660
sS'1731'
p2661
(lp2662
sS'1730'
p2663
(lp2664
I1
aI1
asS'1733'
p2665
(lp2666
I1
asS'1732'
p2667
(lp2668
sS'1735'
p2669
(lp2670
I0
asS'1734'
p2671
(lp2672
I0
asS'1039'
p2673
(lp2674
I-1
asS'753'
p2675
(lp2676
I1
aI1
asS'752'
p2677
(lp2678
I1
asS'751'
p2679
(lp2680
sS'750'
p2681
(lp2682
I1
aI1
asS'757'
p2683
(lp2684
I0
aI0
aI0
asS'756'
p2685
(lp2686
sS'755'
p2687
(lp2688
I1
asS'754'
p2689
(lp2690
I1
aI1
asS'759'
p2691
(lp2692
I1
aI1
asS'758'
p2693
(lp2694
I-1
aI-1
aI-1
asS'1595'
p2695
(lp2696
I1
aI1
asS'3071'
p2697
(lp2698
sS'1597'
p2699
(lp2700
I1
aI1
asS'1596'
p2701
(lp2702
I1
aI1
aI1
asS'2958'
p2703
(lp2704
sS'3075'
p2705
(lp2706
I1
asS'3076'
p2707
(lp2708
sS'1592'
p2709
(lp2710
I1
asS'2954'
p2711
(lp2712
I0
asS'2955'
p2713
(lp2714
I-1
asS'2956'
p2715
(lp2716
sS'2957'
p2717
(lp2718
I1
aI1
asS'1599'
p2719
(lp2720
I1
asS'1598'
p2721
(lp2722
sS'1024'
p2723
(lp2724
I1
aI1
asS'1027'
p2725
(lp2726
I0
aI0
aI0
aI0
asS'1031'
p2727
(lp2728
I1
aI1
aI1
aI1
asS'1021'
p2729
(lp2730
I-1
asS'1974'
p2731
(lp2732
sS'1023'
p2733
(lp2734
I1
asS'1022'
p2735
(lp2736
I1
asS'1029'
p2737
(lp2738
I1
asS'1028'
p2739
(lp2740
sS'503'
p2741
(lp2742
I1
asS'1034'
p2743
(lp2744
I1
aI1
asS'501'
p2745
(lp2746
I-1
asS'605'
p2747
(lp2748
sS'1212'
p2749
(lp2750
I-1
asS'607'
p2751
(lp2752
I1
asS'606'
p2753
(lp2754
sS'1209'
p2755
(lp2756
I1
asS'1208'
p2757
(lp2758
I1
asS'603'
p2759
(lp2760
I1
asS'602'
p2761
(lp2762
I1
asS'1205'
p2763
(lp2764
I1
asS'1204'
p2765
(lp2766
I0
aI-1
asS'1207'
p2767
(lp2768
sS'1206'
p2769
(lp2770
I1
aI-1
asS'609'
p2771
(lp2772
sS'1200'
p2773
(lp2774
I-1
asS'1203'
p2775
(lp2776
I0
asS'633'
p2777
(lp2778
sS'634'
p2779
(lp2780
I1
aI1
aI1
asS'935'
p2781
(lp2782
I-1
aI-1
asS'1217'
p2783
(lp2784
I1
aI1
asS'3108'
p2785
(lp2786
I0
aI0
asS'3105'
p2787
(lp2788
sS'3106'
p2789
(lp2790
I-1
asS'637'
p2791
(lp2792
I1
aI1
asS'3100'
p2793
(lp2794
sS'3101'
p2795
(lp2796
sS'3102'
p2797
(lp2798
sS'3103'
p2799
(lp2800
I1
asS'1111'
p2801
(lp2802
sS'1110'
p2803
(lp2804
I1
asS'1113'
p2805
(lp2806
I1
asS'1112'
p2807
(lp2808
sS'1115'
p2809
(lp2810
I1
asS'1114'
p2811
(lp2812
sS'1117'
p2813
(lp2814
I1
aI1
asS'1116'
p2815
(lp2816
sS'1119'
p2817
(lp2818
I0
aI0
asS'1118'
p2819
(lp2820
I1
asS'1351'
p2821
(lp2822
I1
asS'1449'
p2823
(lp2824
sS'1448'
p2825
(lp2826
sS'1350'
p2827
(lp2828
sS'78'
p2829
(lp2830
I1
asS'2401'
p2831
(lp2832
I1
asS'460'
p2833
(lp2834
I1
asS'463'
p2835
(lp2836
sS'489'
p2837
(lp2838
sS'488'
p2839
(lp2840
I0
asS'487'
p2841
(lp2842
I1
asS'486'
p2843
(lp2844
sS'485'
p2845
(lp2846
I1
asS'484'
p2847
(lp2848
I0
asS'483'
p2849
(lp2850
I1
aI1
asS'482'
p2851
(lp2852
I1
asS'481'
p2853
(lp2854
sS'480'
p2855
(lp2856
I1
asS'790'
p2857
(lp2858
I0
asS'695'
p2859
(lp2860
I-1
asS'723'
p2861
(lp2862
I1
asS'124'
p2863
(lp2864
I1
asS'992'
p2865
(lp2866
I1
asS'2898'
p2867
(lp2868
I1
asS'3665'
p2869
(lp2870
I1
aI1
asS'199'
p2871
(lp2872
I0
asS'198'
p2873
(lp2874
I1
asS'2289'
p2875
(lp2876
I1
asS'195'
p2877
(lp2878
sS'194'
p2879
(lp2880
sS'197'
p2881
(lp2882
sS'196'
p2883
(lp2884
I-1
asS'191'
p2885
(lp2886
I0
asS'190'
p2887
(lp2888
I-1
asS'193'
p2889
(lp2890
I1
asS'192'
p2891
(lp2892
I1
asS'3679'
p2893
(lp2894
I1
asS'3672'
p2895
(lp2896
I0
aI0
asS'3670'
p2897
(lp2898
I0
aI0
asS'3671'
p2899
(lp2900
I-1
asS'3676'
p2901
(lp2902
I1
aI1
asS'3677'
p2903
(lp2904
I1
aI1
asS'3675'
p2905
(lp2906
I1
asS'2547'
p2907
(lp2908
I0
asS'2546'
p2909
(lp2910
I1
aI1
asS'2545'
p2911
(lp2912
sS'2544'
p2913
(lp2914
I-1
asS'2549'
p2915
(lp2916
sS'2548'
p2917
(lp2918
I1
aI1
asS'1456'
p2919
(lp2920
I1
aI1
aI1
asS'2381'
p2921
(lp2922
sS'2380'
p2923
(lp2924
I1
asS'2382'
p2925
(lp2926
sS'2385'
p2927
(lp2928
sS'2384'
p2929
(lp2930
I1
asS'2387'
p2931
(lp2932
sS'2386'
p2933
(lp2934
sS'2389'
p2935
(lp2936
I-1
aI0
asS'2388'
p2937
(lp2938
sS'3580'
p2939
(lp2940
I-1
asS'3581'
p2941
(lp2942
I1
asS'3582'
p2943
(lp2944
I0
asS'2768'
p2945
(lp2946
I1
asS'3584'
p2947
(lp2948
sS'3585'
p2949
(lp2950
I1
aI1
asS'3587'
p2951
(lp2952
I0
aI0
asS'3588'
p2953
(lp2954
sS'3589'
p2955
(lp2956
sS'2767'
p2957
(lp2958
I1
aI1
asS'2766'
p2959
(lp2960
I1
aI1
asS'2765'
p2961
(lp2962
I1
asS'2764'
p2963
(lp2964
sS'902'
p2965
(lp2966
I1
aI1
asS'903'
p2967
(lp2968
sS'900'
p2969
(lp2970
I1
asS'901'
p2971
(lp2972
I-1
aI-1
asS'906'
p2973
(lp2974
I0
aI0
asS'907'
p2975
(lp2976
sS'904'
p2977
(lp2978
I0
asS'905'
p2979
(lp2980
I1
aI1
asS'1843'
p2981
(lp2982
sS'1842'
p2983
(lp2984
I-1
asS'1841'
p2985
(lp2986
sS'909'
p2987
(lp2988
I0
asS'1846'
p2989
(lp2990
I-1
aI-1
asS'1845'
p2991
(lp2992
I0
asS'1844'
p2993
(lp2994
I1
aI1
asS'3250'
p2995
(lp2996
I-1
asS'2169'
p2997
(lp2998
I1
asS'2168'
p2999
(lp3000
sS'2165'
p3001
(lp3002
I0
asS'2164'
p3003
(lp3004
I-1
asS'2167'
p3005
(lp3006
I0
asS'2166'
p3007
(lp3008
I1
asS'2161'
p3009
(lp3010
I1
asS'2160'
p3011
(lp3012
I1
aI1
asS'2163'
p3013
(lp3014
I0
aI1
asS'2162'
p3015
(lp3016
sS'2617'
p3017
(lp3018
sS'2616'
p3019
(lp3020
sS'2615'
p3021
(lp3022
I1
asS'2614'
p3023
(lp3024
I-1
aI-1
asS'2611'
p3025
(lp3026
I1
asS'2610'
p3027
(lp3028
I1
aI1
asS'1946'
p3029
(lp3030
I1
asS'1947'
p3031
(lp3032
I1
aI1
aI1
asS'3298'
p3033
(lp3034
I1
asS'3299'
p3035
(lp3036
I1
asS'1908'
p3037
(lp3038
sS'1909'
p3039
(lp3040
sS'3294'
p3041
(lp3042
I1
asS'1907'
p3043
(lp3044
I1
asS'1904'
p3045
(lp3046
I1
asS'3297'
p3047
(lp3048
I1
asS'3290'
p3049
(lp3050
sS'1903'
p3051
(lp3052
I1
asS'3292'
p3053
(lp3054
I1
aI1
asS'3293'
p3055
(lp3056
sS'3452'
p3057
(lp3058
I1
asS'855'
p3059
(lp3060
sS'856'
p3061
(lp3062
I1
aI1
aI1
asS'3451'
p3063
(lp3064
I0
aI0
aI0
asS'3456'
p3065
(lp3066
I1
asS'3457'
p3067
(lp3068
I-1
asS'3454'
p3069
(lp3070
I0
asS'3455'
p3071
(lp3072
I1
asS'3458'
p3073
(lp3074
sS'3459'
p3075
(lp3076
I1
asS'858'
p3077
(lp3078
I1
asS'859'
p3079
(lp3080
I1
aI1
asS'1186'
p3081
(lp3082
sS'425'
p3083
(lp3084
I1
aI1
asS'740'
p3085
(lp3086
I-1
aI-1
asS'741'
p3087
(lp3088
I1
asS'742'
p3089
(lp3090
I1
aI1
aI1
asS'743'
p3091
(lp3092
sS'744'
p3093
(lp3094
I1
asS'745'
p3095
(lp3096
I-1
asS'746'
p3097
(lp3098
I0
asS'747'
p3099
(lp3100
I0
asS'748'
p3101
(lp3102
sS'749'
p3103
(lp3104
I1
asS'1799'
p3105
(lp3106
sS'3063'
p3107
(lp3108
sS'3062'
p3109
(lp3110
I1
asS'3061'
p3111
(lp3112
I-1
asS'3060'
p3113
(lp3114
sS'3067'
p3115
(lp3116
I1
asS'2949'
p3117
(lp3118
I-1
asS'3064'
p3119
(lp3120
sS'2947'
p3121
(lp3122
I-1
asS'2946'
p3123
(lp3124
I1
aI1
asS'2945'
p3125
(lp3126
I1
asS'2944'
p3127
(lp3128
sS'2943'
p3129
(lp3130
sS'2942'
p3131
(lp3132
sS'2941'
p3133
(lp3134
I1
aI1
asS'2940'
p3135
(lp3136
I1
aI1
asS'1050'
p3137
(lp3138
I1
asS'1051'
p3139
(lp3140
I-1
aI0
asS'1052'
p3141
(lp3142
I1
asS'1053'
p3143
(lp3144
sS'1054'
p3145
(lp3146
I-1
asS'1055'
p3147
(lp3148
I1
aI1
asS'1056'
p3149
(lp3150
I1
asS'1057'
p3151
(lp3152
I-1
asS'1058'
p3153
(lp3154
sS'1059'
p3155
(lp3156
I1
asS'717'
p3157
(lp3158
I1
aI1
asS'1692'
p3159
(lp3160
I-1
asS'1693'
p3161
(lp3162
I0
asS'1690'
p3163
(lp3164
I-1
asS'1691'
p3165
(lp3166
I1
asS'715'
p3167
(lp3168
I-1
aI-1
asS'1698'
p3169
(lp3170
I1
asS'1699'
p3171
(lp3172
I1
asS'1278'
p3173
(lp3174
I1
asS'1279'
p3175
(lp3176
I1
asS'618'
p3177
(lp3178
I1
asS'619'
p3179
(lp3180
I1
aI1
asS'1270'
p3181
(lp3182
I-1
asS'613'
p3183
(lp3184
sS'1272'
p3185
(lp3186
I-1
aI-1
asS'611'
p3187
(lp3188
I1
aI1
asS'616'
p3189
(lp3190
sS'1275'
p3191
(lp3192
sS'614'
p3193
(lp3194
I1
asS'1277'
p3195
(lp3196
sS'1795'
p3197
(lp3198
I-1
asS'1794'
p3199
(lp3200
sS'3119'
p3201
(lp3202
sS'3118'
p3203
(lp3204
sS'3117'
p3205
(lp3206
I1
asS'3116'
p3207
(lp3208
I1
asS'3115'
p3209
(lp3210
sS'3114'
p3211
(lp3212
sS'3113'
p3213
(lp3214
I0
asS'3112'
p3215
(lp3216
I0
asS'3111'
p3217
(lp3218
I0
asS'1472'
p3219
(lp3220
I0
asS'1473'
p3221
(lp3222
I-1
asS'1470'
p3223
(lp3224
I-1
aI-1
asS'1471'
p3225
(lp3226
I0
asS'1477'
p3227
(lp3228
I0
aI0
asS'1474'
p3229
(lp3230
I1
aI1
asS'1475'
p3231
(lp3232
I1
asS'1478'
p3233
(lp3234
I1
aI1
asS'1479'
p3235
(lp3236
sS'3336'
p3237
(lp3238
sS'1304'
p3239
(lp3240
I0
aI0
asS'1305'
p3241
(lp3242
I-1
aI-1
aI-1
asS'1306'
p3243
(lp3244
I1
asS'1307'
p3245
(lp3246
sS'1300'
p3247
(lp3248
I0
asS'1301'
p3249
(lp3250
I-1
asS'1302'
p3251
(lp3252
I-1
aI-1
aI-1
asS'1303'
p3253
(lp3254
I-1
aI1
asS'1497'
p3255
(lp3256
sS'1309'
p3257
(lp3258
sS'3590'
p3259
(lp3260
I1
aI1
asS'498'
p3261
(lp3262
sS'499'
p3263
(lp3264
I1
asS'494'
p3265
(lp3266
I1
asS'495'
p3267
(lp3268
sS'496'
p3269
(lp3270
I1
aI1
asS'497'
p3271
(lp3272
I1
asS'490'
p3273
(lp3274
I1
asS'491'
p3275
(lp3276
I1
asS'492'
p3277
(lp3278
I1
asS'493'
p3279
(lp3280
I1
asS'24'
p3281
(lp3282
sS'25'
p3283
(lp3284
I1
aI1
asS'21'
p3285
(lp3286
sS'28'
p3287
(lp3288
I1
asS'29'
p3289
(lp3290
I1
aI1
asS'3262'
p3291
(lp3292
sS'1705'
p3293
(lp3294
I1
aI1
asS'1601'
p3295
(lp3296
I1
asS'1604'
p3297
(lp3298
I0
asS'3267'
p3299
(lp3300
I0
aI0
asS'7'
p3301
(lp3302
sS'2288'
p3303
(lp3304
I1
asS'3664'
p3305
(lp3306
I-1
asS'3667'
p3307
(lp3308
I1
aI1
aI1
asS'3666'
p3309
(lp3310
I-1
asS'3661'
p3311
(lp3312
sS'3660'
p3313
(lp3314
I1
aI1
asS'3663'
p3315
(lp3316
I1
aI1
asS'3662'
p3317
(lp3318
I1
aI1
asS'2280'
p3319
(lp3320
sS'2281'
p3321
(lp3322
I-1
asS'2282'
p3323
(lp3324
I1
asS'2283'
p3325
(lp3326
I1
asS'3669'
p3327
(lp3328
sS'2285'
p3329
(lp3330
I0
asS'2286'
p3331
(lp3332
I1
asS'2287'
p3333
(lp3334
I1
asS'1605'
p3335
(lp3336
I0
asS'2578'
p3337
(lp3338
sS'2579'
p3339
(lp3340
sS'2576'
p3341
(lp3342
I1
aI1
asS'2577'
p3343
(lp3344
I1
aI1
asS'2574'
p3345
(lp3346
I1
asS'2575'
p3347
(lp3348
sS'2572'
p3349
(lp3350
I1
asS'2573'
p3351
(lp3352
I1
asS'2570'
p3353
(lp3354
I1
asS'2571'
p3355
(lp3356
I1
asS'3690'
p3357
(lp3358
I1
asS'2378'
p3359
(lp3360
I0
aI0
asS'2379'
p3361
(lp3362
sS'601'
p3363
(lp3364
I1
aI1
aI1
aI1
asS'2377'
p3365
(lp3366
I-1
asS'2370'
p3367
(lp3368
I1
asS'2372'
p3369
(lp3370
I1
asS'2594'
p3371
(lp3372
sS'2595'
p3373
(lp3374
I1
asS'2596'
p3375
(lp3376
sS'2597'
p3377
(lp3378
I1
asS'2590'
p3379
(lp3380
I1
aI1
aI1
asS'2591'
p3381
(lp3382
I1
asS'2592'
p3383
(lp3384
I1
asS'2593'
p3385
(lp3386
I1
asS'3599'
p3387
(lp3388
I-1
asS'3598'
p3389
(lp3390
sS'2598'
p3391
(lp3392
sS'2599'
p3393
(lp3394
I1
aI1
asS'1874'
p3395
(lp3396
I-1
asS'1872'
p3397
(lp3398
I1
aI1
asS'1873'
p3399
(lp3400
I-1
aI-1
asS'1870'
p3401
(lp3402
I1
asS'1871'
p3403
(lp3404
I1
asS'600'
p3405
(lp3406
I-1
aI-1
asS'1607'
p3407
(lp3408
I1
aI0
asS'1878'
p3409
(lp3410
I1
aI1
aI1
asS'1879'
p3411
(lp3412
I-1
asS'977'
p3413
(lp3414
I0
asS'182'
p3415
(lp3416
sS'974'
p3417
(lp3418
I1
aI1
asS'973'
p3419
(lp3420
I1
asS'972'
p3421
(lp3422
I1
aI1
aI1
asS'971'
p3423
(lp3424
I1
aI1
asS'970'
p3425
(lp3426
I1
asS'1080'
p3427
(lp3428
I1
asS'979'
p3429
(lp3430
I1
aI1
asS'978'
p3431
(lp3432
I1
asS'2118'
p3433
(lp3434
I1
asS'2119'
p3435
(lp3436
I1
asS'180'
p3437
(lp3438
I-1
asS'181'
p3439
(lp3440
I1
asS'186'
p3441
(lp3442
I1
aI1
asS'187'
p3443
(lp3444
I0
asS'184'
p3445
(lp3446
I-1
asS'185'
p3447
(lp3448
I0
asS'2112'
p3449
(lp3450
I0
asS'2113'
p3451
(lp3452
I-1
aI-1
asS'2114'
p3453
(lp3454
I0
aI0
asS'2115'
p3455
(lp3456
I-1
asS'2116'
p3457
(lp3458
I0
asS'1559'
p3459
(lp3460
I0
asS'2622'
p3461
(lp3462
I1
aI1
aI1
asS'2623'
p3463
(lp3464
I1
aI1
asS'2620'
p3465
(lp3466
I-1
asS'2621'
p3467
(lp3468
sS'2627'
p3469
(lp3470
I1
aI1
asS'2624'
p3471
(lp3472
I-1
asS'60'
p3473
(lp3474
sS'1919'
p3475
(lp3476
sS'1918'
p3477
(lp3478
I1
asS'3289'
p3479
(lp3480
I1
asS'3288'
p3481
(lp3482
sS'1911'
p3483
(lp3484
I1
aI1
aI1
asS'1910'
p3485
(lp3486
I0
aI0
asS'3285'
p3487
(lp3488
sS'1912'
p3489
(lp3490
sS'3282'
p3491
(lp3492
I1
asS'3281'
p3493
(lp3494
I-1
aI-1
asS'3280'
p3495
(lp3496
I1
aI1
asS'869'
p3497
(lp3498
I1
aI1
asS'868'
p3499
(lp3500
I1
asS'189'
p3501
(lp3502
I-1
aI-1
asS'861'
p3503
(lp3504
I0
asS'860'
p3505
(lp3506
I0
asS'863'
p3507
(lp3508
I0
asS'862'
p3509
(lp3510
I1
asS'865'
p3511
(lp3512
I1
aI1
asS'3440'
p3513
(lp3514
I-1
aI1
asS'3443'
p3515
(lp3516
I1
asS'3442'
p3517
(lp3518
sS'2024'
p3519
(lp3520
I0
asS'2757'
p3521
(lp3522
sS'2026'
p3523
(lp3524
I-1
asS'2027'
p3525
(lp3526
I1
asS'2020'
p3527
(lp3528
I0
asS'2753'
p3529
(lp3530
I-1
aI-1
aI-1
asS'2751'
p3531
(lp3532
sS'2828'
p3533
(lp3534
sS'2117'
p3535
(lp3536
I-1
aI0
asS'2028'
p3537
(lp3538
I1
aI1
asS'2029'
p3539
(lp3540
I0
asS'2829'
p3541
(lp3542
sS'883'
p3543
(lp3544
I-1
aI-1
asS'882'
p3545
(lp3546
I1
aI1
aI1
asS'881'
p3547
(lp3548
sS'880'
p3549
(lp3550
I1
asS'887'
p3551
(lp3552
sS'885'
p3553
(lp3554
I1
aI-1
aI1
asS'884'
p3555
(lp3556
sS'889'
p3557
(lp3558
I-1
aI-1
asS'888'
p3559
(lp3560
sS'1340'
p3561
(lp3562
I0
asS'3149'
p3563
(lp3564
I0
asS'775'
p3565
(lp3566
I-1
asS'774'
p3567
(lp3568
sS'777'
p3569
(lp3570
I1
asS'776'
p3571
(lp3572
I1
asS'771'
p3573
(lp3574
I-1
asS'770'
p3575
(lp3576
I0
asS'773'
p3577
(lp3578
I0
asS'772'
p3579
(lp3580
I-1
asS'779'
p3581
(lp3582
I-1
asS'778'
p3583
(lp3584
I1
asS'419'
p3585
(lp3586
I0
asS'77'
p3587
(lp3588
I1
asS'76'
p3589
(lp3590
sS'2978'
p3591
(lp3592
I1
asS'2979'
p3593
(lp3594
I-1
asS'72'
p3595
(lp3596
I1
asS'3058'
p3597
(lp3598
I1
asS'3059'
p3599
(lp3600
I-1
aI0
asS'2972'
p3601
(lp3602
I1
asS'3057'
p3603
(lp3604
sS'2970'
p3605
(lp3606
sS'2971'
p3607
(lp3608
sS'2976'
p3609
(lp3610
I1
aI1
aI1
aI1
asS'2977'
p3611
(lp3612
I1
aI1
aI1
asS'3050'
p3613
(lp3614
sS'3051'
p3615
(lp3616
I-1
asS'1041'
p3617
(lp3618
I-1
asS'1040'
p3619
(lp3620
I1
aI1
asS'1047'
p3621
(lp3622
sS'1046'
p3623
(lp3624
sS'1045'
p3625
(lp3626
I1
asS'1044'
p3627
(lp3628
I-1
asS'1049'
p3629
(lp3630
I1
asS'1681'
p3631
(lp3632
I1
asS'1680'
p3633
(lp3634
I0
asS'1683'
p3635
(lp3636
I1
aI1
asS'1684'
p3637
(lp3638
I-1
asS'1687'
p3639
(lp3640
I0
asS'1686'
p3641
(lp3642
I-1
aI-1
aI-1
asS'1689'
p3643
(lp3644
I-1
aI-1
asS'1688'
p3645
(lp3646
I-1
asS'1269'
p3647
(lp3648
I0
aI0
aI0
asS'2980'
p3649
(lp3650
sS'669'
p3651
(lp3652
sS'668'
p3653
(lp3654
I1
aI1
asS'667'
p3655
(lp3656
I0
asS'666'
p3657
(lp3658
I1
aI1
asS'665'
p3659
(lp3660
I0
aI0
asS'664'
p3661
(lp3662
sS'663'
p3663
(lp3664
I1
asS'662'
p3665
(lp3666
I1
asS'661'
p3667
(lp3668
sS'3022'
p3669
(lp3670
I1
asS'3021'
p3671
(lp3672
sS'3095'
p3673
(lp3674
sS'2984'
p3675
(lp3676
I-1
asS'1913'
p3677
(lp3678
I0
asS'3128'
p3679
(lp3680
sS'3129'
p3681
(lp3682
I-1
asS'3122'
p3683
(lp3684
sS'3123'
p3685
(lp3686
I0
aI0
aI0
asS'3120'
p3687
(lp3688
I1
asS'3121'
p3689
(lp3690
sS'3126'
p3691
(lp3692
I-1
asS'3127'
p3693
(lp3694
I-1
asS'1469'
p3695
(lp3696
I1
asS'1468'
p3697
(lp3698
I1
aI1
asS'1465'
p3699
(lp3700
I0
aI0
aI0
asS'1018'
p3701
(lp3702
I-1
aI-1
asS'1467'
p3703
(lp3704
sS'1916'
p3705
(lp3706
sS'1461'
p3707
(lp3708
I1
asS'1460'
p3709
(lp3710
I1
asS'1462'
p3711
(lp3712
I0
aI0
asS'1317'
p3713
(lp3714
I-1
asS'1316'
p3715
(lp3716
I0
aI0
asS'1315'
p3717
(lp3718
sS'1314'
p3719
(lp3720
sS'1313'
p3721
(lp3722
I1
asS'1312'
p3723
(lp3724
I0
aI0
asS'1311'
p3725
(lp3726
sS'1310'
p3727
(lp3728
sS'1319'
p3729
(lp3730
I-1
aI-1
asS'1318'
p3731
(lp3732
I-1
aI-1
asS'1010'
p3733
(lp3734
sS'464'
p3735
(lp3736
I1
aI1
aI1
asS'1011'
p3737
(lp3738
I1
aI1
asS'318'
p3739
(lp3740
I1
asS'313'
p3741
(lp3742
sS'3441'
p3743
(lp3744
I-1
aI-1
asS'317'
p3745
(lp3746
sS'316'
p3747
(lp3748
I0
aI0
asS'315'
p3749
(lp3750
I0
asS'864'
p3751
(lp3752
I-1
asS'867'
p3753
(lp3754
sS'1618'
p3755
(lp3756
I1
aI1
asS'866'
p3757
(lp3758
I1
asS'2025'
p3759
(lp3760
sS'2754'
p3761
(lp3762
I-1
aI-1
aI-1
asS'1335'
p3763
(lp3764
I-1
aI-1
aI-1
aI-1
asS'1030'
p3765
(lp3766
I0
asS'1334'
p3767
(lp3768
I-1
asS'2752'
p3769
(lp3770
I1
aI1
asS'1331'
p3771
(lp3772
sS'2698'
p3773
(lp3774
I1
asS'446'
p3775
(lp3776
sS'2692'
p3777
(lp3778
I1
aI1
asS'2461'
p3779
(lp3780
I1
asS'3610'
p3781
(lp3782
I1
asS'3611'
p3783
(lp3784
sS'2299'
p3785
(lp3786
sS'3613'
p3787
(lp3788
I0
asS'3617'
p3789
(lp3790
I1
asS'2293'
p3791
(lp3792
I-1
asS'3619'
p3793
(lp3794
I1
asS'2290'
p3795
(lp3796
I1
asS'2297'
p3797
(lp3798
I1
asS'2296'
p3799
(lp3800
sS'2295'
p3801
(lp3802
I1
aI1
asS'2294'
p3803
(lp3804
I1
aI1
aI1
asS'2569'
p3805
(lp3806
sS'2568'
p3807
(lp3808
sS'2560'
p3809
(lp3810
I-1
asS'2563'
p3811
(lp3812
I1
asS'1615'
p3813
(lp3814
sS'2567'
p3815
(lp3816
I1
aI1
asS'403'
p3817
(lp3818
sS'908'
p3819
(lp3820
I1
asS'2369'
p3821
(lp3822
sS'2367'
p3823
(lp3824
I-1
aI-1
asS'2366'
p3825
(lp3826
sS'2365'
p3827
(lp3828
I-1
aI-1
asS'2364'
p3829
(lp3830
I1
asS'2363'
p3831
(lp3832
I-1
asS'2361'
p3833
(lp3834
I0
asS'2360'
p3835
(lp3836
I1
asS'2587'
p3837
(lp3838
sS'2586'
p3839
(lp3840
I-1
asS'2585'
p3841
(lp3842
I1
asS'2584'
p3843
(lp3844
sS'2582'
p3845
(lp3846
I1
asS'2581'
p3847
(lp3848
I1
asS'2580'
p3849
(lp3850
I1
aI1
aI1
asS'1612'
p3851
(lp3852
sS'402'
p3853
(lp3854
sS'2589'
p3855
(lp3856
I-1
aI-1
asS'2588'
p3857
(lp3858
I-1
aI-1
aI-1
asS'1861'
p3859
(lp3860
I1
asS'1860'
p3861
(lp3862
sS'1865'
p3863
(lp3864
I0
asS'1867'
p3865
(lp3866
I-1
aI-1
asS'1866'
p3867
(lp3868
I1
aI1
asS'1869'
p3869
(lp3870
I1
asS'1868'
p3871
(lp3872
I1
asS'964'
p3873
(lp3874
sS'965'
p3875
(lp3876
sS'966'
p3877
(lp3878
I1
asS'967'
p3879
(lp3880
I1
aI1
asS'960'
p3881
(lp3882
I1
aI1
asS'961'
p3883
(lp3884
I1
asS'962'
p3885
(lp3886
I1
asS'1613'
p3887
(lp3888
sS'968'
p3889
(lp3890
I1
asS'969'
p3891
(lp3892
I1
aI1
asS'2109'
p3893
(lp3894
I-1
aI-1
aI-1
aI-1
asS'2108'
p3895
(lp3896
sS'2103'
p3897
(lp3898
sS'2102'
p3899
(lp3900
sS'2101'
p3901
(lp3902
I-1
asS'2100'
p3903
(lp3904
sS'2107'
p3905
(lp3906
I0
asS'2105'
p3907
(lp3908
sS'2104'
p3909
(lp3910
I0
asS'2639'
p3911
(lp3912
I1
asS'2638'
p3913
(lp3914
I1
asS'635'
p3915
(lp3916
sS'2635'
p3917
(lp3918
sS'2634'
p3919
(lp3920
sS'2637'
p3921
(lp3922
I1
asS'2636'
p3923
(lp3924
sS'2631'
p3925
(lp3926
I1
aI1
aI1
asS'2630'
p3927
(lp3928
I1
aI1
asS'3438'
p3929
(lp3930
I1
aI1
asS'3439'
p3931
(lp3932
I-1
aI-1
aI-1
asS'878'
p3933
(lp3934
I1
asS'3093'
p3935
(lp3936
sS'876'
p3937
(lp3938
I1
asS'3431'
p3939
(lp3940
sS'874'
p3941
(lp3942
I1
asS'3433'
p3943
(lp3944
I1
asS'3434'
p3945
(lp3946
I1
asS'3435'
p3947
(lp3948
I1
aI1
asS'870'
p3949
(lp3950
I1
aI1
asS'3437'
p3951
(lp3952
I1
aI1
asS'2741'
p3953
(lp3954
I1
aI1
asS'2036'
p3955
(lp3956
I-1
aI-1
asS'2035'
p3957
(lp3958
I-1
aI-1
asS'2742'
p3959
(lp3960
I1
asS'2033'
p3961
(lp3962
I1
asS'2747'
p3963
(lp3964
I1
asS'2030'
p3965
(lp3966
I1
aI1
asS'9'
p3967
(lp3968
sS'2748'
p3969
(lp3970
I1
aI1
aI1
asS'2039'
p3971
(lp3972
I-1
asS'2038'
p3973
(lp3974
I-1
asS'891'
p3975
(lp3976
I0
aI-1
asS'892'
p3977
(lp3978
I0
asS'894'
p3979
(lp3980
I0
asS'895'
p3981
(lp3982
sS'896'
p3983
(lp3984
I1
asS'897'
p3985
(lp3986
I0
aI0
asS'898'
p3987
(lp3988
I-1
aI-1
asS'899'
p3989
(lp3990
I0
aI0
asS'646'
p3991
(lp3992
sS'3651'
p3993
(lp3994
I1
asS'783'
p3995
(lp3996
sS'1968'
p3997
(lp3998
I0
asS'1969'
p3999
(lp4000
I1
aI1
aI1
asS'3544'
p4001
(lp4002
I1
aI1
asS'3545'
p4003
(lp4004
I-1
asS'3546'
p4005
(lp4006
I1
aI1
asS'3547'
p4007
(lp4008
I1
asS'3541'
p4009
(lp4010
I0
asS'3542'
p4011
(lp4012
I0
aI0
asS'3543'
p4013
(lp4014
I0
aI0
asS'3235'
p4015
(lp4016
I1
asS'1964'
p4017
(lp4018
I0
asS'422'
p4019
(lp4020
I1
asS'1965'
p4021
(lp4022
I-1
asS'3238'
p4023
(lp4024
sS'3069'
p4025
(lp4026
sS'2965'
p4027
(lp4028
I1
asS'2964'
p4029
(lp4030
I1
aI1
aI1
asS'2967'
p4031
(lp4032
I0
aI0
asS'2966'
p4033
(lp4034
sS'2961'
p4035
(lp4036
I1
asS'2960'
p4037
(lp4038
sS'2963'
p4039
(lp4040
I1
aI1
asS'2962'
p4041
(lp4042
I1
aI1
asS'1780'
p4043
(lp4044
I-1
aI1
asS'1781'
p4045
(lp4046
sS'760'
p4047
(lp4048
I1
aI1
asS'1783'
p4049
(lp4050
sS'2969'
p4051
(lp4052
sS'767'
p4053
(lp4054
I-1
aI-1
aI-1
asS'764'
p4055
(lp4056
I-1
aI-1
asS'765'
p4057
(lp4058
I-1
aI0
asS'3049'
p4059
(lp4060
I-1
asS'3048'
p4061
(lp4062
I-1
aI-1
asS'3041'
p4063
(lp4064
I0
aI0
asS'3040'
p4065
(lp4066
sS'3043'
p4067
(lp4068
I1
asS'3042'
p4069
(lp4070
I1
asS'3045'
p4071
(lp4072
sS'3044'
p4073
(lp4074
I0
asS'3047'
p4075
(lp4076
I-1
asS'3046'
p4077
(lp4078
I0
asS'1078'
p4079
(lp4080
I1
asS'1077'
p4081
(lp4082
sS'1074'
p4083
(lp4084
I0
asS'1070'
p4085
(lp4086
sS'1071'
p4087
(lp4088
I1
asS'1678'
p4089
(lp4090
sS'1679'
p4091
(lp4092
sS'3030'
p4093
(lp4094
sS'1674'
p4095
(lp4096
sS'1675'
p4097
(lp4098
I-1
aI-1
asS'1676'
p4099
(lp4100
I0
aI0
asS'1677'
p4101
(lp4102
sS'1670'
p4103
(lp4104
sS'1671'
p4105
(lp4106
I0
asS'1672'
p4107
(lp4108
I1
asS'1673'
p4109
(lp4110
I1
aI1
asS'1094'
p4111
(lp4112
I1
asS'1095'
p4113
(lp4114
I1
aI1
aI1
asS'1096'
p4115
(lp4116
I1
aI1
asS'1097'
p4117
(lp4118
I1
aI1
aI1
asS'678'
p4119
(lp4120
I1
aI1
aI1
asS'679'
p4121
(lp4122
sS'1092'
p4123
(lp4124
I1
asS'1534'
p4125
(lp4126
I1
asS'674'
p4127
(lp4128
I1
aI1
asS'675'
p4129
(lp4130
I1
asS'676'
p4131
(lp4132
I1
asS'677'
p4133
(lp4134
sS'1098'
p4135
(lp4136
sS'1099'
p4137
(lp4138
I0
asS'672'
p4139
(lp4140
I0
asS'673'
p4141
(lp4142
I1
asS'3135'
p4143
(lp4144
I1
asS'3134'
p4145
(lp4146
I-1
aI-1
asS'3137'
p4147
(lp4148
sS'3136'
p4149
(lp4150
sS'3131'
p4151
(lp4152
sS'3130'
p4153
(lp4154
I-1
asS'3133'
p4155
(lp4156
I1
asS'3139'
p4157
(lp4158
I0
aI0
aI0
asS'3138'
p4159
(lp4160
I1
asS'1533'
p4161
(lp4162
I1
aI1
asS'1622'
p4163
(lp4164
I1
asS'1418'
p4165
(lp4166
sS'1419'
p4167
(lp4168
sS'1410'
p4169
(lp4170
sS'1411'
p4171
(lp4172
I1
asS'1412'
p4173
(lp4174
I1
asS'1413'
p4175
(lp4176
I1
asS'1414'
p4177
(lp4178
sS'1415'
p4179
(lp4180
I-1
aI-1
asS'1416'
p4181
(lp4182
I-1
aI-1
asS'1417'
p4183
(lp4184
sS'1322'
p4185
(lp4186
I1
asS'1323'
p4187
(lp4188
I1
asS'1320'
p4189
(lp4190
sS'1532'
p4191
(lp4192
sS'1326'
p4193
(lp4194
I1
asS'1327'
p4195
(lp4196
I1
aI1
asS'1324'
p4197
(lp4198
sS'1325'
p4199
(lp4200
I1
asS'1328'
p4201
(lp4202
I1
asS'1329'
p4203
(lp4204
sS'5'
p4205
(lp4206
I-1
asS'1531'
p4207
(lp4208
sS'1917'
p4209
(lp4210
I1
aI1
asS'3618'
p4211
(lp4212
I-1
asS'1254'
p4213
(lp4214
I1
aI1
asS'1527'
p4215
(lp4216
I1
asS'1250'
p4217
(lp4218
I0
aI0
asS'1528'
p4219
(lp4220
I1
asS'308'
p4221
(lp4222
I0
aI0
asS'309'
p4223
(lp4224
I1
aI1
asS'300'
p4225
(lp4226
I1
aI1
aI1
asS'301'
p4227
(lp4228
I0
asS'302'
p4229
(lp4230
I1
asS'303'
p4231
(lp4232
I0
asS'304'
p4233
(lp4234
I1
aI1
asS'305'
p4235
(lp4236
I1
asS'306'
p4237
(lp4238
I1
asS'307'
p4239
(lp4240
I1
asS'1792'
p4241
(lp4242
I-1
aI-1
asS'1626'
p4243
(lp4244
I1
asS'75'
p4245
(lp4246
sS'2399'
p4247
(lp4248
I1
asS'71'
p4249
(lp4250
I1
aI1
aI1
asS'70'
p4251
(lp4252
I1
aI1
asS'3056'
p4253
(lp4254
I1
aI1
aI1
aI1
asS'989'
p4255
(lp4256
I1
asS'2973'
p4257
(lp4258
I1
aI1
asS'1447'
p4259
(lp4260
I-1
asS'3052'
p4261
(lp4262
I-1
aI0
asS'3412'
p4263
(lp4264
I1
aI1
aI1
asS'3053'
p4265
(lp4266
I1
asS'2974'
p4267
(lp4268
I1
asS'2975'
p4269
(lp4270
I1
asS'3603'
p4271
(lp4272
I0
asS'3602'
p4273
(lp4274
sS'3601'
p4275
(lp4276
I-1
aI-1
aI-1
asS'3600'
p4277
(lp4278
I-1
asS'3607'
p4279
(lp4280
sS'3606'
p4281
(lp4282
I1
asS'3605'
p4283
(lp4284
I1
aI1
aI1
asS'3604'
p4285
(lp4286
I1
asS'3609'
p4287
(lp4288
sS'3608'
p4289
(lp4290
I1
aI1
asS'3413'
p4291
(lp4292
I1
asS'2479'
p4293
(lp4294
I1
aI1
aI1
asS'2478'
p4295
(lp4296
I-1
asS'470'
p4297
(lp4298
sS'2990'
p4299
(lp4300
I-1
asS'2359'
p4301
(lp4302
sS'2350'
p4303
(lp4304
I1
asS'2356'
p4305
(lp4306
I1
asS'2355'
p4307
(lp4308
I1
asS'2991'
p4309
(lp4310
I-1
asS'1899'
p4311
(lp4312
I1
asS'1894'
p4313
(lp4314
I1
aI1
aI1
asS'1890'
p4315
(lp4316
I1
aI1
asS'1891'
p4317
(lp4318
I1
asS'1893'
p4319
(lp4320
I1
asS'2136'
p4321
(lp4322
sS'2137'
p4323
(lp4324
I1
aI1
asS'2134'
p4325
(lp4326
sS'2135'
p4327
(lp4328
I1
aI1
asS'2132'
p4329
(lp4330
I1
aI1
asS'2133'
p4331
(lp4332
I0
aI0
asS'2130'
p4333
(lp4334
sS'2131'
p4335
(lp4336
sS'951'
p4337
(lp4338
I-1
aI-1
asS'950'
p4339
(lp4340
sS'953'
p4341
(lp4342
I-1
aI-1
aI-1
asS'952'
p4343
(lp4344
sS'955'
p4345
(lp4346
sS'954'
p4347
(lp4348
I0
aI0
asS'2138'
p4349
(lp4350
sS'2139'
p4351
(lp4352
sS'2648'
p4353
(lp4354
I1
asS'2649'
p4355
(lp4356
I0
aI1
asS'2640'
p4357
(lp4358
I0
asS'2641'
p4359
(lp4360
I1
aI1
asS'2642'
p4361
(lp4362
I1
aI1
asS'2643'
p4363
(lp4364
I1
aI1
aI1
asS'2644'
p4365
(lp4366
sS'2645'
p4367
(lp4368
I1
aI1
asS'2646'
p4369
(lp4370
I1
aI1
asS'2647'
p4371
(lp4372
I1
aI1
asS'3429'
p4373
(lp4374
sS'3428'
p4375
(lp4376
sS'3423'
p4377
(lp4378
I1
asS'3422'
p4379
(lp4380
I1
asS'3421'
p4381
(lp4382
I0
asS'3420'
p4383
(lp4384
I1
aI1
aI1
asS'3426'
p4385
(lp4386
sS'3425'
p4387
(lp4388
I1
asS'3424'
p4389
(lp4390
I1
aI1
asS'2002'
p4391
(lp4392
I1
aI1
asS'2003'
p4393
(lp4394
I-1
aI-1
asS'2000'
p4395
(lp4396
sS'2001'
p4397
(lp4398
I-1
aI-1
asS'2006'
p4399
(lp4400
I1
asS'2007'
p4401
(lp4402
sS'2004'
p4403
(lp4404
I0
asS'2005'
p4405
(lp4406
I1
asS'2008'
p4407
(lp4408
I1
aI1
asS'2009'
p4409
(lp4410
I-1
asS'2034'
p4411
(lp4412
I-1
aI-1
asS'1544'
p4413
(lp4414
I1
asS'1268'
p4415
(lp4416
I-1
asS'3026'
p4417
(lp4418
I1
aI1
aI1
aI1
asS'3557'
p4419
(lp4420
I1
aI1
asS'3556'
p4421
(lp4422
sS'3555'
p4423
(lp4424
I1
aI1
asS'3554'
p4425
(lp4426
I0
asS'3553'
p4427
(lp4428
sS'3551'
p4429
(lp4430
I0
asS'3558'
p4431
(lp4432
I1
asS'919'
p4433
(lp4434
sS'2997'
p4435
(lp4436
sS'918'
p4437
(lp4438
sS'2910'
p4439
(lp4440
I1
asS'2911'
p4441
(lp4442
I1
aI1
asS'2912'
p4443
(lp4444
I1
aI1
asS'1798'
p4445
(lp4446
I-1
aI-1
asS'2914'
p4447
(lp4448
I0
asS'2915'
p4449
(lp4450
I0
aI0
aI0
asS'719'
p4451
(lp4452
I1
aI1
asS'718'
p4453
(lp4454
I1
asS'1793'
p4455
(lp4456
sS'2919'
p4457
(lp4458
sS'1791'
p4459
(lp4460
sS'714'
p4461
(lp4462
sS'1797'
p4463
(lp4464
I1
aI-1
aI-1
asS'712'
p4465
(lp4466
I-1
asS'711'
p4467
(lp4468
sS'710'
p4469
(lp4470
I0
asS'716'
p4471
(lp4472
sS'660'
p4473
(lp4474
sS'917'
p4475
(lp4476
I1
asS'1069'
p4477
(lp4478
I1
asS'1068'
p4479
(lp4480
I-1
asS'2179'
p4481
(lp4482
I1
asS'1061'
p4483
(lp4484
I1
asS'1060'
p4485
(lp4486
I1
asS'1063'
p4487
(lp4488
sS'1062'
p4489
(lp4490
I-1
aI-1
asS'1065'
p4491
(lp4492
I1
aI1
asS'1064'
p4493
(lp4494
sS'1067'
p4495
(lp4496
I-1
asS'1066'
p4497
(lp4498
I0
asS'1669'
p4499
(lp4500
I0
asS'1668'
p4501
(lp4502
I1
asS'1667'
p4503
(lp4504
I0
aI0
asS'1666'
p4505
(lp4506
I-1
aI-1
asS'1665'
p4507
(lp4508
I-1
asS'1664'
p4509
(lp4510
I0
aI-1
asS'1663'
p4511
(lp4512
I0
asS'1662'
p4513
(lp4514
I0
asS'1661'
p4515
(lp4516
sS'1660'
p4517
(lp4518
I0
aI0
asS'1087'
p4519
(lp4520
I-1
asS'1086'
p4521
(lp4522
sS'593'
p4523
(lp4524
I-1
asS'592'
p4525
(lp4526
I1
asS'595'
p4527
(lp4528
sS'594'
p4529
(lp4530
I0
aI0
asS'597'
p4531
(lp4532
I1
asS'596'
p4533
(lp4534
I1
asS'599'
p4535
(lp4536
I1
asS'598'
p4537
(lp4538
I1
aI1
aI1
asS'1089'
p4539
(lp4540
I-1
aI-1
asS'1088'
p4541
(lp4542
sS'3140'
p4543
(lp4544
I1
asS'3141'
p4545
(lp4546
I1
aI1
asS'3142'
p4547
(lp4548
I-1
asS'3144'
p4549
(lp4550
I-1
aI-1
asS'3145'
p4551
(lp4552
sS'3146'
p4553
(lp4554
I-1
aI-1
asS'3147'
p4555
(lp4556
I1
asS'3148'
p4557
(lp4558
I0
aI0
asS'2825'
p4559
(lp4560
sS'2826'
p4561
(lp4562
I1
asS'2827'
p4563
(lp4564
I-1
aI-1
aI-1
asS'2822'
p4565
(lp4566
I1
aI1
asS'2823'
p4567
(lp4568
I1
aI1
aI1
asS'3384'
p4569
(lp4570
sS'3382'
p4571
(lp4572
I1
asS'3383'
p4573
(lp4574
I1
aI1
asS'3380'
p4575
(lp4576
I1
asS'3381'
p4577
(lp4578
I1
aI1
asS'3388'
p4579
(lp4580
I-1
asS'713'
p4581
(lp4582
I-1
asS'1409'
p4583
(lp4584
I0
asS'1408'
p4585
(lp4586
I1
asS'1403'
p4587
(lp4588
I1
asS'1402'
p4589
(lp4590
I1
aI1
asS'1401'
p4591
(lp4592
sS'1400'
p4593
(lp4594
I1
asS'1407'
p4595
(lp4596
sS'1404'
p4597
(lp4598
I1
asS'1546'
p4599
(lp4600
I0
aI0
asS'449'
p4601
(lp4602
I1
asS'448'
p4603
(lp4604
I-1
asS'1339'
p4605
(lp4606
I0
asS'1338'
p4607
(lp4608
I1
aI-1
asS'1491'
p4609
(lp4610
I1
asS'693'
p4611
(lp4612
I1
aI1
aI1
asS'443'
p4613
(lp4614
I1
aI1
asS'442'
p4615
(lp4616
I1
asS'441'
p4617
(lp4618
I-1
asS'440'
p4619
(lp4620
I1
asS'447'
p4621
(lp4622
I1
aI1
asS'1330'
p4623
(lp4624
sS'445'
p4625
(lp4626
sS'444'
p4627
(lp4628
sS'1545'
p4629
(lp4630
sS'696'
p4631
(lp4632
I1
aI1
asS'1631'
p4633
(lp4634
I1
asS'697'
p4635
(lp4636
I1
asS'1933'
p4637
(lp4638
I0
asS'39'
p4639
(lp4640
I0
asS'38'
p4641
(lp4642
sS'1540'
p4643
(lp4644
sS'1932'
p4645
(lp4646
I1
asS'30'
p4647
(lp4648
I-1
aI-1
asS'37'
p4649
(lp4650
I1
asS'36'
p4651
(lp4652
sS'35'
p4653
(lp4654
sS'34'
p4655
(lp4656
I0
asS'1537'
p4657
(lp4658
I1
asS'1240'
p4659
(lp4660
I1
asS'1535'
p4661
(lp4662
I1
aI-1
aI1
asS'1242'
p4663
(lp4664
I1
asS'645'
p4665
(lp4666
sS'1244'
p4667
(lp4668
I0
asS'647'
p4669
(lp4670
I1
aI1
asS'1530'
p4671
(lp4672
I-1
asS'649'
p4673
(lp4674
I1
aI1
aI1
aI1
asS'648'
p4675
(lp4676
I1
asS'3098'
p4677
(lp4678
sS'1539'
p4679
(lp4680
I0
asS'1538'
p4681
(lp4682
I0
asS'339'
p4683
(lp4684
I-1
asS'338'
p4685
(lp4686
I0
asS'335'
p4687
(lp4688
I1
asS'334'
p4689
(lp4690
I1
aI1
asS'337'
p4691
(lp4692
I-1
asS'336'
p4693
(lp4694
I1
asS'331'
p4695
(lp4696
I-1
asS'330'
p4697
(lp4698
sS'333'
p4699
(lp4700
I-1
asS'332'
p4701
(lp4702
I-1
aI-1
asS'2061'
p4703
(lp4704
sS'1633'
p4705
(lp4706
I1
asS'543'
p4707
(lp4708
I0
asS'1901'
p4709
(lp4710
I1
asS'3467'
p4711
(lp4712
I1
asS'653'
p4713
(lp4714
I1
asS'3464'
p4715
(lp4716
I-1
asS'1085'
p4717
(lp4718
I-1
asS'8'
p4719
(lp4720
I-1
aI-1
asS'3463'
p4721
(lp4722
I0
aI0
asS'1496'
p4723
(lp4724
I1
asS'842'
p4725
(lp4726
I-1
aI-1
aI-1
asS'1466'
p4727
(lp4728
I-1
asS'841'
p4729
(lp4730
sS'840'
p4731
(lp4732
I0
aI1
asS'3375'
p4733
(lp4734
sS'2854'
p4735
(lp4736
I1
asS'3638'
p4737
(lp4738
I1
asS'3639'
p4739
(lp4740
I1
aI1
asS'3636'
p4741
(lp4742
I0
aI0
asS'3637'
p4743
(lp4744
I1
asS'3634'
p4745
(lp4746
I1
asS'3635'
p4747
(lp4748
sS'3632'
p4749
(lp4750
I1
asS'3633'
p4751
(lp4752
I1
asS'3630'
p4753
(lp4754
sS'3631'
p4755
(lp4756
I1
aI1
aI1
asS'849'
p4757
(lp4758
sS'848'
p4759
(lp4760
sS'2347'
p4761
(lp4762
I1
asS'2341'
p4763
(lp4764
I1
asS'2349'
p4765
(lp4766
I1
aI1
asS'2348'
p4767
(lp4768
I1
aI1
aI1
asS'2469'
p4769
(lp4770
I1
asS'2987'
p4771
(lp4772
I1
aI1
aI1
asS'2067'
p4773
(lp4774
I1
aI-1
asS'3708'
p4775
(lp4776
sS'3709'
p4777
(lp4778
I1
asS'1889'
p4779
(lp4780
sS'1888'
p4781
(lp4782
I-1
asS'1887'
p4783
(lp4784
I1
aI1
asS'3703'
p4785
(lp4786
I0
asS'3700'
p4787
(lp4788
I1
asS'1884'
p4789
(lp4790
I0
aI1
asS'3706'
p4791
(lp4792
sS'3707'
p4793
(lp4794
I1
asS'3704'
p4795
(lp4796
sS'3705'
p4797
(lp4798
I1
asS'2121'
p4799
(lp4800
sS'2120'
p4801
(lp4802
I1
asS'2123'
p4803
(lp4804
I1
aI1
asS'2122'
p4805
(lp4806
I1
aI1
asS'2125'
p4807
(lp4808
I1
asS'2124'
p4809
(lp4810
sS'948'
p4811
(lp4812
sS'949'
p4813
(lp4814
I0
aI0
asS'946'
p4815
(lp4816
I0
asS'2128'
p4817
(lp4818
I1
aI1
asS'944'
p4819
(lp4820
I0
asS'1457'
p4821
(lp4822
I1
asS'942'
p4823
(lp4824
I1
asS'943'
p4825
(lp4826
I1
asS'940'
p4827
(lp4828
sS'941'
p4829
(lp4830
I1
asS'3038'
p4831
(lp4832
sS'2564'
p4833
(lp4834
sS'1594'
p4835
(lp4836
I1
asS'642'
p4837
(lp4838
sS'2653'
p4839
(lp4840
I-1
asS'2652'
p4841
(lp4842
I-1
asS'2651'
p4843
(lp4844
I0
aI0
aI0
asS'2650'
p4845
(lp4846
I1
asS'2657'
p4847
(lp4848
sS'2656'
p4849
(lp4850
I1
asS'2655'
p4851
(lp4852
I-1
asS'2654'
p4853
(lp4854
sS'133'
p4855
(lp4856
I0
aI0
asS'132'
p4857
(lp4858
I1
aI1
aI1
asS'3414'
p4859
(lp4860
I1
asS'3415'
p4861
(lp4862
sS'137'
p4863
(lp4864
I1
asS'136'
p4865
(lp4866
I1
aI1
asS'3410'
p4867
(lp4868
I1
aI1
asS'134'
p4869
(lp4870
I1
asS'1931'
p4871
(lp4872
I1
asS'139'
p4873
(lp4874
I1
aI1
asS'138'
p4875
(lp4876
I-1
aI-1
asS'3418'
p4877
(lp4878
I1
aI1
asS'3419'
p4879
(lp4880
I0
aI0
asS'2019'
p4881
(lp4882
I-1
asS'2018'
p4883
(lp4884
I0
asS'2015'
p4885
(lp4886
I1
aI1
asS'2017'
p4887
(lp4888
sS'2016'
p4889
(lp4890
I0
asS'2011'
p4891
(lp4892
I-1
aI-1
asS'2010'
p4893
(lp4894
I0
aI0
asS'2012'
p4895
(lp4896
I1
asS'183'
p4897
(lp4898
I0
asS'3562'
p4899
(lp4900
I1
aI1
asS'3563'
p4901
(lp4902
I0
aI0
asS'3561'
p4903
(lp4904
I1
asS'3566'
p4905
(lp4906
sS'3567'
p4907
(lp4908
sS'3564'
p4909
(lp4910
I0
asS'3565'
p4911
(lp4912
I-1
asS'1590'
p4913
(lp4914
I1
asS'2903'
p4915
(lp4916
I1
asS'2902'
p4917
(lp4918
I1
asS'2901'
p4919
(lp4920
I1
aI1
aI1
asS'2900'
p4921
(lp4922
I1
asS'2907'
p4923
(lp4924
I1
aI1
asS'709'
p4925
(lp4926
I1
aI1
asS'2905'
p4927
(lp4928
I0
aI0
asS'3035'
p4929
(lp4930
I1
asS'704'
p4931
(lp4932
I1
aI1
aI1
asS'705'
p4933
(lp4934
I1
asS'2909'
p4935
(lp4936
I-1
asS'2908'
p4937
(lp4938
sS'700'
p4939
(lp4940
I1
asS'701'
p4941
(lp4942
I1
asS'702'
p4943
(lp4944
I1
aI1
asS'703'
p4945
(lp4946
I-1
aI-1
asS'89'
p4947
(lp4948
I1
aI1
aI1
asS'1593'
p4949
(lp4950
I1
asS'82'
p4951
(lp4952
I1
aI1
aI1
asS'83'
p4953
(lp4954
I1
asS'80'
p4955
(lp4956
I1
asS'81'
p4957
(lp4958
I-1
asS'87'
p4959
(lp4960
I1
asS'84'
p4961
(lp4962
sS'85'
p4963
(lp4964
I1
asS'1743'
p4965
(lp4966
I1
asS'1659'
p4967
(lp4968
sS'1652'
p4969
(lp4970
I1
aI1
aI1
aI1
asS'1653'
p4971
(lp4972
sS'1650'
p4973
(lp4974
I1
asS'1651'
p4975
(lp4976
I1
aI1
asS'1656'
p4977
(lp4978
sS'1654'
p4979
(lp4980
sS'1655'
p4981
(lp4982
I1
aI1
asS'586'
p4983
(lp4984
sS'3214'
p4985
(lp4986
I1
asS'584'
p4987
(lp4988
I1
aI1
asS'585'
p4989
(lp4990
I-1
asS'582'
p4991
(lp4992
sS'583'
p4993
(lp4994
sS'580'
p4995
(lp4996
I1
aI1
asS'581'
p4997
(lp4998
sS'3216'
p4999
(lp5000
I-1
aI-1
asS'588'
p5001
(lp5002
I1
aI1
asS'589'
p5003
(lp5004
sS'3150'
p5005
(lp5006
I0
asS'3157'
p5007
(lp5008
I1
asS'3156'
p5009
(lp5010
sS'3155'
p5011
(lp5012
I-1
asS'3154'
p5013
(lp5014
I1
asS'1982'
p5015
(lp5016
sS'2835'
p5017
(lp5018
I-1
aI-1
aI-1
asS'2834'
p5019
(lp5020
sS'2833'
p5021
(lp5022
I1
asS'2832'
p5023
(lp5024
I1
aI1
asS'2831'
p5025
(lp5026
I1
asS'2830'
p5027
(lp5028
sS'1436'
p5029
(lp5030
I1
aI1
asS'1437'
p5031
(lp5032
sS'3393'
p5033
(lp5034
I-1
aI-1
asS'1435'
p5035
(lp5036
I1
aI1
aI1
asS'1432'
p5037
(lp5038
I1
asS'1433'
p5039
(lp5040
I0
asS'1430'
p5041
(lp5042
I0
aI0
asS'3396'
p5043
(lp5044
sS'418'
p5045
(lp5046
I-1
asS'3213'
p5047
(lp5048
I-1
asS'1438'
p5049
(lp5050
I-1
aI-1
asS'1439'
p5051
(lp5052
I-1
aI-1
asS'1349'
p5053
(lp5054
I1
aI1
asS'458'
p5055
(lp5056
I1
asS'459'
p5057
(lp5058
I1
asS'450'
p5059
(lp5060
sS'451'
p5061
(lp5062
I1
asS'452'
p5063
(lp5064
I0
asS'1343'
p5065
(lp5066
I1
asS'454'
p5067
(lp5068
sS'1345'
p5069
(lp5070
I-1
aI-1
asS'1346'
p5071
(lp5072
I1
aI1
asS'457'
p5073
(lp5074
I0
asS'3702'
p5075
(lp5076
I-1
asS'1082'
p5077
(lp5078
I0
aI0
asS'1885'
p5079
(lp5080
I1
asS'766'
p5081
(lp5082
sS'517'
p5083
(lp5084
I1
asS'3701'
p5085
(lp5086
sS'3368'
p5087
(lp5088
sS'1883'
p5089
(lp5090
sS'832'
p5091
(lp5092
I-1
asS'1882'
p5093
(lp5094
I0
asS'656'
p5095
(lp5096
sS'657'
p5097
(lp5098
sS'654'
p5099
(lp5100
I1
aI1
asS'655'
p5101
(lp5102
I1
aI1
asS'652'
p5103
(lp5104
sS'3088'
p5105
(lp5106
I1
aI1
asS'650'
p5107
(lp5108
I1
asS'651'
p5109
(lp5110
I1
aI1
asS'3085'
p5111
(lp5112
I1
asS'3084'
p5113
(lp5114
I1
asS'3087'
p5115
(lp5116
I-1
asS'3086'
p5117
(lp5118
I-1
asS'3081'
p5119
(lp5120
I1
asS'3080'
p5121
(lp5122
I1
asS'3083'
p5123
(lp5124
I1
asS'3082'
p5125
(lp5126
I1
aI0
asS'1886'
p5127
(lp5128
I0
asS'314'
p5129
(lp5130
I1
aI1
asS'1992'
p5131
(lp5132
I1
asS'2127'
p5133
(lp5134
I1
aI1
asS'2126'
p5135
(lp5136
I1
aI1
asS'2129'
p5137
(lp5138
I1
asS'947'
p5139
(lp5140
sS'945'
p5141
(lp5142
I1
aI1
asS'54'
p5143
(lp5144
I1
asS'188'
p5145
(lp5146
I-1
aI-1
aI-1
asS'1081'
p5147
(lp5148
I-1
aI-1
asS'322'
p5149
(lp5150
sS'323'
p5151
(lp5152
I-1
asS'3597'
p5153
(lp5154
I0
asS'327'
p5155
(lp5156
I1
aI1
aI1
asS'324'
p5157
(lp5158
I0
asS'328'
p5159
(lp5160
I0
aI0
asS'329'
p5161
(lp5162
I1
aI1
aI1
asS'3629'
p5163
(lp5164
I1
asS'3628'
p5165
(lp5166
I0
asS'3621'
p5167
(lp5168
I1
aI1
aI1
asS'564'
p5169
(lp5170
sS'3623'
p5171
(lp5172
I1
asS'3622'
p5173
(lp5174
sS'3625'
p5175
(lp5176
I1
asS'3624'
p5177
(lp5178
sS'3627'
p5179
(lp5180
sS'3626'
p5181
(lp5182
I-1
aI1
asS'1881'
p5183
(lp5184
sS'2330'
p5185
(lp5186
sS'3070'
p5187
(lp5188
sS'2332'
p5189
(lp5190
I1
aI1
asS'2333'
p5191
(lp5192
I1
asS'2334'
p5193
(lp5194
I0
aI0
asS'2335'
p5195
(lp5196
I1
aI1
asS'2336'
p5197
(lp5198
I1
aI1
asS'2337'
p5199
(lp5200
I1
asS'2338'
p5201
(lp5202
sS'1341'
p5203
(lp5204
I1
asS'3072'
p5205
(lp5206
I0
asS'2537'
p5207
(lp5208
I-1
aI-1
aI-1
asS'3073'
p5209
(lp5210
I1
aI1
asS'1880'
p5211
(lp5212
I1
asS'1591'
p5213
(lp5214
sS'2959'
p5215
(lp5216
sS'3710'
p5217
(lp5218
I1
aI1
asS'3077'
p5219
(lp5220
I1
asS'3078'
p5221
(lp5222
sS'3079'
p5223
(lp5224
I1
asS'2488'
p5225
(lp5226
I1
aI0
aI1
asS'2486'
p5227
(lp5228
sS'2487'
p5229
(lp5230
I1
aI1
asS'2484'
p5231
(lp5232
I1
asS'2485'
p5233
(lp5234
I-1
aI-1
aI-1
asS'2482'
p5235
(lp5236
I1
asS'2483'
p5237
(lp5238
I-1
asS'3252'
p5239
(lp5240
sS'2248'
p5241
(lp5242
sS'2249'
p5243
(lp5244
I-1
aI-1
aI-1
asS'2244'
p5245
(lp5246
I1
aI1
asS'2245'
p5247
(lp5248
I-1
asS'2246'
p5249
(lp5250
sS'2247'
p5251
(lp5252
I1
asS'2240'
p5253
(lp5254
I1
aI1
asS'2241'
p5255
(lp5256
I1
asS'2242'
p5257
(lp5258
I1
asS'2243'
p5259
(lp5260
I1
aI1
aI1
asS'2464'
p5261
(lp5262
sS'994'
p5263
(lp5264
I1
asS'2466'
p5265
(lp5266
I0
asS'2467'
p5267
(lp5268
I1
asS'2460'
p5269
(lp5270
I1
asS'990'
p5271
(lp5272
sS'993'
p5273
(lp5274
sS'2463'
p5275
(lp5276
I1
asS'999'
p5277
(lp5278
I-1
asS'998'
p5279
(lp5280
I1
asS'120'
p5281
(lp5282
I1
asS'121'
p5283
(lp5284
sS'122'
p5285
(lp5286
sS'123'
p5287
(lp5288
sS'3405'
p5289
(lp5290
I1
aI1
asS'3404'
p5291
(lp5292
I1
aI1
asS'126'
p5293
(lp5294
sS'127'
p5295
(lp5296
I1
aI1
asS'3409'
p5297
(lp5298
I1
aI1
asS'3408'
p5299
(lp5300
I0
asS'1020'
p5301
(lp5302
sS'3379'
p5303
(lp5304
I1
aI1
asS'3417'
p5305
(lp5306
I1
asS'1921'
p5307
(lp5308
I1
asS'3378'
p5309
(lp5310
I-1
aI-1
asS'131'
p5311
(lp5312
sS'2068'
p5313
(lp5314
I1
asS'2069'
p5315
(lp5316
sS'2798'
p5317
(lp5318
sS'2799'
p5319
(lp5320
I1
asS'1187'
p5321
(lp5322
sS'2060'
p5323
(lp5324
I1
asS'2793'
p5325
(lp5326
sS'2062'
p5327
(lp5328
I1
asS'2791'
p5329
(lp5330
I-1
asS'2064'
p5331
(lp5332
I1
asS'2797'
p5333
(lp5334
I1
aI1
aI1
asS'2066'
p5335
(lp5336
I-1
aI1
asS'2795'
p5337
(lp5338
I-1
asS'1185'
p5339
(lp5340
I1
aI1
asS'135'
p5341
(lp5342
I0
aI0
aI0
asS'1182'
p5343
(lp5344
I1
aI1
asS'3411'
p5345
(lp5346
I1
asS'1183'
p5347
(lp5348
I1
asS'3371'
p5349
(lp5350
I1
aI1
asS'1181'
p5351
(lp5352
I0
aI0
asS'3579'
p5353
(lp5354
I1
aI1
asS'3578'
p5355
(lp5356
I-1
aI-1
aI-1
asS'3575'
p5357
(lp5358
I0
asS'3574'
p5359
(lp5360
I-1
asS'3577'
p5361
(lp5362
sS'3576'
p5363
(lp5364
I1
asS'3571'
p5365
(lp5366
I0
aI-1
asS'3570'
p5367
(lp5368
sS'3573'
p5369
(lp5370
sS'3572'
p5371
(lp5372
I-1
asS'2666'
p5373
(lp5374
I-1
asS'2667'
p5375
(lp5376
I-1
aI-1
asS'2664'
p5377
(lp5378
I-1
asS'2665'
p5379
(lp5380
I-1
asS'2662'
p5381
(lp5382
sS'2663'
p5383
(lp5384
I1
asS'722'
p5385
(lp5386
I1
asS'2668'
p5387
(lp5388
I-1
aI0
asS'2669'
p5389
(lp5390
I0
aI0
asS'3668'
p5391
(lp5392
I1
aI1
asS'2938'
p5393
(lp5394
I1
aI1
asS'2939'
p5395
(lp5396
I1
aI1
aI1
asS'2936'
p5397
(lp5398
sS'2937'
p5399
(lp5400
sS'2934'
p5401
(lp5402
sS'2935'
p5403
(lp5404
I1
asS'2932'
p5405
(lp5406
I-1
asS'2933'
p5407
(lp5408
I0
asS'2930'
p5409
(lp5410
I0
aI0
asS'2931'
p5411
(lp5412
I1
asS'3595'
p5413
(lp5414
I-1
asS'1645'
p5415
(lp5416
I1
aI1
aI1
asS'1644'
p5417
(lp5418
I1
asS'1647'
p5419
(lp5420
sS'1646'
p5421
(lp5422
I1
asS'1641'
p5423
(lp5424
I1
asS'1640'
p5425
(lp5426
sS'1643'
p5427
(lp5428
I-1
aI-1
asS'1642'
p5429
(lp5430
I1
asS'1649'
p5431
(lp5432
I1
aI1
aI1
asS'1648'
p5433
(lp5434
sS'1742'
p5435
(lp5436
I1
asS'729'
p5437
(lp5438
I0
aI0
asS'579'
p5439
(lp5440
I1
aI1
asS'604'
p5441
(lp5442
I1
aI1
asS'573'
p5443
(lp5444
I1
aI1
asS'572'
p5445
(lp5446
I1
asS'571'
p5447
(lp5448
I1
asS'570'
p5449
(lp5450
sS'576'
p5451
(lp5452
I0
asS'575'
p5453
(lp5454
I-1
asS'574'
p5455
(lp5456
I0
asS'2808'
p5457
(lp5458
I1
asS'2809'
p5459
(lp5460
I1
asS'3168'
p5461
(lp5462
I0
aI0
asS'3169'
p5463
(lp5464
I0
aI0
asS'2802'
p5465
(lp5466
I1
asS'2803'
p5467
(lp5468
sS'2800'
p5469
(lp5470
sS'2801'
p5471
(lp5472
I1
aI1
aI1
asS'2806'
p5473
(lp5474
I-1
asS'2807'
p5475
(lp5476
I1
asS'2804'
p5477
(lp5478
I1
asS'3161'
p5479
(lp5480
I1
aI1
asS'1421'
p5481
(lp5482
I1
asS'2154'
p5483
(lp5484
I1
asS'1997'
p5485
(lp5486
sS'1425'
p5487
(lp5488
sS'3369'
p5489
(lp5490
I1
asS'1426'
p5491
(lp5492
sS'1429'
p5493
(lp5494
I-1
aI-1
asS'1428'
p5495
(lp5496
I0
asS'3366'
p5497
(lp5498
I1
asS'3367'
p5499
(lp5500
I1
aI1
aI1
asS'3360'
p5501
(lp5502
I-1
asS'2404'
p5503
(lp5504
I1
asS'3362'
p5505
(lp5506
I1
asS'3363'
p5507
(lp5508
sS'731'
p5509
(lp5510
I1
asS'730'
p5511
(lp5512
I1
asS'733'
p5513
(lp5514
I1
aI1
asS'2157'
p5515
(lp5516
I0
asS'737'
p5517
(lp5518
I-1
aI-1
asS'736'
p5519
(lp5520
I1
aI1
aI1
asS'739'
p5521
(lp5522
I-1
aI-1
asS'738'
p5523
(lp5524
I-1
aI-1
asS'2151'
p5525
(lp5526
sS'1358'
p5527
(lp5528
I1
aI1
aI1
asS'469'
p5529
(lp5530
I1
asS'468'
p5531
(lp5532
I1
asS'1353'
p5533
(lp5534
I1
aI1
aI-1
asS'1352'
p5535
(lp5536
I1
asS'467'
p5537
(lp5538
I1
asS'466'
p5539
(lp5540
I1
aI1
asS'461'
p5541
(lp5542
I1
asS'1356'
p5543
(lp5544
I-1
asS'1355'
p5545
(lp5546
sS'608'
p5547
(lp5548
sS'1273'
p5549
(lp5550
I1
aI1
asS'937'
p5551
(lp5552
I-1
aI-1
aI-1
asS'936'
p5553
(lp5554
I-1
asS'1519'
p5555
(lp5556
I0
asS'1518'
p5557
(lp5558
I1
aI1
asS'1514'
p5559
(lp5560
I1
asS'1517'
p5561
(lp5562
I-1
aI-1
asS'934'
p5563
(lp5564
I-1
asS'1274'
p5565
(lp5566
sS'1510'
p5567
(lp5568
I1
asS'1004'
p5569
(lp5570
I1
asS'3184'
p5571
(lp5572
I1
aI1
asS'3185'
p5573
(lp5574
I1
aI1
aI1
asS'3186'
p5575
(lp5576
sS'3187'
p5577
(lp5578
sS'3180'
p5579
(lp5580
I-1
asS'3181'
p5581
(lp5582
sS'3182'
p5583
(lp5584
sS'3183'
p5585
(lp5586
I0
asS'3188'
p5587
(lp5588
I0
asS'3189'
p5589
(lp5590
I0
aI0
aI0
asS'3397'
p5591
(lp5592
sS'355'
p5593
(lp5594
I0
asS'353'
p5595
(lp5596
I1
asS'352'
p5597
(lp5598
I1
asS'351'
p5599
(lp5600
I1
asS'350'
p5601
(lp5602
sS'359'
p5603
(lp5604
I1
asS'3107'
p5605
(lp5606
sS'3612'
p5607
(lp5608
sS'2298'
p5609
(lp5610
I1
asS'2323'
p5611
(lp5612
I1
aI1
asS'2322'
p5613
(lp5614
sS'2321'
p5615
(lp5616
I1
asS'2320'
p5617
(lp5618
I-1
asS'2325'
p5619
(lp5620
I0
aI0
asS'2324'
p5621
(lp5622
sS'2329'
p5623
(lp5624
I1
asS'2328'
p5625
(lp5626
I1
aI1
asS'289'
p5627
(lp5628
sS'288'
p5629
(lp5630
sS'280'
p5631
(lp5632
I1
aI1
asS'282'
p5633
(lp5634
I0
aI0
asS'285'
p5635
(lp5636
I-1
aI-1
aI-1
asS'284'
p5637
(lp5638
I-1
asS'287'
p5639
(lp5640
I1
asS'1441'
p5641
(lp5642
I-1
aI-1
asS'1440'
p5643
(lp5644
I-1
aI-1
asS'263'
p5645
(lp5646
I1
asS'262'
p5647
(lp5648
I1
asS'261'
p5649
(lp5650
sS'260'
p5651
(lp5652
I1
asS'267'
p5653
(lp5654
I1
aI1
asS'266'
p5655
(lp5656
sS'265'
p5657
(lp5658
sS'264'
p5659
(lp5660
I1
asS'269'
p5661
(lp5662
I1
asS'268'
p5663
(lp5664
I0
asS'1562'
p5665
(lp5666
I1
asS'2499'
p5667
(lp5668
sS'2498'
p5669
(lp5670
I1
aI1
asS'2491'
p5671
(lp5672
I1
aI1
asS'1296'
p5673
(lp5674
I-1
aI-1
asS'2493'
p5675
(lp5676
sS'2492'
p5677
(lp5678
I1
aI1
asS'2495'
p5679
(lp5680
I1
aI1
aI1
asS'2494'
p5681
(lp5682
I1
asS'2497'
p5683
(lp5684
I1
aI1
asS'2496'
p5685
(lp5686
I1
asS'2193'
p5687
(lp5688
I-1
asS'1566'
p5689
(lp5690
I1
asS'2259'
p5691
(lp5692
I0
aI0
asS'2258'
p5693
(lp5694
sS'2257'
p5695
(lp5696
sS'2256'
p5697
(lp5698
I1
aI1
asS'2254'
p5699
(lp5700
sS'2253'
p5701
(lp5702
I1
asS'2252'
p5703
(lp5704
sS'2251'
p5705
(lp5706
I1
asS'2250'
p5707
(lp5708
sS'2477'
p5709
(lp5710
I0
asS'988'
p5711
(lp5712
I1
asS'3224'
p5713
(lp5714
sS'2473'
p5715
(lp5716
sS'2472'
p5717
(lp5718
sS'2471'
p5719
(lp5720
I-1
aI-1
aI-1
asS'982'
p5721
(lp5722
I1
aI1
asS'983'
p5723
(lp5724
I1
asS'980'
p5725
(lp5726
sS'981'
p5727
(lp5728
I-1
aI-1
aI-1
asS'986'
p5729
(lp5730
sS'987'
p5731
(lp5732
sS'984'
p5733
(lp5734
I1
asS'985'
p5735
(lp5736
I0
asS'115'
p5737
(lp5738
sS'1790'
p5739
(lp5740
I-1
asS'116'
p5741
(lp5742
I1
aI1
asS'110'
p5743
(lp5744
I1
asS'119'
p5745
(lp5746
I1
asS'3432'
p5747
(lp5748
I0
asS'2785'
p5749
(lp5750
sS'2784'
p5751
(lp5752
I1
asS'2787'
p5753
(lp5754
I1
asS'2786'
p5755
(lp5756
I0
aI0
asS'2781'
p5757
(lp5758
I1
asS'2780'
p5759
(lp5760
I0
asS'2783'
p5761
(lp5762
I0
aI1
asS'2782'
p5763
(lp5764
I1
asS'2789'
p5765
(lp5766
I1
asS'2788'
p5767
(lp5768
sS'2079'
p5769
(lp5770
I1
aI1
asS'2078'
p5771
(lp5772
I0
aI0
aI0
asS'2072'
p5773
(lp5774
sS'2071'
p5775
(lp5776
sS'2070'
p5777
(lp5778
I1
asS'2077'
p5779
(lp5780
I1
asS'2076'
p5781
(lp5782
I1
aI1
aI1
asS'2075'
p5783
(lp5784
sS'1388'
p5785
(lp5786
I1
asS'1796'
p5787
(lp5788
I1
asS'3508'
p5789
(lp5790
I1
asS'3504'
p5791
(lp5792
I0
asS'3505'
p5793
(lp5794
I1
aI1
asS'3506'
p5795
(lp5796
I0
aI1
asS'3507'
p5797
(lp5798
I1
aI1
asS'2671'
p5799
(lp5800
I1
asS'2670'
p5801
(lp5802
sS'2673'
p5803
(lp5804
sS'2672'
p5805
(lp5806
sS'2675'
p5807
(lp5808
sS'2674'
p5809
(lp5810
I1
asS'2677'
p5811
(lp5812
I-1
asS'2676'
p5813
(lp5814
I1
aI1
asS'2929'
p5815
(lp5816
sS'2928'
p5817
(lp5818
I1
aI-1
asS'2921'
p5819
(lp5820
I-1
asS'2920'
p5821
(lp5822
sS'2923'
p5823
(lp5824
I-1
asS'2922'
p5825
(lp5826
I-1
asS'2925'
p5827
(lp5828
sS'2924'
p5829
(lp5830
I-1
aI-1
asS'2927'
p5831
(lp5832
I1
asS'2926'
p5833
(lp5834
sS'708'
p5835
(lp5836
I1
asS'2906'
p5837
(lp5838
I1
asS'1630'
p5839
(lp5840
I1
asS'1987'
p5841
(lp5842
I-1
aI-1
aI-1
aI-1
aI-1
asS'1632'
p5843
(lp5844
I1
aI1
asS'3217'
p5845
(lp5846
I-1
asS'1634'
p5847
(lp5848
I1
aI1
asS'3211'
p5849
(lp5850
I-1
aI-1
asS'1980'
p5851
(lp5852
I1
asS'1981'
p5853
(lp5854
I1
asS'1638'
p5855
(lp5856
I1
aI1
asS'1639'
p5857
(lp5858
I-1
aI-1
asS'2904'
p5859
(lp5860
I1
aI1
asS'3218'
p5861
(lp5862
sS'3219'
p5863
(lp5864
I1
aI1
aI1
asS'1988'
p5865
(lp5866
I-1
asS'1989'
p5867
(lp5868
I0
asS'706'
p5869
(lp5870
sS'568'
p5871
(lp5872
sS'569'
p5873
(lp5874
sS'2817'
p5875
(lp5876
I1
asS'2811'
p5877
(lp5878
I1
asS'2810'
p5879
(lp5880
sS'2812'
p5881
(lp5882
I0
asS'560'
p5883
(lp5884
I1
asS'561'
p5885
(lp5886
sS'562'
p5887
(lp5888
I-1
aI-1
asS'563'
p5889
(lp5890
I-1
asS'2819'
p5891
(lp5892
sS'565'
p5893
(lp5894
sS'566'
p5895
(lp5896
sS'567'
p5897
(lp5898
I-1
asS'3178'
p5899
(lp5900
I-1
aI-1
asS'3171'
p5901
(lp5902
sS'3170'
p5903
(lp5904
I1
aI1
asS'3173'
p5905
(lp5906
sS'3172'
p5907
(lp5908
I1
asS'3175'
p5909
(lp5910
I0
asS'3174'
p5911
(lp5912
I1
asS'3177'
p5913
(lp5914
I-1
asS'3176'
p5915
(lp5916
sS'659'
p5917
(lp5918
sS'1188'
p5919
(lp5920
I1
aI0
asS'1189'
p5921
(lp5922
I-1
asS'3377'
p5923
(lp5924
I1
aI1
asS'3376'
p5925
(lp5926
I1
asS'1184'
p5927
(lp5928
I1
asS'3374'
p5929
(lp5930
I1
asS'3373'
p5931
(lp5932
I1
asS'3372'
p5933
(lp5934
I1
asS'1180'
p5935
(lp5936
sS'3370'
p5937
(lp5938
I1
asS'726'
p5939
(lp5940
sS'727'
p5941
(lp5942
I1
asS'1748'
p5943
(lp5944
I1
aI1
asS'1749'
p5945
(lp5946
sS'720'
p5947
(lp5948
I1
asS'721'
p5949
(lp5950
I1
asS'1745'
p5951
(lp5952
sS'1746'
p5953
(lp5954
sS'1747'
p5955
(lp5956
I1
asS'1740'
p5957
(lp5958
sS'1741'
p5959
(lp5960
sS'728'
p5961
(lp5962
sS'1486'
p5963
(lp5964
sS'1164'
p5965
(lp5966
I1
asS'1165'
p5967
(lp5968
sS'1166'
p5969
(lp5970
I-1
asS'1167'
p5971
(lp5972
I1
aI1
asS'1160'
p5973
(lp5974
I1
asS'1161'
p5975
(lp5976
I1
asS'1162'
p5977
(lp5978
I1
asS'1163'
p5979
(lp5980
I1
asS'1623'
p5981
(lp5982
I1
asS'1168'
p5983
(lp5984
I0
asS'1169'
p5985
(lp5986
sS'3092'
p5987
(lp5988
sS'1489'
p5989
(lp5990
I1
asS'1366'
p5991
(lp5992
I-1
asS'2913'
p5993
(lp5994
I1
asS'1488'
p5995
(lp5996
I1
aI1
asS'1367'
p5997
(lp5998
sS'46'
p5999
(lp6000
I1
asS'47'
p6001
(lp6002
I1
aI1
asS'44'
p6003
(lp6004
I0
asS'45'
p6005
(lp6006
I1
asS'42'
p6007
(lp6008
sS'43'
p6009
(lp6010
I1
asS'40'
p6011
(lp6012
I-1
asS'41'
p6013
(lp6014
I-1
aI-1
asS'1568'
p6015
(lp6016
sS'1569'
p6017
(lp6018
sS'1298'
p6019
(lp6020
I1
asS'1299'
p6021
(lp6022
I1
asS'1587'
p6023
(lp6024
I1
asS'1560'
p6025
(lp6026
sS'1293'
p6027
(lp6028
sS'1290'
p6029
(lp6030
sS'1563'
p6031
(lp6032
I1
asS'1564'
p6033
(lp6034
sS'1565'
p6035
(lp6036
I0
asS'1294'
p6037
(lp6038
I-1
asS'1567'
p6039
(lp6040
I1
aI-1
asS'1713'
p6041
(lp6042
I1
aI1
aI1
asS'474'
p6043
(lp6044
I1
aI1
aI1
asS'796'
p6045
(lp6046
I0
asS'591'
p6047
(lp6048
sS'475'
p6049
(lp6050
sS'795'
p6051
(lp6052
sS'1789'
p6053
(lp6054
I1
asS'1716'
p6055
(lp6056
I1
aI1
asS'1715'
p6057
(lp6058
I1
asS'590'
p6059
(lp6060
I0
asS'732'
p6061
(lp6062
I1
asS'1714'
p6063
(lp6064
I1
aI1
asS'472'
p6065
(lp6066
I-1
aI-1
asS'473'
p6067
(lp6068
sS'3195'
p6069
(lp6070
I1
asS'3194'
p6071
(lp6072
I0
aI0
asS'476'
p6073
(lp6074
I1
asS'3192'
p6075
(lp6076
I1
asS'3191'
p6077
(lp6078
I1
asS'3190'
p6079
(lp6080
I1
asS'479'
p6081
(lp6082
I1
asS'2916'
p6083
(lp6084
I-1
asS'3199'
p6085
(lp6086
sS'3198'
p6087
(lp6088
I1
as.