(dp0
S'217'
p1
(lp2
sS'762'
p3
(lp4
sS'3495'
p5
(lp6
sS'3049'
p7
(lp8
Vfood
p9
asS'134'
p10
(lp11
Vfood
p12
aVprice
p13
asS'3041'
p14
(lp15
sS'339'
p16
(lp17
Vfood
p18
asS'3045'
p19
(lp20
sS'3126'
p21
(lp22
Vfood
p23
asS'1548'
p24
(lp25
Vfood
p26
asS'2152'
p27
(lp28
Vfood
p29
asS'813'
p30
(lp31
Vfood
p32
asS'2912'
p33
(lp34
Vservice
p35
asS'1159'
p36
(lp37
sS'2708'
p38
(lp39
sS'2707'
p40
(lp41
sS'3641'
p42
(lp43
sS'1656'
p44
(lp45
Vfood
p46
asS'537'
p47
(lp48
sS'2141'
p49
(lp50
sS'1709'
p51
(lp52
Vfood
p53
asS'924'
p54
(lp55
Vfood
p56
aVserve
p57
aVmilitary_service
p58
asS'3411'
p59
(lp60
sS'1124'
p61
(lp62
Vservice
p63
asS'193'
p64
(lp65
sS'3440'
p66
(lp67
Vatmosphere
p68
aVmonetary_value
p69
asS'83'
p70
(lp71
sS'3471'
p72
(lp73
Vprice
p74
asS'3575'
p75
(lp76
sS'3478'
p77
(lp78
sS'3020'
p79
(lp80
Vprice
p81
asS'2171'
p82
(lp83
sS'1401'
p84
(lp85
sS'2077'
p86
(lp87
sS'586'
p88
(lp89
sS'2769'
p90
(lp91
sS'2609'
p92
(lp93
sS'381'
p94
(lp95
Vfood
p96
asS'109'
p97
(lp98
Vfood
p99
asS'3315'
p100
(lp101
Vfood
p102
asS'3018'
p103
(lp104
sS'2041'
p105
(lp106
Vfood
p107
asS'1380'
p108
(lp109
sS'2575'
p110
(lp111
Vfood
p112
asS'2673'
p113
(lp114
sS'1242'
p115
(lp116
Vfood
p117
asS'2164'
p118
(lp119
Vservice
p120
asS'2459'
p121
(lp122
sS'2591'
p123
(lp124
Vatmosphere
p125
asS'628'
p126
(lp127
Vatmosphere
p128
aVservice
p129
asS'2451'
p130
(lp131
Vmonetary_value
p132
asS'1471'
p133
(lp134
Vatmosphere
p135
asS'179'
p136
(lp137
Vservice
p138
asS'2806'
p139
(lp140
sS'3292'
p141
(lp142
Vservice
p143
asS'2882'
p144
(lp145
Vfood
p146
asS'2202'
p147
(lp148
sS'3368'
p149
(lp150
sS'2205'
p151
(lp152
Vfood
p153
aVatmosphere
p154
asS'3081'
p155
(lp156
Vfood
p157
asS'2811'
p158
(lp159
sS'2186'
p160
(lp161
Vfood
p162
aVservice
p163
asS'1593'
p164
(lp165
sS'3077'
p166
(lp167
sS'3170'
p168
(lp169
sS'2211'
p170
(lp171
Vfood
p172
asS'3681'
p173
(lp174
Vfood
p175
aVprice
p176
aVservice
p177
asS'3372'
p178
(lp179
sS'1180'
p180
(lp181
sS'3208'
p182
(lp183
Vfood
p184
aVambiance
p185
asS'1455'
p186
(lp187
Vservice
p188
asS'1105'
p189
(lp190
sS'2751'
p191
(lp192
Vservice
p193
asS'2105'
p194
(lp195
Vfood
p196
asS'882'
p197
(lp198
Vfood
p199
aVatmosphere
p200
asS'742'
p201
(lp202
Vatmosphere
p203
asS'745'
p204
(lp205
Vservice
p206
asS'746'
p207
(lp208
Vfood
p209
aVprice
p210
asS'2630'
p211
(lp212
Vservice
p213
asS'2460'
p214
(lp215
sS'1057'
p216
(lp217
Vservice
p218
asS'3343'
p219
(lp220
Vfood
p221
asS'1194'
p222
(lp223
Vserve
p224
asS'870'
p225
(lp226
Vfood
p227
aVprice
p228
aVmonetary_value
p229
asS'2740'
p230
(lp231
sS'1112'
p232
(lp233
sS'2507'
p234
(lp235
Vfood
p236
aVservice
p237
asS'1293'
p238
(lp239
Vfood
p240
asS'3188'
p241
(lp242
Vfood
p243
asS'1698'
p244
(lp245
sS'201'
p246
(lp247
Vfood
p248
aVprice
p249
aVmonetary_value
p250
asS'776'
p251
(lp252
Vfood
p253
asS'1273'
p254
(lp255
Vfood
p256
asS'1884'
p257
(lp258
Vfood
p259
asS'3358'
p260
(lp261
sS'1609'
p262
(lp263
Vservice
p264
asS'3546'
p265
(lp266
sS'948'
p267
(lp268
Vfood
p269
asS'1579'
p270
(lp271
sS'1769'
p272
(lp273
s.