(dp0
S'643'
p1
(lp2
Vrestaurant
p3
asS'344'
p4
(lp5
sS'345'
p6
(lp7
Vservice
p8
asS'346'
p9
(lp10
Vprice
p11
ag3
asS'347'
p12
(lp13
g8
asS'340'
p14
(lp15
Vfood
p16
ag11
asS'341'
p17
(lp18
g16
asS'342'
p19
(lp20
g3
asS'343'
p21
(lp22
g8
ag3
asS'348'
p23
(lp24
g16
asS'349'
p25
(lp26
sS'2318'
p27
(lp28
g16
asS'2316'
p29
(lp30
g16
ag3
asS'2317'
p31
(lp32
g16
asS'2314'
p33
(lp34
g8
asS'2315'
p35
(lp36
g3
asS'2312'
p37
(lp38
g3
ag16
asS'2311'
p39
(lp40
g3
ag8
asS'2184'
p41
(lp42
g11
ag16
asS'298'
p43
(lp44
g16
asS'299'
p45
(lp46
g8
ag3
asS'296'
p47
(lp48
g16
ag3
aVambience
p49
asS'297'
p50
(lp51
g16
ag49
asS'294'
p52
(lp53
g3
asS'295'
p54
(lp55
sS'292'
p56
(lp57
g3
asS'293'
p58
(lp59
sS'291'
p60
(lp61
sS'587'
p62
(lp63
sS'270'
p64
(lp65
g16
ag3
ag49
ag8
asS'271'
p66
(lp67
g3
ag8
asS'272'
p68
(lp69
g16
asS'273'
p70
(lp71
g3
ag8
asS'274'
p72
(lp73
g3
ag8
asS'275'
p74
(lp75
g8
asS'276'
p76
(lp77
g3
asS'277'
p78
(lp79
g16
ag49
asS'278'
p80
(lp81
g16
ag8
asS'279'
p82
(lp83
g3
ag49
asS'58'
p84
(lp85
g16
ag3
asS'2268'
p86
(lp87
g49
ag3
asS'2269'
p88
(lp89
sS'2262'
p90
(lp91
g8
ag3
ag16
asS'2263'
p92
(lp93
g8
asS'2260'
p94
(lp95
sS'2261'
p96
(lp97
g11
asS'2267'
p98
(lp99
g49
ag8
asS'2442'
p100
(lp101
sS'2443'
p102
(lp103
g16
ag8
ag3
asS'2440'
p104
(lp105
g8
asS'2441'
p106
(lp107
g3
asS'2446'
p108
(lp109
g49
asS'2447'
p110
(lp111
sS'2444'
p112
(lp113
g16
asS'2445'
p114
(lp115
g16
asS'2448'
p116
(lp117
g3
ag16
asS'2449'
p118
(lp119
g16
ag3
asS'2189'
p120
(lp121
g8
asS'109'
p122
(lp123
g3
ag16
asS'102'
p124
(lp125
g3
asS'103'
p126
(lp127
g3
asS'101'
p128
(lp129
g3
asS'2042'
p130
(lp131
g11
asS'2040'
p132
(lp133
sS'2041'
p134
(lp135
g49
asS'1297'
p136
(lp137
sS'2839'
p138
(lp139
g3
asS'2838'
p140
(lp141
g3
ag8
asS'3159'
p142
(lp143
g16
asS'3519'
p144
(lp145
g11
ag49
ag3
asS'3518'
p146
(lp147
g16
asS'3513'
p148
(lp149
g8
ag3
asS'3512'
p150
(lp151
g3
ag8
ag49
asS'3511'
p152
(lp153
g3
ag8
asS'3510'
p154
(lp155
g8
ag3
asS'3517'
p156
(lp157
g16
asS'3516'
p158
(lp159
g11
ag16
asS'3515'
p160
(lp161
g3
asS'3514'
p162
(lp163
sS'2688'
p164
(lp165
g16
ag11
asS'2689'
p166
(lp167
g8
asS'2686'
p168
(lp169
g3
ag8
asS'2687'
p170
(lp171
sS'1785'
p172
(lp173
g16
ag8
asS'2681'
p174
(lp175
g16
asS'3391'
p176
(lp177
sS'1434'
p178
(lp179
g16
ag3
asS'98'
p180
(lp181
g16
asS'3392'
p182
(lp183
sS'91'
p184
(lp185
sS'90'
p186
(lp187
g11
asS'93'
p188
(lp189
g3
ag8
asS'92'
p190
(lp191
g3
asS'95'
p192
(lp193
g16
ag3
asS'94'
p194
(lp195
g49
ag8
ag3
asS'97'
p196
(lp197
g16
asS'96'
p198
(lp199
sS'3207'
p200
(lp201
g16
ag49
asS'3206'
p202
(lp203
sS'1621'
p204
(lp205
g16
ag8
asS'3204'
p206
(lp207
g3
ag8
asS'1627'
p208
(lp209
g8
asS'1994'
p210
(lp211
g16
asS'1625'
p212
(lp213
g49
ag3
asS'1624'
p214
(lp215
g16
ag49
ag8
asS'1998'
p216
(lp217
sS'1431'
p218
(lp219
sS'3209'
p220
(lp221
g3
asS'3208'
p222
(lp223
sS'2860'
p224
(lp225
sS'2861'
p226
(lp227
g3
ag11
asS'2862'
p228
(lp229
g3
ag8
asS'2863'
p230
(lp231
sS'2864'
p232
(lp233
g3
asS'558'
p234
(lp235
g3
asS'555'
p236
(lp237
g3
asS'554'
p238
(lp239
sS'557'
p240
(lp241
g8
asS'556'
p242
(lp243
g49
ag8
ag3
ag11
ag16
asS'551'
p244
(lp245
sS'550'
p246
(lp247
g16
ag3
ag8
asS'553'
p248
(lp249
g8
asS'552'
p250
(lp251
g16
asS'1199'
p252
(lp253
g16
asS'1198'
p254
(lp255
g3
asS'1191'
p256
(lp257
g3
asS'3343'
p258
(lp259
g16
asS'3340'
p260
(lp261
g16
ag3
asS'3341'
p262
(lp263
g3
ag8
asS'1195'
p264
(lp265
g11
ag16
asS'1194'
p266
(lp267
sS'1197'
p268
(lp269
sS'1196'
p270
(lp271
g8
asS'1759'
p272
(lp273
sS'1756'
p274
(lp275
g11
asS'1755'
p276
(lp277
g16
asS'1750'
p278
(lp279
g3
asS'1177'
p280
(lp281
sS'1176'
p282
(lp283
g16
asS'1175'
p284
(lp285
g16
ag3
asS'1174'
p286
(lp287
g3
ag8
asS'1173'
p288
(lp289
g16
asS'1171'
p290
(lp291
g49
asS'1170'
p292
(lp293
sS'1179'
p294
(lp295
g3
asS'1178'
p296
(lp297
sS'511'
p298
(lp299
g16
asS'510'
p300
(lp301
g11
asS'1005'
p302
(lp303
g3
asS'644'
p304
(lp305
sS'1285'
p306
(lp307
sS'1287'
p308
(lp309
g3
ag16
asS'1286'
p310
(lp311
g3
ag8
asS'1281'
p312
(lp313
sS'1280'
p314
(lp315
sS'1283'
p316
(lp317
g16
asS'1282'
p318
(lp319
g3
asS'879'
p320
(lp321
sS'1289'
p322
(lp323
g16
asS'1288'
p324
(lp325
g16
ag3
asS'514'
p326
(lp327
g8
asS'1579'
p328
(lp329
sS'1578'
p330
(lp331
g16
asS'689'
p332
(lp333
g3
asS'688'
p334
(lp335
g3
asS'877'
p336
(lp337
sS'685'
p338
(lp339
g16
asS'1572'
p340
(lp341
g8
ag3
asS'1571'
p342
(lp343
sS'686'
p344
(lp345
sS'1577'
p346
(lp347
g16
asS'680'
p348
(lp349
g3
asS'1575'
p350
(lp351
g3
ag8
asS'1574'
p352
(lp353
g8
ag3
asS'1227'
p354
(lp355
g16
asS'875'
p356
(lp357
g3
asS'2818'
p358
(lp359
g16
ag8
asS'622'
p360
(lp361
g3
asS'872'
p362
(lp363
g49
ag3
asS'873'
p364
(lp365
g3
asS'3436'
p366
(lp367
g3
asS'1295'
p368
(lp369
g8
asS'871'
p370
(lp371
g8
asS'2037'
p372
(lp373
g16
ag8
ag3
ag49
asS'2740'
p374
(lp375
sS'1243'
p376
(lp377
g3
asS'2743'
p378
(lp379
g3
asS'1371'
p380
(lp381
g16
asS'1370'
p382
(lp383
g16
asS'1373'
p384
(lp385
sS'404'
p386
(lp387
g8
asS'1375'
p388
(lp389
sS'1374'
p390
(lp391
g3
asS'1377'
p392
(lp393
g3
asS'400'
p394
(lp395
g3
asS'1379'
p396
(lp397
sS'1378'
p398
(lp399
g8
asS'409'
p400
(lp401
g11
ag16
ag8
asS'408'
p402
(lp403
g3
ag16
asS'453'
p404
(lp405
g3
asS'1344'
p406
(lp407
g8
asS'2746'
p408
(lp409
g3
ag8
asS'1245'
p410
(lp411
sS'379'
p412
(lp413
g11
asS'378'
p414
(lp415
g16
ag3
asS'370'
p416
(lp417
sS'375'
p418
(lp419
g16
ag3
asS'377'
p420
(lp421
g49
asS'391'
p422
(lp423
g3
ag16
asS'390'
p424
(lp425
g8
asS'397'
p426
(lp427
g16
ag8
asS'396'
p428
(lp429
g16
ag3
asS'395'
p430
(lp431
g11
asS'394'
p432
(lp433
g3
ag49
asS'2309'
p434
(lp435
g8
asS'2308'
p436
(lp437
sS'2301'
p438
(lp439
sS'2300'
p440
(lp441
g8
asS'2303'
p442
(lp443
g3
asS'2302'
p444
(lp445
g3
ag16
asS'2305'
p446
(lp447
g8
ag16
asS'2304'
p448
(lp449
sS'2307'
p450
(lp451
g3
ag49
asS'2306'
p452
(lp453
g16
asS'247'
p454
(lp455
g16
ag49
ag3
asS'246'
p456
(lp457
sS'241'
p458
(lp459
g3
asS'240'
p460
(lp461
g3
asS'249'
p462
(lp463
g3
asS'248'
p464
(lp465
g8
ag49
asS'2275'
p466
(lp467
g3
asS'2274'
p468
(lp469
g11
ag8
ag3
asS'2277'
p470
(lp471
g8
asS'2276'
p472
(lp473
g16
ag49
ag3
ag8
asS'2271'
p474
(lp475
g3
ag11
ag16
ag8
asS'2273'
p476
(lp477
g16
ag8
asS'2272'
p478
(lp479
sS'2279'
p480
(lp481
g11
ag3
asS'2278'
p482
(lp483
g49
asS'2459'
p484
(lp485
g8
asS'2458'
p486
(lp487
g49
ag3
ag16
ag8
asS'2455'
p488
(lp489
g3
asS'2454'
p490
(lp491
sS'2457'
p492
(lp493
sS'2456'
p494
(lp495
g8
ag16
asS'2451'
p496
(lp497
g11
asS'2450'
p498
(lp499
g3
ag16
asS'2453'
p500
(lp501
g8
ag3
asS'2452'
p502
(lp503
g3
asS'179'
p504
(lp505
g8
asS'178'
p506
(lp507
g16
asS'177'
p508
(lp509
g49
asS'176'
p510
(lp511
g3
asS'175'
p512
(lp513
g3
asS'174'
p514
(lp515
g16
ag49
ag8
asS'173'
p516
(lp517
g16
ag3
asS'3698'
p518
(lp519
g16
asS'3699'
p520
(lp521
g16
ag8
asS'2053'
p522
(lp523
sS'2052'
p524
(lp525
g3
asS'2054'
p526
(lp527
g49
asS'2057'
p528
(lp529
g16
asS'2059'
p530
(lp531
sS'2058'
p532
(lp533
sS'3692'
p534
(lp535
g3
ag8
ag16
asS'3693'
p536
(lp537
g16
asS'3694'
p538
(lp539
sS'3695'
p540
(lp541
g16
asS'3696'
p542
(lp543
g11
ag3
ag16
asS'3697'
p544
(lp545
g3
ag16
asS'1501'
p546
(lp547
g3
asS'3089'
p548
(lp549
sS'1507'
p550
(lp551
sS'3526'
p552
(lp553
sS'3527'
p554
(lp555
g16
asS'3524'
p556
(lp557
g16
asS'3525'
p558
(lp559
sS'3520'
p560
(lp561
g3
ag16
asS'3521'
p562
(lp563
sS'1508'
p564
(lp565
g8
asS'1509'
p566
(lp567
sS'1977'
p568
(lp569
g8
ag3
asS'658'
p570
(lp571
g3
asS'2699'
p572
(lp573
g3
asS'1976'
p574
(lp575
sS'2697'
p576
(lp577
g49
ag16
asS'2696'
p578
(lp579
g16
asS'2695'
p580
(lp581
g3
asS'2694'
p582
(lp583
sS'2693'
p584
(lp585
g16
ag8
asS'1603'
p586
(lp587
g3
asS'2691'
p588
(lp589
g16
asS'2690'
p590
(lp591
sS'3226'
p592
(lp593
g8
ag16
asS'1973'
p594
(lp595
g11
asS'3220'
p596
(lp597
g3
asS'3223'
p598
(lp599
g16
ag3
asS'1606'
p600
(lp601
g3
asS'1362'
p602
(lp603
sS'3232'
p604
(lp605
g8
asS'3233'
p606
(lp607
g3
asS'3230'
p608
(lp609
g16
ag49
asS'3236'
p610
(lp611
g3
asS'3237'
p612
(lp613
sS'3234'
p614
(lp615
g16
ag49
asS'1619'
p616
(lp617
sS'1616'
p618
(lp619
g3
asS'1617'
p620
(lp621
g3
asS'1614'
p622
(lp623
g3
ag16
asS'3239'
p624
(lp625
sS'1960'
p626
(lp627
g8
ag16
ag49
asS'1961'
p628
(lp629
g3
ag8
asS'1610'
p630
(lp631
g16
asS'1611'
p632
(lp633
sS'2063'
p634
(lp635
g3
asS'1363'
p636
(lp637
g16
asS'2872'
p638
(lp639
g3
asS'2871'
p640
(lp641
g3
ag49
asS'2877'
p642
(lp643
sS'2876'
p644
(lp645
sS'2875'
p646
(lp647
g11
ag16
asS'2879'
p648
(lp649
g16
ag11
ag8
ag3
asS'2878'
p650
(lp651
g3
asS'3355'
p652
(lp653
g16
asS'3354'
p654
(lp655
sS'3353'
p656
(lp657
g16
ag8
ag49
asS'3352'
p658
(lp659
g16
ag3
asS'3359'
p660
(lp661
g16
asS'3358'
p662
(lp663
sS'1768'
p664
(lp665
sS'1769'
p666
(lp667
sS'1760'
p668
(lp669
g49
asS'1766'
p670
(lp671
g16
asS'1767'
p672
(lp673
g3
asS'1765'
p674
(lp675
g3
asS'1788'
p676
(lp677
g16
ag8
asS'1140'
p678
(lp679
g16
ag3
ag8
asS'1146'
p680
(lp681
g8
asS'1147'
p682
(lp683
sS'1144'
p684
(lp685
sS'1145'
p686
(lp687
sS'1148'
p688
(lp689
g3
asS'1149'
p690
(lp691
sS'768'
p692
(lp693
g49
ag8
asS'769'
p694
(lp695
g16
asS'2402'
p696
(lp697
g16
ag8
ag49
asS'692'
p698
(lp699
g3
ag8
asS'1547'
p700
(lp701
g3
ag8
asS'690'
p702
(lp703
g11
ag49
asS'691'
p704
(lp705
g16
asS'1542'
p706
(lp707
g16
ag3
asS'1543'
p708
(lp709
g3
asS'694'
p710
(lp711
g8
asS'1541'
p712
(lp713
g3
asS'698'
p714
(lp715
g3
asS'699'
p716
(lp717
g16
asS'1548'
p718
(lp719
g16
asS'1549'
p720
(lp721
g16
ag3
asS'542'
p722
(lp723
g3
asS'762'
p724
(lp725
g8
ag49
asS'540'
p726
(lp727
g3
asS'541'
p728
(lp729
sS'547'
p730
(lp731
g16
ag3
asS'544'
p732
(lp733
g3
asS'763'
p734
(lp735
g8
asS'548'
p736
(lp737
g3
asS'549'
p738
(lp739
sS'1782'
p740
(lp741
sS'761'
p742
(lp743
sS'1784'
p744
(lp745
g16
asS'2968'
p746
(lp747
g3
ag49
ag8
asS'1941'
p748
(lp749
sS'1786'
p750
(lp751
g11
ag8
asS'1787'
p752
(lp753
sS'414'
p754
(lp755
g16
ag8
ag3
asS'415'
p756
(lp757
g16
asS'416'
p758
(lp759
g16
asS'417'
p760
(lp761
g16
ag3
asS'410'
p762
(lp763
g8
ag16
asS'411'
p764
(lp765
sS'412'
p766
(lp767
g16
ag3
ag49
asS'413'
p768
(lp769
g3
ag49
asS'1384'
p770
(lp771
g16
ag11
ag3
asS'1385'
p772
(lp773
g3
ag8
asS'1386'
p774
(lp775
g16
ag8
ag3
ag49
asS'1387'
p776
(lp777
g16
ag3
asS'1380'
p778
(lp779
sS'1381'
p780
(lp781
g16
ag3
asS'1382'
p782
(lp783
sS'1383'
p784
(lp785
g8
ag3
asS'2769'
p786
(lp787
sS'3583'
p788
(lp789
g49
asS'368'
p790
(lp791
g16
ag3
asS'369'
p792
(lp793
g16
asS'366'
p794
(lp795
g3
asS'367'
p796
(lp797
sS'364'
p798
(lp799
g3
ag8
asS'365'
p800
(lp801
g16
ag3
asS'362'
p802
(lp803
g3
asS'363'
p804
(lp805
g16
ag8
asS'380'
p806
(lp807
sS'381'
p808
(lp809
g3
asS'382'
p810
(lp811
g16
asS'385'
p812
(lp813
g3
asS'386'
p814
(lp815
sS'387'
p816
(lp817
sS'388'
p818
(lp819
g11
ag3
asS'3215'
p820
(lp821
sS'2065'
p822
(lp823
sS'2792'
p824
(lp825
sS'2190'
p826
(lp827
sS'2191'
p828
(lp829
g8
asS'2192'
p830
(lp831
g3
ag16
asS'259'
p832
(lp833
g16
ag3
ag8
asS'2194'
p834
(lp835
g3
asS'2195'
p836
(lp837
g8
asS'2196'
p838
(lp839
sS'2197'
p840
(lp841
g16
ag3
asS'2198'
p842
(lp843
sS'2199'
p844
(lp845
g16
asS'250'
p846
(lp847
g49
ag3
ag8
ag16
asS'256'
p848
(lp849
g49
ag8
asS'257'
p850
(lp851
g16
asS'254'
p852
(lp853
g49
ag3
asS'255'
p854
(lp855
g8
asS'2200'
p856
(lp857
g49
asS'2201'
p858
(lp859
g16
asS'2202'
p860
(lp861
sS'2203'
p862
(lp863
sS'2204'
p864
(lp865
g3
ag8
asS'2205'
p866
(lp867
g16
ag3
asS'2206'
p868
(lp869
sS'2207'
p870
(lp871
g49
asS'2208'
p872
(lp873
sS'2209'
p874
(lp875
g16
ag3
asS'2428'
p876
(lp877
g16
ag3
asS'2429'
p878
(lp879
g3
asS'2400'
p880
(lp881
g16
ag3
asS'2420'
p882
(lp883
g3
asS'2421'
p884
(lp885
g16
ag8
asS'2422'
p886
(lp887
g16
ag8
ag3
asS'2423'
p888
(lp889
sS'2424'
p890
(lp891
g3
asS'2425'
p892
(lp893
g8
asS'2426'
p894
(lp895
g16
asS'2427'
p896
(lp897
g11
ag3
asS'2432'
p898
(lp899
g3
asS'168'
p900
(lp901
sS'169'
p902
(lp903
g3
asS'164'
p904
(lp905
g3
asS'165'
p906
(lp907
g16
asS'166'
p908
(lp909
g8
asS'167'
p910
(lp911
sS'160'
p912
(lp913
g3
ag16
asS'161'
p914
(lp915
g3
asS'162'
p916
(lp917
g16
ag3
asS'163'
p918
(lp919
g8
asS'3689'
p920
(lp921
g16
asS'3688'
p922
(lp923
g49
ag3
asS'3683'
p924
(lp925
g16
ag3
asS'3682'
p926
(lp927
sS'3681'
p928
(lp929
g16
ag3
ag8
asS'3680'
p930
(lp931
g49
asS'3687'
p932
(lp933
sS'3686'
p934
(lp935
g49
asS'3685'
p936
(lp937
sS'3684'
p938
(lp939
g3
asS'2796'
p940
(lp941
g16
asS'3257'
p942
(lp943
g3
asS'2514'
p944
(lp945
g8
ag49
asS'2515'
p946
(lp947
g3
asS'2516'
p948
(lp949
g3
asS'2517'
p950
(lp951
g16
ag3
ag8
asS'2511'
p952
(lp953
sS'2512'
p954
(lp955
g16
ag11
ag8
asS'2513'
p956
(lp957
g16
asS'2734'
p958
(lp959
g16
ag49
ag8
ag3
asS'2735'
p960
(lp961
g3
asS'2736'
p962
(lp963
g3
asS'2737'
p964
(lp965
g16
ag3
ag8
asS'2730'
p966
(lp967
g3
asS'2733'
p968
(lp969
g16
ag8
asS'2738'
p970
(lp971
g3
asS'2739'
p972
(lp973
sS'3531'
p974
(lp975
g16
ag3
asS'3530'
p976
(lp977
g16
asS'3533'
p978
(lp979
g3
asS'3532'
p980
(lp981
g3
ag49
asS'3535'
p982
(lp983
g16
ag11
ag3
ag8
asS'3534'
p984
(lp985
g3
asS'3537'
p986
(lp987
g3
ag8
asS'3536'
p988
(lp989
g16
asS'3539'
p990
(lp991
g16
ag3
asS'3538'
p992
(lp993
g3
asS'1814'
p994
(lp995
sS'1815'
p996
(lp997
sS'1816'
p998
(lp999
g3
asS'1817'
p1000
(lp1001
sS'1811'
p1002
(lp1003
g3
ag16
asS'1093'
p1004
(lp1005
g3
ag8
asS'1818'
p1006
(lp1007
g8
asS'1819'
p1008
(lp1009
g49
asS'671'
p1010
(lp1011
g16
ag3
asS'1609'
p1012
(lp1013
g8
asS'1608'
p1014
(lp1015
g16
ag3
asS'3229'
p1016
(lp1017
g49
ag16
asS'3228'
p1018
(lp1019
g16
ag3
asS'1979'
p1020
(lp1021
sS'3225'
p1022
(lp1023
g8
asS'1600'
p1024
(lp1025
g16
asS'1975'
p1026
(lp1027
sS'1602'
p1028
(lp1029
g8
ag16
asS'3221'
p1030
(lp1031
sS'1972'
p1032
(lp1033
g16
asS'1971'
p1034
(lp1035
g3
asS'3222'
p1036
(lp1037
sS'809'
p1038
(lp1039
g16
ag11
asS'808'
p1040
(lp1041
sS'803'
p1042
(lp1043
g16
ag3
asS'802'
p1044
(lp1045
g16
asS'801'
p1046
(lp1047
g8
asS'800'
p1048
(lp1049
g16
asS'804'
p1050
(lp1051
g3
asS'2848'
p1052
(lp1053
g16
ag3
asS'2849'
p1054
(lp1055
sS'2846'
p1056
(lp1057
g16
asS'2847'
p1058
(lp1059
g3
ag16
ag8
asS'2844'
p1060
(lp1061
g3
asS'2845'
p1062
(lp1063
g3
ag8
asS'2842'
p1064
(lp1065
sS'2843'
p1066
(lp1067
g3
ag16
asS'2840'
p1068
(lp1069
g8
asS'2841'
p1070
(lp1071
g16
asS'3320'
p1072
(lp1073
g16
ag11
ag3
asS'3321'
p1074
(lp1075
g49
ag3
asS'3322'
p1076
(lp1077
g8
asS'3323'
p1078
(lp1079
g8
asS'3324'
p1080
(lp1081
g3
asS'3325'
p1082
(lp1083
g8
asS'3326'
p1084
(lp1085
sS'3327'
p1086
(lp1087
g16
ag8
ag3
asS'3328'
p1088
(lp1089
g16
ag8
asS'1777'
p1090
(lp1091
sS'1771'
p1092
(lp1093
g16
asS'1770'
p1094
(lp1095
g16
ag3
ag49
asS'1779'
p1096
(lp1097
g3
ag49
asS'1778'
p1098
(lp1099
g49
ag16
asS'321'
p1100
(lp1101
g3
asS'2998'
p1102
(lp1103
g16
ag3
asS'1159'
p1104
(lp1105
g16
ag3
asS'1158'
p1106
(lp1107
g16
ag3
asS'1550'
p1108
(lp1109
g16
asS'1155'
p1110
(lp1111
g3
asS'1154'
p1112
(lp1113
g3
asS'1157'
p1114
(lp1115
sS'1156'
p1116
(lp1117
g3
asS'1151'
p1118
(lp1119
g3
asS'1150'
p1120
(lp1121
sS'1153'
p1122
(lp1123
sS'1152'
p1124
(lp1125
sS'59'
p1126
(lp1127
g49
asS'1554'
p1128
(lp1129
g8
ag49
ag3
asS'1551'
p1130
(lp1131
g49
asS'2999'
p1132
(lp1133
sS'1553'
p1134
(lp1135
g49
asS'1552'
p1136
(lp1137
g3
asS'1555'
p1138
(lp1139
g3
asS'3039'
p1140
(lp1141
g16
ag3
asS'1557'
p1142
(lp1143
sS'1556'
p1144
(lp1145
sS'3034'
p1146
(lp1147
g8
asS'1558'
p1148
(lp1149
g3
ag16
ag8
asS'2992'
p1150
(lp1151
g3
ag8
asS'56'
p1152
(lp1153
g3
asS'51'
p1154
(lp1155
g3
asS'2995'
p1156
(lp1157
sS'53'
p1158
(lp1159
g16
ag3
asS'3033'
p1160
(lp1161
g8
ag49
ag16
asS'537'
p1162
(lp1163
sS'55'
p1164
(lp1165
sS'533'
p1166
(lp1167
g8
asS'532'
p1168
(lp1169
g16
ag3
ag49
asS'531'
p1170
(lp1171
g16
asS'530'
p1172
(lp1173
sS'57'
p1174
(lp1175
g3
asS'539'
p1176
(lp1177
g3
asS'538'
p1178
(lp1179
g8
asS'2993'
p1180
(lp1181
g16
ag49
asS'2994'
p1182
(lp1183
sS'1906'
p1184
(lp1185
g3
asS'3295'
p1186
(lp1187
sS'52'
p1188
(lp1189
g3
asS'3296'
p1190
(lp1191
g8
asS'1905'
p1192
(lp1193
g49
asS'536'
p1194
(lp1195
sS'1902'
p1196
(lp1197
g16
ag3
asS'3291'
p1198
(lp1199
g16
asS'429'
p1200
(lp1201
g16
ag3
asS'428'
p1202
(lp1203
g16
ag3
asS'1900'
p1204
(lp1205
g16
asS'1399'
p1206
(lp1207
g3
ag16
asS'1398'
p1208
(lp1209
g16
ag49
ag8
ag3
asS'423'
p1210
(lp1211
g3
asS'1394'
p1212
(lp1213
g49
asS'1393'
p1214
(lp1215
g3
ag16
ag49
asS'1392'
p1216
(lp1217
g3
asS'427'
p1218
(lp1219
g16
asS'426'
p1220
(lp1221
g49
asS'854'
p1222
(lp1223
sS'3453'
p1224
(lp1225
g3
asS'3074'
p1226
(lp1227
g16
asS'3450'
p1228
(lp1229
g16
ag3
asS'857'
p1230
(lp1231
g3
asS'850'
p1232
(lp1233
sS'1423'
p1234
(lp1235
g3
asS'1321'
p1236
(lp1237
g16
ag3
asS'258'
p1238
(lp1239
g3
asS'1840'
p1240
(lp1241
g3
asS'1970'
p1242
(lp1243
g49
ag16
asS'1424'
p1244
(lp1245
g16
ag3
asS'2331'
p1246
(lp1247
sS'3475'
p1248
(lp1249
sS'2183'
p1250
(lp1251
g16
ag8
ag3
ag49
asS'2187'
p1252
(lp1253
g8
ag16
asS'2186'
p1254
(lp1255
g3
asS'229'
p1256
(lp1257
sS'228'
p1258
(lp1259
sS'227'
p1260
(lp1261
g3
asS'226'
p1262
(lp1263
sS'225'
p1264
(lp1265
sS'224'
p1266
(lp1267
g16
ag8
asS'223'
p1268
(lp1269
sS'222'
p1270
(lp1271
g3
asS'221'
p1272
(lp1273
g3
asS'220'
p1274
(lp1275
g8
asS'2213'
p1276
(lp1277
g3
asS'2212'
p1278
(lp1279
g3
asS'2211'
p1280
(lp1281
g16
asS'2210'
p1282
(lp1283
g16
ag3
ag49
asS'2217'
p1284
(lp1285
g8
asS'2216'
p1286
(lp1287
g3
ag11
asS'2215'
p1288
(lp1289
g16
ag8
ag11
ag49
ag3
asS'2214'
p1290
(lp1291
g3
asS'2219'
p1292
(lp1293
g3
ag16
asS'2218'
p1294
(lp1295
g16
ag11
ag3
asS'151'
p1296
(lp1297
g16
ag11
ag3
asS'150'
p1298
(lp1299
g3
asS'2439'
p1300
(lp1301
g3
asS'152'
p1302
(lp1303
g8
asS'154'
p1304
(lp1305
sS'2433'
p1306
(lp1307
g16
asS'158'
p1308
(lp1309
g16
ag3
asS'2431'
p1310
(lp1311
sS'2437'
p1312
(lp1313
sS'2436'
p1314
(lp1315
sS'2435'
p1316
(lp1317
g8
asS'2434'
p1318
(lp1319
g3
ag8
asS'2508'
p1320
(lp1321
sS'2507'
p1322
(lp1323
g16
asS'2506'
p1324
(lp1325
sS'2503'
p1326
(lp1327
g3
asS'2502'
p1328
(lp1329
sS'2501'
p1330
(lp1331
g8
asS'2500'
p1332
(lp1333
sS'2727'
p1334
(lp1335
g3
asS'2726'
p1336
(lp1337
sS'2723'
p1338
(lp1339
sS'2722'
p1340
(lp1341
g49
asS'2721'
p1342
(lp1343
g16
asS'1712'
p1344
(lp1345
g3
ag8
asS'125'
p1346
(lp1347
sS'1805'
p1348
(lp1349
g49
asS'1804'
p1350
(lp1351
sS'1803'
p1352
(lp1353
g3
asS'1800'
p1354
(lp1355
g3
asS'1808'
p1356
(lp1357
g8
asS'3258'
p1358
(lp1359
g3
asS'3259'
p1360
(lp1361
g16
asS'1948'
p1362
(lp1363
g3
ag16
asS'1949'
p1364
(lp1365
g16
ag3
asS'1942'
p1366
(lp1367
g3
asS'3251'
p1368
(lp1369
g3
asS'1940'
p1370
(lp1371
g3
ag16
asS'3253'
p1372
(lp1373
g3
ag8
asS'3254'
p1374
(lp1375
g16
asS'3255'
p1376
(lp1377
g49
ag3
asS'3256'
p1378
(lp1379
g3
asS'1945'
p1380
(lp1381
g16
ag3
ag8
asS'818'
p1382
(lp1383
g3
asS'810'
p1384
(lp1385
g16
ag3
asS'811'
p1386
(lp1387
g3
asS'812'
p1388
(lp1389
g16
ag3
asS'813'
p1390
(lp1391
g16
asS'814'
p1392
(lp1393
g16
asS'817'
p1394
(lp1395
g3
asS'2859'
p1396
(lp1397
g3
asS'1991'
p1398
(lp1399
g16
ag8
asS'1522'
p1400
(lp1401
sS'1990'
p1402
(lp1403
g49
asS'2851'
p1404
(lp1405
sS'2850'
p1406
(lp1407
g16
ag49
ag8
asS'2853'
p1408
(lp1409
g3
asS'2852'
p1410
(lp1411
g3
asS'2855'
p1412
(lp1413
g16
ag8
asS'3205'
p1414
(lp1415
g3
ag49
ag8
asS'2856'
p1416
(lp1417
g8
ag49
ag3
asS'1490'
p1418
(lp1419
g16
ag3
asS'3332'
p1420
(lp1421
g16
ag3
asS'1492'
p1422
(lp1423
g3
asS'1493'
p1424
(lp1425
g3
ag16
asS'1494'
p1426
(lp1427
g3
asS'1495'
p1428
(lp1429
sS'3335'
p1430
(lp1431
g16
asS'3334'
p1432
(lp1433
g16
ag3
asS'3203'
p1434
(lp1435
g16
ag3
asS'3339'
p1436
(lp1437
g3
asS'1395'
p1438
(lp1439
g16
asS'3202'
p1440
(lp1441
g16
ag11
ag8
asS'1700'
p1442
(lp1443
g3
asS'1701'
p1444
(lp1445
sS'1702'
p1446
(lp1447
g16
ag11
asS'1703'
p1448
(lp1449
sS'1704'
p1450
(lp1451
g16
ag8
asS'3201'
p1452
(lp1453
g16
ag8
asS'1706'
p1454
(lp1455
g49
ag3
ag8
asS'1707'
p1456
(lp1457
g3
ag16
asS'1708'
p1458
(lp1459
g16
asS'1709'
p1460
(lp1461
g16
asS'3200'
p1462
(lp1463
sS'424'
p1464
(lp1465
g16
asS'3658'
p1466
(lp1467
g3
asS'3659'
p1468
(lp1469
g3
asS'1128'
p1470
(lp1471
g3
asS'1129'
p1472
(lp1473
g16
asS'1120'
p1474
(lp1475
g3
ag49
ag16
asS'1123'
p1476
(lp1477
g3
ag8
asS'1124'
p1478
(lp1479
sS'1125'
p1480
(lp1481
g3
asS'1126'
p1482
(lp1483
sS'1127'
p1484
(lp1485
g16
ag3
asS'2989'
p1486
(lp1487
g16
asS'2988'
p1488
(lp1489
g8
asS'3029'
p1490
(lp1491
sS'2983'
p1492
(lp1493
g49
ag8
asS'2099'
p1494
(lp1495
g8
asS'3025'
p1496
(lp1497
sS'3024'
p1498
(lp1499
g16
ag8
asS'3023'
p1500
(lp1501
sS'2986'
p1502
(lp1503
g49
asS'2985'
p1504
(lp1505
g49
asS'3020'
p1506
(lp1507
g3
ag16
asS'524'
p1508
(lp1509
g49
asS'527'
p1510
(lp1511
g3
ag16
asS'520'
p1512
(lp1513
g16
asS'1019'
p1514
(lp1515
sS'523'
p1516
(lp1517
g16
asS'1014'
p1518
(lp1519
g49
asS'1015'
p1520
(lp1521
g16
ag3
asS'1017'
p1522
(lp1523
g16
ag8
asS'528'
p1524
(lp1525
sS'529'
p1526
(lp1527
g16
ag11
asS'1012'
p1528
(lp1529
g16
asS'1013'
p1530
(lp1531
g16
asS'1236'
p1532
(lp1533
g49
asS'1237'
p1534
(lp1535
g8
asS'1231'
p1536
(lp1537
g16
asS'1232'
p1538
(lp1539
g16
asS'1233'
p1540
(lp1541
sS'1238'
p1542
(lp1543
sS'1239'
p1544
(lp1545
sS'438'
p1546
(lp1547
g16
asS'439'
p1548
(lp1549
sS'433'
p1550
(lp1551
sS'430'
p1552
(lp1553
g16
ag8
ag3
asS'1966'
p1554
(lp1555
g16
ag3
ag8
asS'559'
p1556
(lp1557
g8
asS'1967'
p1558
(lp1559
sS'3162'
p1560
(lp1561
g16
asS'3160'
p1562
(lp1563
g8
asS'2465'
p1564
(lp1565
sS'2948'
p1566
(lp1567
g49
asS'997'
p1568
(lp1569
g3
asS'238'
p1570
(lp1571
g16
ag3
asS'239'
p1572
(lp1573
g8
asS'991'
p1574
(lp1575
g11
ag3
asS'236'
p1576
(lp1577
g49
asS'237'
p1578
(lp1579
g16
ag3
asS'230'
p1580
(lp1581
sS'231'
p1582
(lp1583
g16
asS'232'
p1584
(lp1585
g3
asS'233'
p1586
(lp1587
g16
ag8
asS'2228'
p1588
(lp1589
sS'2229'
p1590
(lp1591
sS'2226'
p1592
(lp1593
g16
ag11
asS'2227'
p1594
(lp1595
g3
asS'2224'
p1596
(lp1597
g16
ag3
asS'2225'
p1598
(lp1599
g3
asS'2222'
p1600
(lp1601
g16
ag3
asS'2223'
p1602
(lp1603
g16
asS'2220'
p1604
(lp1605
g3
asS'2221'
p1606
(lp1607
sS'147'
p1608
(lp1609
g3
ag49
asS'142'
p1610
(lp1611
g16
asS'140'
p1612
(lp1613
g16
ag3
asS'141'
p1614
(lp1615
g3
asS'2468'
p1616
(lp1617
g16
asS'148'
p1618
(lp1619
g16
ag3
asS'149'
p1620
(lp1621
g16
ag3
asS'3401'
p1622
(lp1623
g16
asS'2088'
p1624
(lp1625
g3
asS'2089'
p1626
(lp1627
g16
ag3
asS'2082'
p1628
(lp1629
sS'2083'
p1630
(lp1631
sS'2080'
p1632
(lp1633
g3
ag8
asS'2081'
p1634
(lp1635
g11
asS'2086'
p1636
(lp1637
g3
asS'2087'
p1638
(lp1639
g3
asS'2084'
p1640
(lp1641
g3
ag49
asS'2085'
p1642
(lp1643
g3
asS'3342'
p1644
(lp1645
sS'2538'
p1646
(lp1647
g16
ag49
asS'2539'
p1648
(lp1649
g3
ag8
asS'1190'
p1650
(lp1651
g8
asS'2532'
p1652
(lp1653
sS'2533'
p1654
(lp1655
g49
asS'2536'
p1656
(lp1657
sS'1193'
p1658
(lp1659
sS'2534'
p1660
(lp1661
sS'2535'
p1662
(lp1663
sS'2712'
p1664
(lp1665
g16
asS'2713'
p1666
(lp1667
g3
asS'2710'
p1668
(lp1669
sS'2711'
p1670
(lp1671
g8
asS'2716'
p1672
(lp1673
g3
ag8
asS'2717'
p1674
(lp1675
g49
asS'2714'
p1676
(lp1677
sS'2715'
p1678
(lp1679
g3
ag16
asS'2718'
p1680
(lp1681
g49
ag16
ag8
asS'130'
p1682
(lp1683
g8
asS'128'
p1684
(lp1685
g16
asS'3344'
p1686
(lp1687
sS'129'
p1688
(lp1689
sS'3345'
p1690
(lp1691
g16
asS'1832'
p1692
(lp1693
g3
asS'1830'
p1694
(lp1695
g16
ag49
asS'1831'
p1696
(lp1697
sS'1836'
p1698
(lp1699
g8
ag3
asS'1837'
p1700
(lp1701
g8
asS'1835'
p1702
(lp1703
g8
ag3
asS'1838'
p1704
(lp1705
sS'1839'
p1706
(lp1707
g16
asS'2406'
p1708
(lp1709
g16
ag3
asS'2155'
p1710
(lp1711
g16
asS'2156'
p1712
(lp1713
g16
asS'2405'
p1714
(lp1715
g16
ag11
asS'2150'
p1716
(lp1717
sS'2403'
p1718
(lp1719
g16
asS'2152'
p1720
(lp1721
g16
asS'2153'
p1722
(lp1723
g16
ag8
asS'932'
p1724
(lp1725
g16
asS'931'
p1726
(lp1727
g16
asS'930'
p1728
(lp1729
g16
asS'2158'
p1730
(lp1731
g16
asS'2159'
p1732
(lp1733
g16
ag3
asS'2408'
p1734
(lp1735
g49
asS'2409'
p1736
(lp1737
g8
asS'471'
p1738
(lp1739
g16
ag3
asS'3091'
p1740
(lp1741
g16
ag3
asS'1955'
p1742
(lp1743
sS'1954'
p1744
(lp1745
sS'1957'
p1746
(lp1747
sS'1956'
p1748
(lp1749
g11
ag16
asS'1951'
p1750
(lp1751
g3
asS'1950'
p1752
(lp1753
g3
asS'1953'
p1754
(lp1755
sS'1952'
p1756
(lp1757
g16
ag8
asS'1959'
p1758
(lp1759
g3
asS'1958'
p1760
(lp1761
g3
asS'3249'
p1762
(lp1763
g16
ag3
asS'3248'
p1764
(lp1765
g16
asS'3243'
p1766
(lp1767
g16
ag3
ag8
asS'3242'
p1768
(lp1769
g8
asS'3241'
p1770
(lp1771
g3
ag8
asS'3247'
p1772
(lp1773
g3
asS'3246'
p1774
(lp1775
sS'3245'
p1776
(lp1777
g8
asS'3244'
p1778
(lp1779
sS'828'
p1780
(lp1781
sS'825'
p1782
(lp1783
g8
asS'824'
p1784
(lp1785
g3
ag49
asS'827'
p1786
(lp1787
g49
asS'826'
p1788
(lp1789
g3
asS'823'
p1790
(lp1791
g16
ag3
asS'822'
p1792
(lp1793
g16
ag49
asS'2284'
p1794
(lp1795
g16
ag11
asS'1536'
p1796
(lp1797
g16
asS'1993'
p1798
(lp1799
g8
asS'3227'
p1800
(lp1801
g16
ag8
ag3
asS'1483'
p1802
(lp1803
g3
asS'1482'
p1804
(lp1805
g3
asS'1481'
p1806
(lp1807
g3
asS'1480'
p1808
(lp1809
g16
asS'1487'
p1810
(lp1811
g16
asS'1823'
p1812
(lp1813
g16
asS'1485'
p1814
(lp1815
g16
asS'1484'
p1816
(lp1817
g3
asS'3306'
p1818
(lp1819
sS'3304'
p1820
(lp1821
g16
ag3
asS'3305'
p1822
(lp1823
g16
asS'3302'
p1824
(lp1825
g8
asS'3303'
p1826
(lp1827
g16
asS'797'
p1828
(lp1829
g16
asS'928'
p1830
(lp1831
g16
ag49
asS'1711'
p1832
(lp1833
g16
ag3
ag11
asS'1710'
p1834
(lp1835
g16
ag11
ag3
ag49
asS'1717'
p1836
(lp1837
sS'792'
p1838
(lp1839
g3
asS'791'
p1840
(lp1841
g3
asS'2410'
p1842
(lp1843
g8
asS'1719'
p1844
(lp1845
sS'1718'
p1846
(lp1847
g16
ag3
ag8
asS'2413'
p1848
(lp1849
g16
asS'799'
p1850
(lp1851
g16
asS'798'
p1852
(lp1853
sS'612'
p1854
(lp1855
g16
ag3
asS'2412'
p1856
(lp1857
g16
asS'1271'
p1858
(lp1859
g16
ag3
asS'2415'
p1860
(lp1861
g3
asS'610'
p1862
(lp1863
g16
asS'2414'
p1864
(lp1865
g16
ag3
asS'1139'
p1866
(lp1867
sS'1138'
p1868
(lp1869
g49
ag16
asS'2417'
p1870
(lp1871
g16
asS'1133'
p1872
(lp1873
g16
asS'1995'
p1874
(lp1875
sS'1131'
p1876
(lp1877
sS'1130'
p1878
(lp1879
g3
ag16
asS'617'
p1880
(lp1881
g3
asS'2419'
p1882
(lp1883
g16
ag3
asS'1276'
p1884
(lp1885
g49
asS'2418'
p1886
(lp1887
g16
asS'615'
p1888
(lp1889
g16
asS'2790'
p1890
(lp1891
g16
ag8
asS'3018'
p1892
(lp1893
sS'3019'
p1894
(lp1895
g3
ag16
ag8
asS'3012'
p1896
(lp1897
g16
ag3
asS'3013'
p1898
(lp1899
g3
asS'3011'
p1900
(lp1901
sS'3016'
p1902
(lp1903
g11
asS'3017'
p1904
(lp1905
g8
ag16
ag3
asS'3014'
p1906
(lp1907
g3
asS'3015'
p1908
(lp1909
g8
asS'519'
p1910
(lp1911
g16
ag8
asS'518'
p1912
(lp1913
g8
ag3
asS'926'
p1914
(lp1915
sS'1009'
p1916
(lp1917
g16
ag8
ag49
asS'1008'
p1918
(lp1919
g8
asS'1007'
p1920
(lp1921
sS'1006'
p1922
(lp1923
g3
ag8
asS'513'
p1924
(lp1925
sS'927'
p1926
(lp1927
g3
asS'1003'
p1928
(lp1929
g16
asS'1002'
p1930
(lp1931
g16
asS'1001'
p1932
(lp1933
g3
asS'1000'
p1934
(lp1935
g16
ag3
asS'623'
p1936
(lp1937
sS'1226'
p1938
(lp1939
g16
asS'621'
p1940
(lp1941
g16
ag8
asS'620'
p1942
(lp1943
g16
ag3
asS'627'
p1944
(lp1945
g16
ag3
asS'626'
p1946
(lp1947
g3
asS'625'
p1948
(lp1949
g8
ag3
asS'624'
p1950
(lp1951
sS'629'
p1952
(lp1953
g3
asS'628'
p1954
(lp1955
g16
ag3
asS'1228'
p1956
(lp1957
g16
ag3
asS'2882'
p1958
(lp1959
g3
asS'2883'
p1960
(lp1961
sS'2880'
p1962
(lp1963
g3
asS'2881'
p1964
(lp1965
g16
asS'2886'
p1966
(lp1967
g16
ag3
asS'2887'
p1968
(lp1969
g16
asS'2884'
p1970
(lp1971
g49
ag16
asS'2885'
p1972
(lp1973
sS'2888'
p1974
(lp1975
g8
asS'2889'
p1976
(lp1977
sS'3196'
p1978
(lp1979
sS'1920'
p1980
(lp1981
g3
asS'15'
p1982
(lp1983
g3
asS'14'
p1984
(lp1985
g3
asS'16'
p1986
(lp1987
g3
asS'1922'
p1988
(lp1989
g8
ag3
ag49
asS'3275'
p1990
(lp1991
sS'1925'
p1992
(lp1993
g3
asS'3193'
p1994
(lp1995
g8
asS'929'
p1996
(lp1997
sS'201'
p1998
(lp1999
g16
ag11
asS'200'
p2000
(lp2001
g49
asS'202'
p2002
(lp2003
sS'205'
p2004
(lp2005
g8
asS'204'
p2006
(lp2007
g8
ag3
asS'206'
p2008
(lp2009
g16
ag8
asS'209'
p2010
(lp2011
g3
asS'208'
p2012
(lp2013
sS'1573'
p2014
(lp2015
g8
asS'831'
p2016
(lp2017
g16
asS'3470'
p2018
(lp2019
g49
asS'687'
p2020
(lp2021
g8
asS'837'
p2022
(lp2023
g49
asS'2239'
p2024
(lp2025
g16
ag3
asS'2238'
p2026
(lp2027
sS'1570'
p2028
(lp2029
g16
asS'834'
p2030
(lp2031
sS'2230'
p2032
(lp2033
g16
asS'2233'
p2034
(lp2035
g11
asS'3473'
p2036
(lp2037
g49
asS'2235'
p2038
(lp2039
g3
asS'2234'
p2040
(lp2041
sS'2237'
p2042
(lp2043
g3
asS'2236'
p2044
(lp2045
g16
asS'682'
p2046
(lp2047
sS'3499'
p2048
(lp2049
g16
asS'3496'
p2050
(lp2051
g16
asS'3494'
p2052
(lp2053
g16
asS'3495'
p2054
(lp2055
sS'3492'
p2056
(lp2057
g16
asS'3493'
p2058
(lp2059
g49
ag8
asS'3490'
p2060
(lp2061
g3
asS'3491'
p2062
(lp2063
g16
asS'2095'
p2064
(lp2065
g16
asS'2094'
p2066
(lp2067
sS'2097'
p2068
(lp2069
g3
asS'2096'
p2070
(lp2071
g3
asS'2091'
p2072
(lp2073
g3
asS'2090'
p2074
(lp2075
g49
asS'2093'
p2076
(lp2077
g3
asS'2092'
p2078
(lp2079
sS'3654'
p2080
(lp2081
g16
ag3
asS'3655'
p2082
(lp2083
g3
asS'3650'
p2084
(lp2085
g16
asS'2098'
p2086
(lp2087
g8
asS'3652'
p2088
(lp2089
sS'3653'
p2090
(lp2091
g49
ag3
asS'2525'
p2092
(lp2093
g3
ag8
asS'2524'
p2094
(lp2095
g3
asS'2526'
p2096
(lp2097
g11
ag3
asS'2521'
p2098
(lp2099
g16
ag8
ag49
asS'2520'
p2100
(lp2101
g3
asS'2523'
p2102
(lp2103
g16
asS'2522'
p2104
(lp2105
g16
ag3
asS'2529'
p2106
(lp2107
g3
ag8
asS'2709'
p2108
(lp2109
g16
ag3
asS'2708'
p2110
(lp2111
g16
asS'2705'
p2112
(lp2113
g3
asS'2704'
p2114
(lp2115
sS'2707'
p2116
(lp2117
sS'2706'
p2118
(lp2119
sS'2701'
p2120
(lp2121
g16
ag8
asS'2700'
p2122
(lp2123
g3
asS'2703'
p2124
(lp2125
sS'2702'
p2126
(lp2127
g16
asS'1829'
p2128
(lp2129
sS'1828'
p2130
(lp2131
sS'1825'
p2132
(lp2133
g3
asS'1824'
p2134
(lp2135
sS'1827'
p2136
(lp2137
g16
ag49
asS'1826'
p2138
(lp2139
sS'1821'
p2140
(lp2141
g3
asS'1820'
p2142
(lp2143
g3
asS'512'
p2144
(lp2145
sS'1822'
p2146
(lp2147
g11
ag16
asS'2147'
p2148
(lp2149
g3
ag16
asS'2146'
p2150
(lp2151
g16
ag49
asS'2145'
p2152
(lp2153
sS'2144'
p2154
(lp2155
sS'2143'
p2156
(lp2157
sS'2142'
p2158
(lp2159
g49
asS'2141'
p2160
(lp2161
sS'2140'
p2162
(lp2163
sS'920'
p2164
(lp2165
g16
asS'921'
p2166
(lp2167
g3
asS'922'
p2168
(lp2169
g8
asS'923'
p2170
(lp2171
g49
asS'924'
p2172
(lp2173
g3
ag16
asS'925'
p2174
(lp2175
g8
asS'2149'
p2176
(lp2177
g16
asS'2148'
p2178
(lp2179
sS'2411'
p2180
(lp2181
g49
ag11
asS'3276'
p2182
(lp2183
g8
asS'3277'
p2184
(lp2185
sS'3274'
p2186
(lp2187
g3
asS'1923'
p2188
(lp2189
g8
asS'3272'
p2190
(lp2191
g11
asS'3273'
p2192
(lp2193
g11
asS'1926'
p2194
(lp2195
sS'1927'
p2196
(lp2197
g3
asS'1928'
p2198
(lp2199
sS'1929'
p2200
(lp2201
g16
ag3
ag8
asS'3278'
p2202
(lp2203
g16
ag11
ag3
asS'3279'
p2204
(lp2205
g11
ag49
asS'3474'
p2206
(lp2207
sS'833'
p2208
(lp2209
g3
asS'3476'
p2210
(lp2211
g3
asS'3477'
p2212
(lp2213
g16
ag49
ag3
asS'836'
p2214
(lp2215
sS'3471'
p2216
(lp2217
sS'3472'
p2218
(lp2219
sS'835'
p2220
(lp2221
g16
asS'838'
p2222
(lp2223
g3
asS'839'
p2224
(lp2225
g3
asS'3478'
p2226
(lp2227
g3
asS'3479'
p2228
(lp2229
sS'3'
p2230
(lp2231
g3
ag8
asS'1986'
p2232
(lp2233
g49
ag8
asS'3319'
p2234
(lp2235
g16
ag8
asS'3318'
p2236
(lp2237
sS'3313'
p2238
(lp2239
sS'3315'
p2240
(lp2241
g16
ag11
ag8
asS'3314'
p2242
(lp2243
g3
asS'3317'
p2244
(lp2245
g16
asS'3316'
p2246
(lp2247
g16
asS'784'
p2248
(lp2249
g49
ag3
asS'785'
p2250
(lp2251
sS'780'
p2252
(lp2253
sS'781'
p2254
(lp2255
g3
asS'1728'
p2256
(lp2257
g3
asS'1729'
p2258
(lp2259
g16
asS'1727'
p2260
(lp2261
sS'1724'
p2262
(lp2263
g49
asS'788'
p2264
(lp2265
g3
ag11
asS'1723'
p2266
(lp2267
g16
asS'1720'
p2268
(lp2269
g3
asS'1721'
p2270
(lp2271
sS'153'
p2272
(lp2273
g16
ag3
ag49
asS'3005'
p2274
(lp2275
g16
ag3
asS'61'
p2276
(lp2277
g16
ag3
asS'62'
p2278
(lp2279
g16
ag3
asS'2438'
p2280
(lp2281
sS'3001'
p2282
(lp2283
sS'3000'
p2284
(lp2285
sS'66'
p2286
(lp2287
g3
asS'3002'
p2288
(lp2289
g16
asS'1985'
p2290
(lp2291
g16
ag3
asS'407'
p2292
(lp2293
g16
asS'406'
p2294
(lp2295
sS'1582'
p2296
(lp2297
g3
asS'1583'
p2298
(lp2299
sS'1580'
p2300
(lp2301
sS'1581'
p2302
(lp2303
g8
asS'1586'
p2304
(lp2305
g16
ag49
asS'405'
p2306
(lp2307
g16
ag3
asS'1584'
p2308
(lp2309
g8
asS'1585'
p2310
(lp2311
sS'159'
p2312
(lp2313
g16
ag3
asS'1038'
p2314
(lp2315
g16
ag8
asS'1372'
p2316
(lp2317
g49
ag8
asS'508'
p2318
(lp2319
g3
asS'509'
p2320
(lp2321
g8
asS'1032'
p2322
(lp2323
g3
ag16
ag11
ag8
asS'1033'
p2324
(lp2325
g8
asS'504'
p2326
(lp2327
g16
ag3
asS'505'
p2328
(lp2329
g16
asS'502'
p2330
(lp2331
g16
ag8
asS'1037'
p2332
(lp2333
g16
asS'500'
p2334
(lp2335
sS'1035'
p2336
(lp2337
g49
asS'630'
p2338
(lp2339
g16
ag3
asS'1213'
p2340
(lp2341
g16
ag3
ag8
asS'1210'
p2342
(lp2343
sS'1211'
p2344
(lp2345
g16
asS'1216'
p2346
(lp2347
g16
ag3
ag49
asS'401'
p2348
(lp2349
g8
ag3
asS'1214'
p2350
(lp2351
g16
ag3
asS'1215'
p2352
(lp2353
g16
ag3
asS'638'
p2354
(lp2355
g16
ag11
asS'639'
p2356
(lp2357
sS'1218'
p2358
(lp2359
g16
ag8
ag49
ag3
asS'1376'
p2360
(lp2361
sS'2416'
p2362
(lp2363
g3
asS'2899'
p2364
(lp2365
g3
ag16
asS'782'
p2366
(lp2367
g16
ag8
asS'2895'
p2368
(lp2369
g3
asS'2894'
p2370
(lp2371
g16
ag3
asS'2897'
p2372
(lp2373
g3
ag16
ag49
asS'2896'
p2374
(lp2375
g16
ag49
asS'2891'
p2376
(lp2377
g16
ag11
asS'2890'
p2378
(lp2379
g3
asS'2893'
p2380
(lp2381
g8
ag49
asS'2892'
p2382
(lp2383
g49
asS'1454'
p2384
(lp2385
g11
asS'1455'
p2386
(lp2387
g3
asS'1104'
p2388
(lp2389
g49
ag16
asS'1105'
p2390
(lp2391
g3
asS'1102'
p2392
(lp2393
g8
asS'1103'
p2394
(lp2395
g16
asS'1100'
p2396
(lp2397
g8
asS'1101'
p2398
(lp2399
g16
asS'1458'
p2400
(lp2401
g3
ag16
asS'1459'
p2402
(lp2403
g3
ag16
asS'1108'
p2404
(lp2405
g3
asS'1109'
p2406
(lp2407
g16
asS'1722'
p2408
(lp2409
g8
ag49
asS'789'
p2410
(lp2411
sS'1357'
p2412
(lp2413
g3
ag8
asS'1576'
p2414
(lp2415
g3
asS'959'
p2416
(lp2417
g49
ag8
asS'958'
p2418
(lp2419
g3
ag16
asS'2794'
p2420
(lp2421
g16
asS'216'
p2422
(lp2423
g3
asS'217'
p2424
(lp2425
g3
asS'214'
p2426
(lp2427
sS'215'
p2428
(lp2429
g16
asS'212'
p2430
(lp2431
g49
ag16
asS'213'
p2432
(lp2433
g16
asS'210'
p2434
(lp2435
g3
asS'211'
p2436
(lp2437
g16
ag8
asS'218'
p2438
(lp2439
g16
asS'3094'
p2440
(lp2441
sS'957'
p2442
(lp2443
g16
ag3
asS'956'
p2444
(lp2445
g16
asS'939'
p2446
(lp2447
g16
asS'4'
p2448
(lp2449
g3
asS'3489'
p2450
(lp2451
g16
asS'3488'
p2452
(lp2453
g3
asS'3481'
p2454
(lp2455
g3
asS'3480'
p2456
(lp2457
sS'3483'
p2458
(lp2459
g16
ag8
asS'3482'
p2460
(lp2461
g16
asS'3487'
p2462
(lp2463
g49
ag3
asS'938'
p2464
(lp2465
g16
ag8
asS'2474'
p2466
(lp2467
g16
ag3
asS'3649'
p2468
(lp2469
g3
asS'3648'
p2470
(lp2471
g3
asS'3647'
p2472
(lp2473
sS'3646'
p2474
(lp2475
sS'3645'
p2476
(lp2477
g3
asS'3644'
p2478
(lp2479
sS'3643'
p2480
(lp2481
sS'3642'
p2482
(lp2483
g16
ag8
asS'3641'
p2484
(lp2485
g3
asS'3640'
p2486
(lp2487
g3
asS'2550'
p2488
(lp2489
sS'2551'
p2490
(lp2491
sS'2553'
p2492
(lp2493
g16
asS'2554'
p2494
(lp2495
g16
asS'2555'
p2496
(lp2497
g8
ag49
ag11
ag16
asS'3004'
p2498
(lp2499
g3
ag16
asS'2558'
p2500
(lp2501
g16
ag8
ag3
asS'2559'
p2502
(lp2503
sS'2396'
p2504
(lp2505
g8
ag49
ag3
asS'2397'
p2506
(lp2507
g16
asS'2394'
p2508
(lp2509
sS'2395'
p2510
(lp2511
sS'2392'
p2512
(lp2513
g16
ag3
asS'2393'
p2514
(lp2515
sS'2390'
p2516
(lp2517
g3
asS'2391'
p2518
(lp2519
g16
asS'2398'
p2520
(lp2521
g16
ag49
asS'65'
p2522
(lp2523
g3
asS'2778'
p2524
(lp2525
g8
asS'2779'
p2526
(lp2527
g3
ag16
ag49
asS'3003'
p2528
(lp2529
g3
ag16
ag49
asS'2770'
p2530
(lp2531
g3
ag49
asS'2771'
p2532
(lp2533
sS'2772'
p2534
(lp2535
g3
ag49
ag16
asS'2773'
p2536
(lp2537
g8
ag16
asS'2774'
p2538
(lp2539
g11
ag8
asS'2777'
p2540
(lp2541
g16
ag8
asS'3166'
p2542
(lp2543
g3
asS'3167'
p2544
(lp2545
g16
asS'3165'
p2546
(lp2547
g3
asS'1851'
p2548
(lp2549
g8
asS'1852'
p2550
(lp2551
g16
ag49
asS'1853'
p2552
(lp2553
g3
ag49
ag11
asS'1854'
p2554
(lp2555
g16
asS'1855'
p2556
(lp2557
g3
asS'1856'
p2558
(lp2559
g16
asS'1857'
p2560
(lp2561
g49
asS'2172'
p2562
(lp2563
g16
asS'2173'
p2564
(lp2565
g3
asS'2170'
p2566
(lp2567
sS'2171'
p2568
(lp2569
g16
asS'2176'
p2570
(lp2571
sS'2177'
p2572
(lp2573
sS'915'
p2574
(lp2575
g8
asS'914'
p2576
(lp2577
g8
asS'2178'
p2578
(lp2579
g16
asS'916'
p2580
(lp2581
g16
ag3
asS'911'
p2582
(lp2583
g16
ag8
asS'910'
p2584
(lp2585
g8
asS'913'
p2586
(lp2587
g3
asS'912'
p2588
(lp2589
g8
ag16
ag3
asS'2604'
p2590
(lp2591
g3
ag16
asS'2605'
p2592
(lp2593
g16
ag3
asS'2606'
p2594
(lp2595
g3
ag16
asS'2607'
p2596
(lp2597
sS'2600'
p2598
(lp2599
g3
asS'2601'
p2600
(lp2601
sS'2602'
p2602
(lp2603
sS'1420'
p2604
(lp2605
g16
asS'2608'
p2606
(lp2607
g49
ag3
asS'2609'
p2608
(lp2609
sS'3261'
p2610
(lp2611
sS'3260'
p2612
(lp2613
g3
asS'3263'
p2614
(lp2615
g16
asS'1930'
p2616
(lp2617
g3
ag16
asS'3265'
p2618
(lp2619
g16
ag3
asS'3264'
p2620
(lp2621
g16
ag3
asS'1935'
p2622
(lp2623
g16
ag49
asS'3266'
p2624
(lp2625
g3
ag16
asS'3268'
p2626
(lp2627
g49
asS'1939'
p2628
(lp2629
g3
asS'2051'
p2630
(lp2631
g3
asS'847'
p2632
(lp2633
g16
ag3
asS'846'
p2634
(lp2635
g16
ag8
asS'845'
p2636
(lp2637
g3
asS'844'
p2638
(lp2639
g16
asS'843'
p2640
(lp2641
g16
ag49
ag8
ag3
asS'3462'
p2642
(lp2643
g8
asS'3461'
p2644
(lp2645
sS'3460'
p2646
(lp2647
g8
asS'3469'
p2648
(lp2649
g16
asS'3468'
p2650
(lp2651
g16
ag3
asS'3364'
p2652
(lp2653
g3
asS'3365'
p2654
(lp2655
sS'3361'
p2656
(lp2657
sS'2407'
p2658
(lp2659
g8
asS'1192'
p2660
(lp2661
g16
asS'1739'
p2662
(lp2663
g8
asS'1738'
p2664
(lp2665
sS'1731'
p2666
(lp2667
sS'1730'
p2668
(lp2669
g16
ag49
asS'1733'
p2670
(lp2671
g3
asS'1732'
p2672
(lp2673
sS'1735'
p2674
(lp2675
g16
asS'1734'
p2676
(lp2677
g8
asS'1039'
p2678
(lp2679
g3
asS'753'
p2680
(lp2681
g3
ag8
asS'752'
p2682
(lp2683
g16
asS'751'
p2684
(lp2685
sS'750'
p2686
(lp2687
g16
ag8
asS'757'
p2688
(lp2689
g16
ag49
ag3
asS'756'
p2690
(lp2691
sS'755'
p2692
(lp2693
g3
asS'754'
p2694
(lp2695
g8
ag3
asS'759'
p2696
(lp2697
g16
ag3
asS'758'
p2698
(lp2699
g16
ag3
ag8
asS'1595'
p2700
(lp2701
g8
ag16
asS'3071'
p2702
(lp2703
sS'1597'
p2704
(lp2705
g11
ag3
asS'1596'
p2706
(lp2707
g16
ag3
ag11
asS'2958'
p2708
(lp2709
sS'3075'
p2710
(lp2711
g3
asS'3076'
p2712
(lp2713
sS'1592'
p2714
(lp2715
g3
asS'2954'
p2716
(lp2717
g3
asS'2955'
p2718
(lp2719
g3
asS'2956'
p2720
(lp2721
sS'2957'
p2722
(lp2723
g16
ag3
asS'1599'
p2724
(lp2725
g16
asS'1598'
p2726
(lp2727
sS'1024'
p2728
(lp2729
g3
ag8
asS'1027'
p2730
(lp2731
g11
ag3
ag16
ag8
asS'1031'
p2732
(lp2733
g16
ag49
ag3
ag8
asS'1021'
p2734
(lp2735
g8
asS'1974'
p2736
(lp2737
sS'1023'
p2738
(lp2739
g16
asS'1022'
p2740
(lp2741
g3
asS'1029'
p2742
(lp2743
g3
asS'1028'
p2744
(lp2745
sS'503'
p2746
(lp2747
g8
asS'1034'
p2748
(lp2749
g8
ag16
asS'501'
p2750
(lp2751
g8
asS'605'
p2752
(lp2753
sS'1212'
p2754
(lp2755
g3
asS'607'
p2756
(lp2757
g3
asS'606'
p2758
(lp2759
sS'1209'
p2760
(lp2761
g16
asS'1208'
p2762
(lp2763
g3
asS'603'
p2764
(lp2765
g8
asS'602'
p2766
(lp2767
g3
asS'1205'
p2768
(lp2769
g16
asS'1204'
p2770
(lp2771
g16
ag3
asS'1207'
p2772
(lp2773
sS'1206'
p2774
(lp2775
g16
ag3
asS'609'
p2776
(lp2777
sS'1200'
p2778
(lp2779
g8
asS'1203'
p2780
(lp2781
g3
asS'633'
p2782
(lp2783
sS'634'
p2784
(lp2785
g16
ag11
ag8
asS'935'
p2786
(lp2787
g16
ag49
asS'1217'
p2788
(lp2789
g16
ag3
asS'3108'
p2790
(lp2791
g16
ag49
asS'3105'
p2792
(lp2793
sS'3106'
p2794
(lp2795
g3
asS'637'
p2796
(lp2797
g16
ag49
asS'3100'
p2798
(lp2799
sS'3101'
p2800
(lp2801
sS'3102'
p2802
(lp2803
sS'3103'
p2804
(lp2805
g3
asS'1111'
p2806
(lp2807
sS'1110'
p2808
(lp2809
g3
asS'1113'
p2810
(lp2811
g3
asS'1112'
p2812
(lp2813
sS'1115'
p2814
(lp2815
g3
asS'1114'
p2816
(lp2817
sS'1117'
p2818
(lp2819
g16
ag3
asS'1116'
p2820
(lp2821
sS'1119'
p2822
(lp2823
g3
ag16
asS'1118'
p2824
(lp2825
g3
asS'1351'
p2826
(lp2827
g8
asS'1449'
p2828
(lp2829
sS'1448'
p2830
(lp2831
sS'1350'
p2832
(lp2833
sS'78'
p2834
(lp2835
g3
asS'2401'
p2836
(lp2837
g3
asS'460'
p2838
(lp2839
g3
asS'463'
p2840
(lp2841
sS'489'
p2842
(lp2843
sS'488'
p2844
(lp2845
g49
asS'487'
p2846
(lp2847
g3
asS'486'
p2848
(lp2849
sS'485'
p2850
(lp2851
g3
asS'484'
p2852
(lp2853
g16
asS'483'
p2854
(lp2855
g16
ag3
asS'482'
p2856
(lp2857
g3
asS'481'
p2858
(lp2859
sS'480'
p2860
(lp2861
g8
asS'790'
p2862
(lp2863
g16
asS'695'
p2864
(lp2865
g8
asS'723'
p2866
(lp2867
g3
asS'124'
p2868
(lp2869
g16
asS'992'
p2870
(lp2871
g3
asS'2898'
p2872
(lp2873
g8
asS'3665'
p2874
(lp2875
g3
ag49
asS'199'
p2876
(lp2877
g16
asS'198'
p2878
(lp2879
g3
asS'2289'
p2880
(lp2881
g8
asS'195'
p2882
(lp2883
sS'194'
p2884
(lp2885
sS'197'
p2886
(lp2887
sS'196'
p2888
(lp2889
g3
asS'191'
p2890
(lp2891
g8
asS'190'
p2892
(lp2893
g3
asS'193'
p2894
(lp2895
g16
asS'192'
p2896
(lp2897
g8
asS'3679'
p2898
(lp2899
g3
asS'3672'
p2900
(lp2901
g16
ag3
asS'3670'
p2902
(lp2903
g8
ag16
asS'3671'
p2904
(lp2905
g49
asS'3676'
p2906
(lp2907
g16
ag3
asS'3677'
p2908
(lp2909
g16
ag3
asS'3675'
p2910
(lp2911
g3
asS'2547'
p2912
(lp2913
g3
asS'2546'
p2914
(lp2915
g8
ag3
asS'2545'
p2916
(lp2917
sS'2544'
p2918
(lp2919
g3
asS'2549'
p2920
(lp2921
sS'2548'
p2922
(lp2923
g8
ag16
asS'1456'
p2924
(lp2925
g16
ag11
ag3
asS'2381'
p2926
(lp2927
sS'2380'
p2928
(lp2929
g3
asS'2382'
p2930
(lp2931
sS'2385'
p2932
(lp2933
sS'2384'
p2934
(lp2935
g16
asS'2387'
p2936
(lp2937
sS'2386'
p2938
(lp2939
sS'2389'
p2940
(lp2941
g16
ag3
asS'2388'
p2942
(lp2943
sS'3580'
p2944
(lp2945
g16
asS'3581'
p2946
(lp2947
g16
asS'3582'
p2948
(lp2949
g16
asS'2768'
p2950
(lp2951
g8
asS'3584'
p2952
(lp2953
sS'3585'
p2954
(lp2955
g16
ag8
asS'3587'
p2956
(lp2957
g16
ag3
asS'3588'
p2958
(lp2959
sS'3589'
p2960
(lp2961
sS'2767'
p2962
(lp2963
g3
ag16
asS'2766'
p2964
(lp2965
g16
ag3
asS'2765'
p2966
(lp2967
g3
asS'2764'
p2968
(lp2969
sS'902'
p2970
(lp2971
g3
ag8
asS'903'
p2972
(lp2973
sS'900'
p2974
(lp2975
g3
asS'901'
p2976
(lp2977
g3
ag11
asS'906'
p2978
(lp2979
g49
ag16
asS'907'
p2980
(lp2981
sS'904'
p2982
(lp2983
g16
asS'905'
p2984
(lp2985
g16
ag8
asS'1843'
p2986
(lp2987
sS'1842'
p2988
(lp2989
g3
asS'1841'
p2990
(lp2991
sS'909'
p2992
(lp2993
g3
asS'1846'
p2994
(lp2995
g16
ag3
asS'1845'
p2996
(lp2997
g8
asS'1844'
p2998
(lp2999
g16
ag3
asS'3250'
p3000
(lp3001
g49
asS'2169'
p3002
(lp3003
g16
asS'2168'
p3004
(lp3005
sS'2165'
p3006
(lp3007
g16
asS'2164'
p3008
(lp3009
g3
asS'2167'
p3010
(lp3011
g16
asS'2166'
p3012
(lp3013
g3
asS'2161'
p3014
(lp3015
g16
asS'2160'
p3016
(lp3017
g8
ag16
asS'2163'
p3018
(lp3019
g16
ag8
asS'2162'
p3020
(lp3021
sS'2617'
p3022
(lp3023
sS'2616'
p3024
(lp3025
sS'2615'
p3026
(lp3027
g8
asS'2614'
p3028
(lp3029
g3
ag8
asS'2611'
p3030
(lp3031
g16
asS'2610'
p3032
(lp3033
g3
ag16
asS'1946'
p3034
(lp3035
g3
asS'1947'
p3036
(lp3037
g16
ag3
ag49
asS'3298'
p3038
(lp3039
g16
asS'3299'
p3040
(lp3041
g3
asS'1908'
p3042
(lp3043
sS'1909'
p3044
(lp3045
sS'3294'
p3046
(lp3047
g3
asS'1907'
p3048
(lp3049
g16
asS'1904'
p3050
(lp3051
g49
asS'3297'
p3052
(lp3053
g3
asS'3290'
p3054
(lp3055
sS'1903'
p3056
(lp3057
g3
asS'3292'
p3058
(lp3059
g8
ag49
asS'3293'
p3060
(lp3061
sS'3452'
p3062
(lp3063
g3
asS'855'
p3064
(lp3065
sS'856'
p3066
(lp3067
g8
ag3
ag16
asS'3451'
p3068
(lp3069
g3
ag8
ag16
asS'3456'
p3070
(lp3071
g49
asS'3457'
p3072
(lp3073
g3
asS'3454'
p3074
(lp3075
g16
asS'3455'
p3076
(lp3077
g3
asS'3458'
p3078
(lp3079
sS'3459'
p3080
(lp3081
g3
asS'858'
p3082
(lp3083
g8
asS'859'
p3084
(lp3085
g16
ag3
asS'1186'
p3086
(lp3087
sS'425'
p3088
(lp3089
g11
ag8
asS'740'
p3090
(lp3091
g3
ag49
asS'741'
p3092
(lp3093
g16
asS'742'
p3094
(lp3095
g3
ag49
ag8
asS'743'
p3096
(lp3097
sS'744'
p3098
(lp3099
g8
asS'745'
p3100
(lp3101
g8
asS'746'
p3102
(lp3103
g3
asS'747'
p3104
(lp3105
g8
asS'748'
p3106
(lp3107
sS'749'
p3108
(lp3109
g3
asS'1799'
p3110
(lp3111
sS'3063'
p3112
(lp3113
sS'3062'
p3114
(lp3115
g3
asS'3061'
p3116
(lp3117
g3
asS'3060'
p3118
(lp3119
sS'3067'
p3120
(lp3121
g16
asS'2949'
p3122
(lp3123
g3
asS'3064'
p3124
(lp3125
sS'2947'
p3126
(lp3127
g3
asS'2946'
p3128
(lp3129
g16
ag3
asS'2945'
p3130
(lp3131
g3
asS'2944'
p3132
(lp3133
sS'2943'
p3134
(lp3135
sS'2942'
p3136
(lp3137
sS'2941'
p3138
(lp3139
g8
ag16
asS'2940'
p3140
(lp3141
g8
ag16
asS'1050'
p3142
(lp3143
g8
asS'1051'
p3144
(lp3145
g8
ag3
asS'1052'
p3146
(lp3147
g16
asS'1053'
p3148
(lp3149
sS'1054'
p3150
(lp3151
g3
asS'1055'
p3152
(lp3153
g16
ag49
asS'1056'
p3154
(lp3155
g11
asS'1057'
p3156
(lp3157
g8
asS'1058'
p3158
(lp3159
sS'1059'
p3160
(lp3161
g16
asS'717'
p3162
(lp3163
g3
ag16
asS'1692'
p3164
(lp3165
g3
asS'1693'
p3166
(lp3167
g3
asS'1690'
p3168
(lp3169
g16
asS'1691'
p3170
(lp3171
g16
asS'715'
p3172
(lp3173
g3
ag16
asS'1698'
p3174
(lp3175
g3
asS'1699'
p3176
(lp3177
g16
asS'1278'
p3178
(lp3179
g16
asS'1279'
p3180
(lp3181
g16
asS'618'
p3182
(lp3183
g3
asS'619'
p3184
(lp3185
g3
ag49
asS'1270'
p3186
(lp3187
g16
asS'613'
p3188
(lp3189
sS'1272'
p3190
(lp3191
g16
ag3
asS'611'
p3192
(lp3193
g16
ag49
asS'616'
p3194
(lp3195
sS'1275'
p3196
(lp3197
sS'614'
p3198
(lp3199
g8
asS'1277'
p3200
(lp3201
sS'1795'
p3202
(lp3203
g3
asS'1794'
p3204
(lp3205
sS'3119'
p3206
(lp3207
sS'3118'
p3208
(lp3209
sS'3117'
p3210
(lp3211
g16
asS'3116'
p3212
(lp3213
g8
asS'3115'
p3214
(lp3215
sS'3114'
p3216
(lp3217
sS'3113'
p3218
(lp3219
g3
asS'3112'
p3220
(lp3221
g16
asS'3111'
p3222
(lp3223
g8
asS'1472'
p3224
(lp3225
g3
asS'1473'
p3226
(lp3227
g16
asS'1470'
p3228
(lp3229
g49
ag16
asS'1471'
p3230
(lp3231
g3
asS'1477'
p3232
(lp3233
g16
ag3
asS'1474'
p3234
(lp3235
g3
ag16
asS'1475'
p3236
(lp3237
g49
asS'1478'
p3238
(lp3239
g3
ag8
asS'1479'
p3240
(lp3241
sS'3336'
p3242
(lp3243
sS'1304'
p3244
(lp3245
g16
ag8
asS'1305'
p3246
(lp3247
g16
ag3
ag8
asS'1306'
p3248
(lp3249
g8
asS'1307'
p3250
(lp3251
sS'1300'
p3252
(lp3253
g3
asS'1301'
p3254
(lp3255
g16
asS'1302'
p3256
(lp3257
g16
ag11
ag8
asS'1303'
p3258
(lp3259
g11
ag3
asS'1497'
p3260
(lp3261
sS'1309'
p3262
(lp3263
sS'3590'
p3264
(lp3265
g16
ag3
asS'498'
p3266
(lp3267
sS'499'
p3268
(lp3269
g16
asS'494'
p3270
(lp3271
g3
asS'495'
p3272
(lp3273
sS'496'
p3274
(lp3275
g3
ag16
asS'497'
p3276
(lp3277
g3
asS'490'
p3278
(lp3279
g3
asS'491'
p3280
(lp3281
g16
asS'492'
p3282
(lp3283
g8
asS'493'
p3284
(lp3285
g16
asS'24'
p3286
(lp3287
sS'25'
p3288
(lp3289
g3
ag49
asS'21'
p3290
(lp3291
sS'28'
p3292
(lp3293
g16
asS'29'
p3294
(lp3295
g16
ag3
asS'3262'
p3296
(lp3297
sS'1705'
p3298
(lp3299
g16
ag3
asS'1601'
p3300
(lp3301
g16
asS'1604'
p3302
(lp3303
g16
asS'3267'
p3304
(lp3305
g16
ag3
asS'7'
p3306
(lp3307
sS'2288'
p3308
(lp3309
g16
asS'3664'
p3310
(lp3311
g3
asS'3667'
p3312
(lp3313
g16
ag11
ag8
asS'3666'
p3314
(lp3315
g3
asS'3661'
p3316
(lp3317
sS'3660'
p3318
(lp3319
g3
ag8
asS'3663'
p3320
(lp3321
g16
ag3
asS'3662'
p3322
(lp3323
g3
ag8
asS'2280'
p3324
(lp3325
sS'2281'
p3326
(lp3327
g8
asS'2282'
p3328
(lp3329
g3
asS'2283'
p3330
(lp3331
g3
asS'3669'
p3332
(lp3333
sS'2285'
p3334
(lp3335
g16
asS'2286'
p3336
(lp3337
g3
asS'2287'
p3338
(lp3339
g16
asS'1605'
p3340
(lp3341
g16
asS'2578'
p3342
(lp3343
sS'2579'
p3344
(lp3345
sS'2576'
p3346
(lp3347
g16
ag3
asS'2577'
p3348
(lp3349
g11
ag3
asS'2574'
p3350
(lp3351
g3
asS'2575'
p3352
(lp3353
sS'2572'
p3354
(lp3355
g16
asS'2573'
p3356
(lp3357
g16
asS'2570'
p3358
(lp3359
g16
asS'2571'
p3360
(lp3361
g49
asS'3690'
p3362
(lp3363
g16
asS'2378'
p3364
(lp3365
g16
ag8
asS'2379'
p3366
(lp3367
sS'601'
p3368
(lp3369
g16
ag8
ag49
ag3
asS'2377'
p3370
(lp3371
g16
asS'2370'
p3372
(lp3373
g3
asS'2372'
p3374
(lp3375
g3
asS'2594'
p3376
(lp3377
sS'2595'
p3378
(lp3379
g3
asS'2596'
p3380
(lp3381
sS'2597'
p3382
(lp3383
g16
asS'2590'
p3384
(lp3385
g16
ag8
ag3
asS'2591'
p3386
(lp3387
g8
asS'2592'
p3388
(lp3389
g16
asS'2593'
p3390
(lp3391
g16
asS'3599'
p3392
(lp3393
g16
asS'3598'
p3394
(lp3395
sS'2598'
p3396
(lp3397
sS'2599'
p3398
(lp3399
g3
ag8
asS'1874'
p3400
(lp3401
g16
asS'1872'
p3402
(lp3403
g16
ag3
asS'1873'
p3404
(lp3405
g49
ag16
asS'1870'
p3406
(lp3407
g8
asS'1871'
p3408
(lp3409
g3
asS'600'
p3410
(lp3411
g49
ag16
asS'1607'
p3412
(lp3413
g8
ag16
asS'1878'
p3414
(lp3415
g8
ag16
ag3
asS'1879'
p3416
(lp3417
g3
asS'977'
p3418
(lp3419
g3
asS'182'
p3420
(lp3421
sS'974'
p3422
(lp3423
g3
ag16
asS'973'
p3424
(lp3425
g49
asS'972'
p3426
(lp3427
g49
ag3
ag8
asS'971'
p3428
(lp3429
g16
ag3
asS'970'
p3430
(lp3431
g3
asS'1080'
p3432
(lp3433
g16
asS'979'
p3434
(lp3435
g3
ag8
asS'978'
p3436
(lp3437
g16
asS'2118'
p3438
(lp3439
g3
asS'2119'
p3440
(lp3441
g3
asS'180'
p3442
(lp3443
g3
asS'181'
p3444
(lp3445
g16
asS'186'
p3446
(lp3447
g49
ag16
asS'187'
p3448
(lp3449
g3
asS'184'
p3450
(lp3451
g3
asS'185'
p3452
(lp3453
g16
asS'2112'
p3454
(lp3455
g3
asS'2113'
p3456
(lp3457
g3
ag8
asS'2114'
p3458
(lp3459
g16
ag3
asS'2115'
p3460
(lp3461
g16
asS'2116'
p3462
(lp3463
g8
asS'1559'
p3464
(lp3465
g16
asS'2622'
p3466
(lp3467
g16
ag11
ag8
asS'2623'
p3468
(lp3469
g3
ag11
asS'2620'
p3470
(lp3471
g8
asS'2621'
p3472
(lp3473
sS'2627'
p3474
(lp3475
g49
ag8
asS'2624'
p3476
(lp3477
g3
asS'60'
p3478
(lp3479
sS'1919'
p3480
(lp3481
sS'1918'
p3482
(lp3483
g8
asS'3289'
p3484
(lp3485
g3
asS'3288'
p3486
(lp3487
sS'1911'
p3488
(lp3489
g11
ag16
ag49
asS'1910'
p3490
(lp3491
g16
ag49
asS'3285'
p3492
(lp3493
sS'1912'
p3494
(lp3495
sS'3282'
p3496
(lp3497
g16
asS'3281'
p3498
(lp3499
g49
ag3
asS'3280'
p3500
(lp3501
g16
ag3
asS'869'
p3502
(lp3503
g49
ag8
asS'868'
p3504
(lp3505
g8
asS'189'
p3506
(lp3507
g16
ag8
asS'861'
p3508
(lp3509
g3
asS'860'
p3510
(lp3511
g49
asS'863'
p3512
(lp3513
g16
asS'862'
p3514
(lp3515
g3
asS'865'
p3516
(lp3517
g16
ag3
asS'3440'
p3518
(lp3519
g11
ag16
asS'3443'
p3520
(lp3521
g8
asS'3442'
p3522
(lp3523
sS'2024'
p3524
(lp3525
g3
asS'2757'
p3526
(lp3527
sS'2026'
p3528
(lp3529
g16
asS'2027'
p3530
(lp3531
g3
asS'2020'
p3532
(lp3533
g16
asS'2753'
p3534
(lp3535
g3
ag16
ag11
asS'2751'
p3536
(lp3537
sS'2828'
p3538
(lp3539
sS'2117'
p3540
(lp3541
g8
ag16
asS'2028'
p3542
(lp3543
g16
ag3
asS'2029'
p3544
(lp3545
g49
asS'2829'
p3546
(lp3547
sS'883'
p3548
(lp3549
g16
ag3
asS'882'
p3550
(lp3551
g16
ag49
ag8
asS'881'
p3552
(lp3553
sS'880'
p3554
(lp3555
g3
asS'887'
p3556
(lp3557
sS'885'
p3558
(lp3559
g16
ag3
ag49
asS'884'
p3560
(lp3561
sS'889'
p3562
(lp3563
g3
ag8
asS'888'
p3564
(lp3565
sS'1340'
p3566
(lp3567
g3
asS'3149'
p3568
(lp3569
g3
asS'775'
p3570
(lp3571
g49
asS'774'
p3572
(lp3573
sS'777'
p3574
(lp3575
g16
asS'776'
p3576
(lp3577
g16
asS'771'
p3578
(lp3579
g3
asS'770'
p3580
(lp3581
g49
asS'773'
p3582
(lp3583
g16
asS'772'
p3584
(lp3585
g3
asS'779'
p3586
(lp3587
g8
asS'778'
p3588
(lp3589
g8
asS'419'
p3590
(lp3591
g3
asS'77'
p3592
(lp3593
g8
asS'76'
p3594
(lp3595
sS'2978'
p3596
(lp3597
g3
asS'2979'
p3598
(lp3599
g16
asS'72'
p3600
(lp3601
g3
asS'3058'
p3602
(lp3603
g3
asS'3059'
p3604
(lp3605
g16
ag8
asS'2972'
p3606
(lp3607
g49
asS'3057'
p3608
(lp3609
sS'2970'
p3610
(lp3611
sS'2971'
p3612
(lp3613
sS'2976'
p3614
(lp3615
g3
ag11
ag8
ag16
asS'2977'
p3616
(lp3617
g16
ag3
ag11
asS'3050'
p3618
(lp3619
sS'3051'
p3620
(lp3621
g3
asS'1041'
p3622
(lp3623
g3
asS'1040'
p3624
(lp3625
g16
ag8
asS'1047'
p3626
(lp3627
sS'1046'
p3628
(lp3629
sS'1045'
p3630
(lp3631
g8
asS'1044'
p3632
(lp3633
g8
asS'1049'
p3634
(lp3635
g8
asS'1681'
p3636
(lp3637
g3
asS'1680'
p3638
(lp3639
g3
asS'1683'
p3640
(lp3641
g16
ag8
asS'1684'
p3642
(lp3643
g3
asS'1687'
p3644
(lp3645
g3
asS'1686'
p3646
(lp3647
g3
ag16
ag11
asS'1689'
p3648
(lp3649
g16
ag11
asS'1688'
p3650
(lp3651
g3
asS'1269'
p3652
(lp3653
g16
ag3
ag8
asS'2980'
p3654
(lp3655
sS'669'
p3656
(lp3657
sS'668'
p3658
(lp3659
g3
ag16
asS'667'
p3660
(lp3661
g11
asS'666'
p3662
(lp3663
g16
ag8
asS'665'
p3664
(lp3665
g3
ag8
asS'664'
p3666
(lp3667
sS'663'
p3668
(lp3669
g16
asS'662'
p3670
(lp3671
g16
asS'661'
p3672
(lp3673
sS'3022'
p3674
(lp3675
g3
asS'3021'
p3676
(lp3677
sS'3095'
p3678
(lp3679
sS'2984'
p3680
(lp3681
g16
asS'1913'
p3682
(lp3683
g8
asS'3128'
p3684
(lp3685
sS'3129'
p3686
(lp3687
g3
asS'3122'
p3688
(lp3689
sS'3123'
p3690
(lp3691
g16
ag49
ag8
asS'3120'
p3692
(lp3693
g16
asS'3121'
p3694
(lp3695
sS'3126'
p3696
(lp3697
g8
asS'3127'
p3698
(lp3699
g3
asS'1469'
p3700
(lp3701
g16
asS'1468'
p3702
(lp3703
g8
ag3
asS'1465'
p3704
(lp3705
g3
ag49
ag8
asS'1018'
p3706
(lp3707
g16
ag8
asS'1467'
p3708
(lp3709
sS'1916'
p3710
(lp3711
sS'1461'
p3712
(lp3713
g3
asS'1460'
p3714
(lp3715
g3
asS'1462'
p3716
(lp3717
g16
ag3
asS'1317'
p3718
(lp3719
g11
asS'1316'
p3720
(lp3721
g16
ag3
asS'1315'
p3722
(lp3723
sS'1314'
p3724
(lp3725
sS'1313'
p3726
(lp3727
g3
asS'1312'
p3728
(lp3729
g3
ag8
asS'1311'
p3730
(lp3731
sS'1310'
p3732
(lp3733
sS'1319'
p3734
(lp3735
g49
ag8
asS'1318'
p3736
(lp3737
g49
ag3
asS'1010'
p3738
(lp3739
sS'464'
p3740
(lp3741
g16
ag49
ag3
asS'1011'
p3742
(lp3743
g16
ag3
asS'318'
p3744
(lp3745
g49
asS'313'
p3746
(lp3747
sS'3441'
p3748
(lp3749
g11
ag16
asS'317'
p3750
(lp3751
sS'316'
p3752
(lp3753
g16
ag8
asS'315'
p3754
(lp3755
g3
asS'864'
p3756
(lp3757
g16
asS'867'
p3758
(lp3759
sS'1618'
p3760
(lp3761
g3
ag16
asS'866'
p3762
(lp3763
g3
asS'2025'
p3764
(lp3765
sS'2754'
p3766
(lp3767
g11
ag8
ag3
asS'1335'
p3768
(lp3769
g16
ag3
ag8
ag49
asS'1030'
p3770
(lp3771
g8
asS'1334'
p3772
(lp3773
g8
asS'2752'
p3774
(lp3775
g16
ag3
asS'1331'
p3776
(lp3777
sS'2698'
p3778
(lp3779
g8
asS'446'
p3780
(lp3781
sS'2692'
p3782
(lp3783
g16
ag49
asS'2461'
p3784
(lp3785
g8
asS'3610'
p3786
(lp3787
g3
asS'3611'
p3788
(lp3789
sS'2299'
p3790
(lp3791
sS'3613'
p3792
(lp3793
g3
asS'3617'
p3794
(lp3795
g3
asS'2293'
p3796
(lp3797
g3
asS'3619'
p3798
(lp3799
g3
asS'2290'
p3800
(lp3801
g16
asS'2297'
p3802
(lp3803
g16
asS'2296'
p3804
(lp3805
sS'2295'
p3806
(lp3807
g3
ag16
asS'2294'
p3808
(lp3809
g3
ag49
ag16
asS'2569'
p3810
(lp3811
sS'2568'
p3812
(lp3813
sS'2560'
p3814
(lp3815
g3
asS'2563'
p3816
(lp3817
g16
asS'1615'
p3818
(lp3819
sS'2567'
p3820
(lp3821
g11
ag3
asS'403'
p3822
(lp3823
sS'908'
p3824
(lp3825
g16
asS'2369'
p3826
(lp3827
sS'2367'
p3828
(lp3829
g3
ag49
asS'2366'
p3830
(lp3831
sS'2365'
p3832
(lp3833
g16
ag3
asS'2364'
p3834
(lp3835
g3
asS'2363'
p3836
(lp3837
g3
asS'2361'
p3838
(lp3839
g16
asS'2360'
p3840
(lp3841
g49
asS'2587'
p3842
(lp3843
sS'2586'
p3844
(lp3845
g3
asS'2585'
p3846
(lp3847
g8
asS'2584'
p3848
(lp3849
sS'2582'
p3850
(lp3851
g16
asS'2581'
p3852
(lp3853
g3
asS'2580'
p3854
(lp3855
g16
ag49
ag8
asS'1612'
p3856
(lp3857
sS'402'
p3858
(lp3859
sS'2589'
p3860
(lp3861
g16
ag3
asS'2588'
p3862
(lp3863
g8
ag3
ag49
asS'1861'
p3864
(lp3865
g3
asS'1860'
p3866
(lp3867
sS'1865'
p3868
(lp3869
g16
asS'1867'
p3870
(lp3871
g16
ag8
asS'1866'
p3872
(lp3873
g11
ag16
asS'1869'
p3874
(lp3875
g8
asS'1868'
p3876
(lp3877
g3
asS'964'
p3878
(lp3879
sS'965'
p3880
(lp3881
sS'966'
p3882
(lp3883
g11
asS'967'
p3884
(lp3885
g16
ag3
asS'960'
p3886
(lp3887
g3
ag16
asS'961'
p3888
(lp3889
g3
asS'962'
p3890
(lp3891
g3
asS'1613'
p3892
(lp3893
sS'968'
p3894
(lp3895
g3
asS'969'
p3896
(lp3897
g8
ag3
asS'2109'
p3898
(lp3899
g49
ag8
ag3
ag16
asS'2108'
p3900
(lp3901
sS'2103'
p3902
(lp3903
sS'2102'
p3904
(lp3905
sS'2101'
p3906
(lp3907
g16
asS'2100'
p3908
(lp3909
sS'2107'
p3910
(lp3911
g16
asS'2105'
p3912
(lp3913
sS'2104'
p3914
(lp3915
g49
asS'2639'
p3916
(lp3917
g3
asS'2638'
p3918
(lp3919
g16
asS'635'
p3920
(lp3921
sS'2635'
p3922
(lp3923
sS'2634'
p3924
(lp3925
sS'2637'
p3926
(lp3927
g16
asS'2636'
p3928
(lp3929
sS'2631'
p3930
(lp3931
g3
ag16
ag49
asS'2630'
p3932
(lp3933
g49
ag3
asS'3438'
p3934
(lp3935
g49
ag8
asS'3439'
p3936
(lp3937
g11
ag3
ag8
asS'878'
p3938
(lp3939
g16
asS'3093'
p3940
(lp3941
sS'876'
p3942
(lp3943
g8
asS'3431'
p3944
(lp3945
sS'874'
p3946
(lp3947
g16
asS'3433'
p3948
(lp3949
g3
asS'3434'
p3950
(lp3951
g16
asS'3435'
p3952
(lp3953
g16
ag3
asS'870'
p3954
(lp3955
g16
ag11
asS'3437'
p3956
(lp3957
g16
ag3
asS'2741'
p3958
(lp3959
g16
ag8
asS'2036'
p3960
(lp3961
g3
ag49
asS'2035'
p3962
(lp3963
g16
ag3
asS'2742'
p3964
(lp3965
g16
asS'2033'
p3966
(lp3967
g16
asS'2747'
p3968
(lp3969
g16
asS'2030'
p3970
(lp3971
g16
ag3
asS'9'
p3972
(lp3973
sS'2748'
p3974
(lp3975
g49
ag8
ag3
asS'2039'
p3976
(lp3977
g16
asS'2038'
p3978
(lp3979
g16
asS'891'
p3980
(lp3981
g16
ag8
asS'892'
p3982
(lp3983
g16
asS'894'
p3984
(lp3985
g3
asS'895'
p3986
(lp3987
sS'896'
p3988
(lp3989
g16
asS'897'
p3990
(lp3991
g16
ag3
asS'898'
p3992
(lp3993
g49
ag3
asS'899'
p3994
(lp3995
g16
ag8
asS'646'
p3996
(lp3997
sS'3651'
p3998
(lp3999
g49
asS'783'
p4000
(lp4001
sS'1968'
p4002
(lp4003
g16
asS'1969'
p4004
(lp4005
g8
ag49
ag16
asS'3544'
p4006
(lp4007
g49
ag3
asS'3545'
p4008
(lp4009
g8
asS'3546'
p4010
(lp4011
g16
ag3
asS'3547'
p4012
(lp4013
g16
asS'3541'
p4014
(lp4015
g16
asS'3542'
p4016
(lp4017
g3
ag8
asS'3543'
p4018
(lp4019
g16
ag3
asS'3235'
p4020
(lp4021
g3
asS'1964'
p4022
(lp4023
g16
asS'422'
p4024
(lp4025
g3
asS'1965'
p4026
(lp4027
g3
asS'3238'
p4028
(lp4029
sS'3069'
p4030
(lp4031
sS'2965'
p4032
(lp4033
g49
asS'2964'
p4034
(lp4035
g16
ag3
ag8
asS'2967'
p4036
(lp4037
g16
ag3
asS'2966'
p4038
(lp4039
sS'2961'
p4040
(lp4041
g8
asS'2960'
p4042
(lp4043
sS'2963'
p4044
(lp4045
g16
ag8
asS'2962'
p4046
(lp4047
g16
ag3
asS'1780'
p4048
(lp4049
g16
ag8
asS'1781'
p4050
(lp4051
sS'760'
p4052
(lp4053
g3
ag8
asS'1783'
p4054
(lp4055
sS'2969'
p4056
(lp4057
sS'767'
p4058
(lp4059
g16
ag8
ag3
asS'764'
p4060
(lp4061
g3
ag16
asS'765'
p4062
(lp4063
g11
ag16
asS'3049'
p4064
(lp4065
g16
asS'3048'
p4066
(lp4067
g16
ag3
asS'3041'
p4068
(lp4069
g16
ag3
asS'3040'
p4070
(lp4071
sS'3043'
p4072
(lp4073
g16
asS'3042'
p4074
(lp4075
g16
asS'3045'
p4076
(lp4077
sS'3044'
p4078
(lp4079
g16
asS'3047'
p4080
(lp4081
g3
asS'3046'
p4082
(lp4083
g3
asS'1078'
p4084
(lp4085
g3
asS'1077'
p4086
(lp4087
sS'1074'
p4088
(lp4089
g3
asS'1070'
p4090
(lp4091
sS'1071'
p4092
(lp4093
g3
asS'1678'
p4094
(lp4095
sS'1679'
p4096
(lp4097
sS'3030'
p4098
(lp4099
sS'1674'
p4100
(lp4101
sS'1675'
p4102
(lp4103
g16
ag11
asS'1676'
p4104
(lp4105
g49
ag3
asS'1677'
p4106
(lp4107
sS'1670'
p4108
(lp4109
sS'1671'
p4110
(lp4111
g3
asS'1672'
p4112
(lp4113
g16
asS'1673'
p4114
(lp4115
g8
ag16
asS'1094'
p4116
(lp4117
g16
asS'1095'
p4118
(lp4119
g16
ag11
ag3
asS'1096'
p4120
(lp4121
g3
ag49
asS'1097'
p4122
(lp4123
g8
ag3
ag11
asS'678'
p4124
(lp4125
g8
ag16
ag3
asS'679'
p4126
(lp4127
sS'1092'
p4128
(lp4129
g3
asS'1534'
p4130
(lp4131
g16
asS'674'
p4132
(lp4133
g8
ag49
asS'675'
p4134
(lp4135
g8
asS'676'
p4136
(lp4137
g49
asS'677'
p4138
(lp4139
sS'1098'
p4140
(lp4141
sS'1099'
p4142
(lp4143
g16
asS'672'
p4144
(lp4145
g3
asS'673'
p4146
(lp4147
g16
asS'3135'
p4148
(lp4149
g8
asS'3134'
p4150
(lp4151
g16
ag8
asS'3137'
p4152
(lp4153
sS'3136'
p4154
(lp4155
sS'3131'
p4156
(lp4157
sS'3130'
p4158
(lp4159
g16
asS'3133'
p4160
(lp4161
g3
asS'3139'
p4162
(lp4163
g49
ag16
ag3
asS'3138'
p4164
(lp4165
g3
asS'1533'
p4166
(lp4167
g3
ag16
asS'1622'
p4168
(lp4169
g3
asS'1418'
p4170
(lp4171
sS'1419'
p4172
(lp4173
sS'1410'
p4174
(lp4175
sS'1411'
p4176
(lp4177
g16
asS'1412'
p4178
(lp4179
g3
asS'1413'
p4180
(lp4181
g16
asS'1414'
p4182
(lp4183
sS'1415'
p4184
(lp4185
g16
ag8
asS'1416'
p4186
(lp4187
g11
ag3
asS'1417'
p4188
(lp4189
sS'1322'
p4190
(lp4191
g16
asS'1323'
p4192
(lp4193
g3
asS'1320'
p4194
(lp4195
sS'1532'
p4196
(lp4197
sS'1326'
p4198
(lp4199
g16
asS'1327'
p4200
(lp4201
g16
ag3
asS'1324'
p4202
(lp4203
sS'1325'
p4204
(lp4205
g16
asS'1328'
p4206
(lp4207
g49
asS'1329'
p4208
(lp4209
sS'5'
p4210
(lp4211
g3
asS'1531'
p4212
(lp4213
sS'1917'
p4214
(lp4215
g3
ag16
asS'3618'
p4216
(lp4217
g3
asS'1254'
p4218
(lp4219
g3
ag16
asS'1527'
p4220
(lp4221
g3
asS'1250'
p4222
(lp4223
g16
ag3
asS'1528'
p4224
(lp4225
g16
asS'308'
p4226
(lp4227
g3
ag16
asS'309'
p4228
(lp4229
g3
ag8
asS'300'
p4230
(lp4231
g16
ag8
ag3
asS'301'
p4232
(lp4233
g3
asS'302'
p4234
(lp4235
g3
asS'303'
p4236
(lp4237
g16
asS'304'
p4238
(lp4239
g3
ag49
asS'305'
p4240
(lp4241
g16
asS'306'
p4242
(lp4243
g16
asS'307'
p4244
(lp4245
g3
asS'1792'
p4246
(lp4247
g8
ag3
asS'1626'
p4248
(lp4249
g8
asS'75'
p4250
(lp4251
sS'2399'
p4252
(lp4253
g16
asS'71'
p4254
(lp4255
g8
ag3
ag16
asS'70'
p4256
(lp4257
g3
ag8
asS'3056'
p4258
(lp4259
g16
ag49
ag8
ag3
asS'989'
p4260
(lp4261
g8
asS'2973'
p4262
(lp4263
g16
ag8
asS'1447'
p4264
(lp4265
g16
asS'3052'
p4266
(lp4267
g3
ag8
asS'3412'
p4268
(lp4269
g49
ag3
ag8
asS'3053'
p4270
(lp4271
g3
asS'2974'
p4272
(lp4273
g16
asS'2975'
p4274
(lp4275
g3
asS'3603'
p4276
(lp4277
g16
asS'3602'
p4278
(lp4279
sS'3601'
p4280
(lp4281
g3
ag16
ag8
asS'3600'
p4282
(lp4283
g16
asS'3607'
p4284
(lp4285
sS'3606'
p4286
(lp4287
g16
asS'3605'
p4288
(lp4289
g8
ag3
ag16
asS'3604'
p4290
(lp4291
g8
asS'3609'
p4292
(lp4293
sS'3608'
p4294
(lp4295
g49
ag16
asS'3413'
p4296
(lp4297
g3
asS'2479'
p4298
(lp4299
g3
ag8
ag16
asS'2478'
p4300
(lp4301
g3
asS'470'
p4302
(lp4303
sS'2990'
p4304
(lp4305
g16
asS'2359'
p4306
(lp4307
sS'2350'
p4308
(lp4309
g3
asS'2356'
p4310
(lp4311
g8
asS'2355'
p4312
(lp4313
g16
asS'2991'
p4314
(lp4315
g16
asS'1899'
p4316
(lp4317
g16
asS'1894'
p4318
(lp4319
g3
ag49
ag16
asS'1890'
p4320
(lp4321
g49
ag11
asS'1891'
p4322
(lp4323
g16
asS'1893'
p4324
(lp4325
g16
asS'2136'
p4326
(lp4327
sS'2137'
p4328
(lp4329
g16
ag8
asS'2134'
p4330
(lp4331
sS'2135'
p4332
(lp4333
g3
ag49
asS'2132'
p4334
(lp4335
g16
ag8
asS'2133'
p4336
(lp4337
g16
ag3
asS'2130'
p4338
(lp4339
sS'2131'
p4340
(lp4341
sS'951'
p4342
(lp4343
g3
ag8
asS'950'
p4344
(lp4345
sS'953'
p4346
(lp4347
g16
ag8
ag3
asS'952'
p4348
(lp4349
sS'955'
p4350
(lp4351
sS'954'
p4352
(lp4353
g16
ag3
asS'2138'
p4354
(lp4355
sS'2139'
p4356
(lp4357
sS'2648'
p4358
(lp4359
g16
asS'2649'
p4360
(lp4361
g16
ag3
asS'2640'
p4362
(lp4363
g11
asS'2641'
p4364
(lp4365
g3
ag8
asS'2642'
p4366
(lp4367
g16
ag11
asS'2643'
p4368
(lp4369
g16
ag3
ag49
asS'2644'
p4370
(lp4371
sS'2645'
p4372
(lp4373
g3
ag16
asS'2646'
p4374
(lp4375
g3
ag16
asS'2647'
p4376
(lp4377
g3
ag16
asS'3429'
p4378
(lp4379
sS'3428'
p4380
(lp4381
sS'3423'
p4382
(lp4383
g16
asS'3422'
p4384
(lp4385
g8
asS'3421'
p4386
(lp4387
g16
asS'3420'
p4388
(lp4389
g3
ag8
ag49
asS'3426'
p4390
(lp4391
sS'3425'
p4392
(lp4393
g16
asS'3424'
p4394
(lp4395
g3
ag16
asS'2002'
p4396
(lp4397
g11
ag3
asS'2003'
p4398
(lp4399
g16
ag8
asS'2000'
p4400
(lp4401
sS'2001'
p4402
(lp4403
g16
ag3
asS'2006'
p4404
(lp4405
g8
asS'2007'
p4406
(lp4407
sS'2004'
p4408
(lp4409
g8
asS'2005'
p4410
(lp4411
g3
asS'2008'
p4412
(lp4413
g16
ag8
asS'2009'
p4414
(lp4415
g8
asS'2034'
p4416
(lp4417
g8
ag3
asS'1544'
p4418
(lp4419
g3
asS'1268'
p4420
(lp4421
g16
asS'3026'
p4422
(lp4423
g11
ag3
ag8
ag16
asS'3557'
p4424
(lp4425
g16
ag11
asS'3556'
p4426
(lp4427
sS'3555'
p4428
(lp4429
g3
ag16
asS'3554'
p4430
(lp4431
g16
asS'3553'
p4432
(lp4433
sS'3551'
p4434
(lp4435
g16
asS'3558'
p4436
(lp4437
g3
asS'919'
p4438
(lp4439
sS'2997'
p4440
(lp4441
sS'918'
p4442
(lp4443
sS'2910'
p4444
(lp4445
g3
asS'2911'
p4446
(lp4447
g16
ag8
asS'2912'
p4448
(lp4449
g3
ag16
asS'1798'
p4450
(lp4451
g8
ag3
asS'2914'
p4452
(lp4453
g16
asS'2915'
p4454
(lp4455
g8
ag16
ag49
asS'719'
p4456
(lp4457
g16
ag8
asS'718'
p4458
(lp4459
g3
asS'1793'
p4460
(lp4461
sS'2919'
p4462
(lp4463
sS'1791'
p4464
(lp4465
sS'714'
p4466
(lp4467
sS'1797'
p4468
(lp4469
g3
ag8
ag49
asS'712'
p4470
(lp4471
g8
asS'711'
p4472
(lp4473
sS'710'
p4474
(lp4475
g16
asS'716'
p4476
(lp4477
sS'660'
p4478
(lp4479
sS'917'
p4480
(lp4481
g8
asS'1069'
p4482
(lp4483
g3
asS'1068'
p4484
(lp4485
g16
asS'2179'
p4486
(lp4487
g3
asS'1061'
p4488
(lp4489
g8
asS'1060'
p4490
(lp4491
g3
asS'1063'
p4492
(lp4493
sS'1062'
p4494
(lp4495
g16
ag11
asS'1065'
p4496
(lp4497
g16
ag11
asS'1064'
p4498
(lp4499
sS'1067'
p4500
(lp4501
g16
asS'1066'
p4502
(lp4503
g16
asS'1669'
p4504
(lp4505
g3
asS'1668'
p4506
(lp4507
g8
asS'1667'
p4508
(lp4509
g16
ag49
asS'1666'
p4510
(lp4511
g16
ag8
asS'1665'
p4512
(lp4513
g49
asS'1664'
p4514
(lp4515
g16
ag8
asS'1663'
p4516
(lp4517
g3
asS'1662'
p4518
(lp4519
g16
asS'1661'
p4520
(lp4521
sS'1660'
p4522
(lp4523
g16
ag49
asS'1087'
p4524
(lp4525
g3
asS'1086'
p4526
(lp4527
sS'593'
p4528
(lp4529
g8
asS'592'
p4530
(lp4531
g8
asS'595'
p4532
(lp4533
sS'594'
p4534
(lp4535
g49
ag16
asS'597'
p4536
(lp4537
g3
asS'596'
p4538
(lp4539
g3
asS'599'
p4540
(lp4541
g16
asS'598'
p4542
(lp4543
g16
ag49
ag8
asS'1089'
p4544
(lp4545
g49
ag16
asS'1088'
p4546
(lp4547
sS'3140'
p4548
(lp4549
g11
asS'3141'
p4550
(lp4551
g16
ag8
asS'3142'
p4552
(lp4553
g8
asS'3144'
p4554
(lp4555
g49
ag8
asS'3145'
p4556
(lp4557
sS'3146'
p4558
(lp4559
g3
ag16
asS'3147'
p4560
(lp4561
g3
asS'3148'
p4562
(lp4563
g16
ag3
asS'2825'
p4564
(lp4565
sS'2826'
p4566
(lp4567
g8
asS'2827'
p4568
(lp4569
g16
ag49
ag8
asS'2822'
p4570
(lp4571
g3
ag16
asS'2823'
p4572
(lp4573
g16
ag49
ag8
asS'3384'
p4574
(lp4575
sS'3382'
p4576
(lp4577
g49
asS'3383'
p4578
(lp4579
g3
ag16
asS'3380'
p4580
(lp4581
g11
asS'3381'
p4582
(lp4583
g3
ag8
asS'3388'
p4584
(lp4585
g49
asS'713'
p4586
(lp4587
g8
asS'1409'
p4588
(lp4589
g16
asS'1408'
p4590
(lp4591
g3
asS'1403'
p4592
(lp4593
g3
asS'1402'
p4594
(lp4595
g16
ag3
asS'1401'
p4596
(lp4597
sS'1400'
p4598
(lp4599
g3
asS'1407'
p4600
(lp4601
sS'1404'
p4602
(lp4603
g11
asS'1546'
p4604
(lp4605
g16
ag3
asS'449'
p4606
(lp4607
g16
asS'448'
p4608
(lp4609
g16
asS'1339'
p4610
(lp4611
g16
asS'1338'
p4612
(lp4613
g16
ag8
asS'1491'
p4614
(lp4615
g16
asS'693'
p4616
(lp4617
g3
ag8
ag49
asS'443'
p4618
(lp4619
g16
ag3
asS'442'
p4620
(lp4621
g49
asS'441'
p4622
(lp4623
g8
asS'440'
p4624
(lp4625
g3
asS'447'
p4626
(lp4627
g3
ag16
asS'1330'
p4628
(lp4629
sS'445'
p4630
(lp4631
sS'444'
p4632
(lp4633
sS'1545'
p4634
(lp4635
sS'696'
p4636
(lp4637
g16
ag3
asS'1631'
p4638
(lp4639
g16
asS'697'
p4640
(lp4641
g3
asS'1933'
p4642
(lp4643
g16
asS'39'
p4644
(lp4645
g8
asS'38'
p4646
(lp4647
sS'1540'
p4648
(lp4649
sS'1932'
p4650
(lp4651
g3
asS'30'
p4652
(lp4653
g3
ag8
asS'37'
p4654
(lp4655
g3
asS'36'
p4656
(lp4657
sS'35'
p4658
(lp4659
sS'34'
p4660
(lp4661
g3
asS'1537'
p4662
(lp4663
g3
asS'1240'
p4664
(lp4665
g3
asS'1535'
p4666
(lp4667
g16
ag8
ag3
asS'1242'
p4668
(lp4669
g16
asS'645'
p4670
(lp4671
sS'1244'
p4672
(lp4673
g3
asS'647'
p4674
(lp4675
g16
ag8
asS'1530'
p4676
(lp4677
g3
asS'649'
p4678
(lp4679
g49
ag3
ag8
ag16
asS'648'
p4680
(lp4681
g16
asS'3098'
p4682
(lp4683
sS'1539'
p4684
(lp4685
g3
asS'1538'
p4686
(lp4687
g16
asS'339'
p4688
(lp4689
g16
asS'338'
p4690
(lp4691
g16
asS'335'
p4692
(lp4693
g3
asS'334'
p4694
(lp4695
g16
ag8
asS'337'
p4696
(lp4697
g16
asS'336'
p4698
(lp4699
g3
asS'331'
p4700
(lp4701
g3
asS'330'
p4702
(lp4703
sS'333'
p4704
(lp4705
g3
asS'332'
p4706
(lp4707
g16
ag3
asS'2061'
p4708
(lp4709
sS'1633'
p4710
(lp4711
g3
asS'543'
p4712
(lp4713
g8
asS'1901'
p4714
(lp4715
g11
asS'3467'
p4716
(lp4717
g16
asS'653'
p4718
(lp4719
g3
asS'3464'
p4720
(lp4721
g3
asS'1085'
p4722
(lp4723
g8
asS'8'
p4724
(lp4725
g8
ag49
asS'3463'
p4726
(lp4727
g16
ag49
asS'1496'
p4728
(lp4729
g8
asS'842'
p4730
(lp4731
g11
ag3
ag8
asS'1466'
p4732
(lp4733
g3
asS'841'
p4734
(lp4735
sS'840'
p4736
(lp4737
g16
ag3
asS'3375'
p4738
(lp4739
sS'2854'
p4740
(lp4741
g8
asS'3638'
p4742
(lp4743
g16
asS'3639'
p4744
(lp4745
g3
ag16
asS'3636'
p4746
(lp4747
g16
ag49
asS'3637'
p4748
(lp4749
g3
asS'3634'
p4750
(lp4751
g16
asS'3635'
p4752
(lp4753
sS'3632'
p4754
(lp4755
g3
asS'3633'
p4756
(lp4757
g8
asS'3630'
p4758
(lp4759
sS'3631'
p4760
(lp4761
g3
ag16
ag49
asS'849'
p4762
(lp4763
sS'848'
p4764
(lp4765
sS'2347'
p4766
(lp4767
g3
asS'2341'
p4768
(lp4769
g8
asS'2349'
p4770
(lp4771
g16
ag3
asS'2348'
p4772
(lp4773
g8
ag16
ag3
asS'2469'
p4774
(lp4775
g16
asS'2987'
p4776
(lp4777
g16
ag3
ag49
asS'2067'
p4778
(lp4779
g3
ag8
asS'3708'
p4780
(lp4781
sS'3709'
p4782
(lp4783
g3
asS'1889'
p4784
(lp4785
sS'1888'
p4786
(lp4787
g3
asS'1887'
p4788
(lp4789
g16
ag3
asS'3703'
p4790
(lp4791
g16
asS'3700'
p4792
(lp4793
g3
asS'1884'
p4794
(lp4795
g16
ag8
asS'3706'
p4796
(lp4797
sS'3707'
p4798
(lp4799
g16
asS'3704'
p4800
(lp4801
sS'3705'
p4802
(lp4803
g3
asS'2121'
p4804
(lp4805
sS'2120'
p4806
(lp4807
g3
asS'2123'
p4808
(lp4809
g8
ag49
asS'2122'
p4810
(lp4811
g16
ag49
asS'2125'
p4812
(lp4813
g16
asS'2124'
p4814
(lp4815
sS'948'
p4816
(lp4817
sS'949'
p4818
(lp4819
g3
ag16
asS'946'
p4820
(lp4821
g16
asS'2128'
p4822
(lp4823
g16
ag8
asS'944'
p4824
(lp4825
g3
asS'1457'
p4826
(lp4827
g3
asS'942'
p4828
(lp4829
g11
asS'943'
p4830
(lp4831
g16
asS'940'
p4832
(lp4833
sS'941'
p4834
(lp4835
g8
asS'3038'
p4836
(lp4837
sS'2564'
p4838
(lp4839
sS'1594'
p4840
(lp4841
g16
asS'642'
p4842
(lp4843
sS'2653'
p4844
(lp4845
g11
asS'2652'
p4846
(lp4847
g3
asS'2651'
p4848
(lp4849
g16
ag3
ag49
asS'2650'
p4850
(lp4851
g3
asS'2657'
p4852
(lp4853
sS'2656'
p4854
(lp4855
g3
asS'2655'
p4856
(lp4857
g16
asS'2654'
p4858
(lp4859
sS'133'
p4860
(lp4861
g49
ag3
asS'132'
p4862
(lp4863
g16
ag11
ag8
asS'3414'
p4864
(lp4865
g16
asS'3415'
p4866
(lp4867
sS'137'
p4868
(lp4869
g3
asS'136'
p4870
(lp4871
g11
ag16
asS'3410'
p4872
(lp4873
g16
ag3
asS'134'
p4874
(lp4875
g16
asS'1931'
p4876
(lp4877
g3
asS'139'
p4878
(lp4879
g16
ag8
asS'138'
p4880
(lp4881
g3
ag49
asS'3418'
p4882
(lp4883
g3
ag49
asS'3419'
p4884
(lp4885
g8
ag3
asS'2019'
p4886
(lp4887
g3
asS'2018'
p4888
(lp4889
g16
asS'2015'
p4890
(lp4891
g16
ag3
asS'2017'
p4892
(lp4893
sS'2016'
p4894
(lp4895
g16
asS'2011'
p4896
(lp4897
g3
ag8
asS'2010'
p4898
(lp4899
g16
ag3
asS'2012'
p4900
(lp4901
g16
asS'183'
p4902
(lp4903
g8
asS'3562'
p4904
(lp4905
g3
ag8
asS'3563'
p4906
(lp4907
g16
ag3
asS'3561'
p4908
(lp4909
g3
asS'3566'
p4910
(lp4911
sS'3567'
p4912
(lp4913
sS'3564'
p4914
(lp4915
g8
asS'3565'
p4916
(lp4917
g3
asS'1590'
p4918
(lp4919
g8
asS'2903'
p4920
(lp4921
g16
asS'2902'
p4922
(lp4923
g16
asS'2901'
p4924
(lp4925
g49
ag3
ag16
asS'2900'
p4926
(lp4927
g16
asS'2907'
p4928
(lp4929
g49
ag8
asS'709'
p4930
(lp4931
g16
ag11
asS'2905'
p4932
(lp4933
g8
ag16
asS'3035'
p4934
(lp4935
g3
asS'704'
p4936
(lp4937
g11
ag3
ag16
asS'705'
p4938
(lp4939
g16
asS'2909'
p4940
(lp4941
g16
asS'2908'
p4942
(lp4943
sS'700'
p4944
(lp4945
g11
asS'701'
p4946
(lp4947
g3
asS'702'
p4948
(lp4949
g16
ag49
asS'703'
p4950
(lp4951
g49
ag3
asS'89'
p4952
(lp4953
g16
ag8
ag3
asS'1593'
p4954
(lp4955
g8
asS'82'
p4956
(lp4957
g49
ag16
ag8
asS'83'
p4958
(lp4959
g11
asS'80'
p4960
(lp4961
g3
asS'81'
p4962
(lp4963
g8
asS'87'
p4964
(lp4965
g3
asS'84'
p4966
(lp4967
sS'85'
p4968
(lp4969
g16
asS'1743'
p4970
(lp4971
g16
asS'1659'
p4972
(lp4973
sS'1652'
p4974
(lp4975
g11
ag49
ag3
ag8
asS'1653'
p4976
(lp4977
sS'1650'
p4978
(lp4979
g16
asS'1651'
p4980
(lp4981
g3
ag11
asS'1656'
p4982
(lp4983
sS'1654'
p4984
(lp4985
sS'1655'
p4986
(lp4987
g16
ag3
asS'586'
p4988
(lp4989
sS'3214'
p4990
(lp4991
g3
asS'584'
p4992
(lp4993
g49
ag8
asS'585'
p4994
(lp4995
g49
asS'582'
p4996
(lp4997
sS'583'
p4998
(lp4999
sS'580'
p5000
(lp5001
g16
ag3
asS'581'
p5002
(lp5003
sS'3216'
p5004
(lp5005
g3
ag16
asS'588'
p5006
(lp5007
g16
ag8
asS'589'
p5008
(lp5009
sS'3150'
p5010
(lp5011
g16
asS'3157'
p5012
(lp5013
g16
asS'3156'
p5014
(lp5015
sS'3155'
p5016
(lp5017
g8
asS'3154'
p5018
(lp5019
g16
asS'1982'
p5020
(lp5021
sS'2835'
p5022
(lp5023
g3
ag49
ag8
asS'2834'
p5024
(lp5025
sS'2833'
p5026
(lp5027
g3
asS'2832'
p5028
(lp5029
g16
ag8
asS'2831'
p5030
(lp5031
g3
asS'2830'
p5032
(lp5033
sS'1436'
p5034
(lp5035
g3
ag16
asS'1437'
p5036
(lp5037
sS'3393'
p5038
(lp5039
g16
ag3
asS'1435'
p5040
(lp5041
g3
ag16
ag11
asS'1432'
p5042
(lp5043
g3
asS'1433'
p5044
(lp5045
g3
asS'1430'
p5046
(lp5047
g16
ag3
asS'3396'
p5048
(lp5049
sS'418'
p5050
(lp5051
g16
asS'3213'
p5052
(lp5053
g49
asS'1438'
p5054
(lp5055
g16
ag3
asS'1439'
p5056
(lp5057
g16
ag3
asS'1349'
p5058
(lp5059
g8
ag3
asS'458'
p5060
(lp5061
g3
asS'459'
p5062
(lp5063
g3
asS'450'
p5064
(lp5065
sS'451'
p5066
(lp5067
g16
asS'452'
p5068
(lp5069
g3
asS'1343'
p5070
(lp5071
g3
asS'454'
p5072
(lp5073
sS'1345'
p5074
(lp5075
g16
ag49
asS'1346'
p5076
(lp5077
g16
ag3
asS'457'
p5078
(lp5079
g16
asS'3702'
p5080
(lp5081
g16
asS'1082'
p5082
(lp5083
g16
ag49
asS'1885'
p5084
(lp5085
g16
asS'766'
p5086
(lp5087
sS'517'
p5088
(lp5089
g16
asS'3701'
p5090
(lp5091
sS'3368'
p5092
(lp5093
sS'1883'
p5094
(lp5095
sS'832'
p5096
(lp5097
g16
asS'1882'
p5098
(lp5099
g49
asS'656'
p5100
(lp5101
sS'657'
p5102
(lp5103
sS'654'
p5104
(lp5105
g3
ag8
asS'655'
p5106
(lp5107
g16
ag3
asS'652'
p5108
(lp5109
sS'3088'
p5110
(lp5111
g8
ag3
asS'650'
p5112
(lp5113
g3
asS'651'
p5114
(lp5115
g3
ag16
asS'3085'
p5116
(lp5117
g3
asS'3084'
p5118
(lp5119
g16
asS'3087'
p5120
(lp5121
g49
asS'3086'
p5122
(lp5123
g3
asS'3081'
p5124
(lp5125
g3
asS'3080'
p5126
(lp5127
g16
asS'3083'
p5128
(lp5129
g16
asS'3082'
p5130
(lp5131
g49
ag3
asS'1886'
p5132
(lp5133
g8
asS'314'
p5134
(lp5135
g11
ag3
asS'1992'
p5136
(lp5137
g16
asS'2127'
p5138
(lp5139
g8
ag3
asS'2126'
p5140
(lp5141
g11
ag8
asS'2129'
p5142
(lp5143
g16
asS'947'
p5144
(lp5145
sS'945'
p5146
(lp5147
g8
ag3
asS'54'
p5148
(lp5149
g49
asS'188'
p5150
(lp5151
g8
ag16
ag11
asS'1081'
p5152
(lp5153
g16
ag49
asS'322'
p5154
(lp5155
sS'323'
p5156
(lp5157
g3
asS'3597'
p5158
(lp5159
g3
asS'327'
p5160
(lp5161
g3
ag8
ag49
asS'324'
p5162
(lp5163
g8
asS'328'
p5164
(lp5165
g3
ag8
asS'329'
p5166
(lp5167
g11
ag8
ag3
asS'3629'
p5168
(lp5169
g16
asS'3628'
p5170
(lp5171
g8
asS'3621'
p5172
(lp5173
g16
ag3
ag49
asS'564'
p5174
(lp5175
sS'3623'
p5176
(lp5177
g3
asS'3622'
p5178
(lp5179
sS'3625'
p5180
(lp5181
g16
asS'3624'
p5182
(lp5183
sS'3627'
p5184
(lp5185
sS'3626'
p5186
(lp5187
g3
ag16
asS'1881'
p5188
(lp5189
sS'2330'
p5190
(lp5191
sS'3070'
p5192
(lp5193
sS'2332'
p5194
(lp5195
g16
ag11
asS'2333'
p5196
(lp5197
g3
asS'2334'
p5198
(lp5199
g11
ag16
asS'2335'
p5200
(lp5201
g11
ag16
asS'2336'
p5202
(lp5203
g49
ag8
asS'2337'
p5204
(lp5205
g16
asS'2338'
p5206
(lp5207
sS'1341'
p5208
(lp5209
g8
asS'3072'
p5210
(lp5211
g8
asS'2537'
p5212
(lp5213
g16
ag49
ag3
asS'3073'
p5214
(lp5215
g16
ag3
asS'1880'
p5216
(lp5217
g3
asS'1591'
p5218
(lp5219
sS'2959'
p5220
(lp5221
sS'3710'
p5222
(lp5223
g11
ag3
asS'3077'
p5224
(lp5225
g49
asS'3078'
p5226
(lp5227
sS'3079'
p5228
(lp5229
g3
asS'2488'
p5230
(lp5231
g49
ag3
ag16
asS'2486'
p5232
(lp5233
sS'2487'
p5234
(lp5235
g16
ag3
asS'2484'
p5236
(lp5237
g8
asS'2485'
p5238
(lp5239
g3
ag49
ag16
asS'2482'
p5240
(lp5241
g16
asS'2483'
p5242
(lp5243
g16
asS'3252'
p5244
(lp5245
sS'2248'
p5246
(lp5247
sS'2249'
p5248
(lp5249
g16
ag11
ag3
asS'2244'
p5250
(lp5251
g3
ag16
asS'2245'
p5252
(lp5253
g8
asS'2246'
p5254
(lp5255
sS'2247'
p5256
(lp5257
g3
asS'2240'
p5258
(lp5259
g16
ag8
asS'2241'
p5260
(lp5261
g8
asS'2242'
p5262
(lp5263
g3
asS'2243'
p5264
(lp5265
g11
ag3
ag8
asS'2464'
p5266
(lp5267
sS'994'
p5268
(lp5269
g11
asS'2466'
p5270
(lp5271
g3
asS'2467'
p5272
(lp5273
g16
asS'2460'
p5274
(lp5275
g3
asS'990'
p5276
(lp5277
sS'993'
p5278
(lp5279
sS'2463'
p5280
(lp5281
g3
asS'999'
p5282
(lp5283
g3
asS'998'
p5284
(lp5285
g3
asS'120'
p5286
(lp5287
g3
asS'121'
p5288
(lp5289
sS'122'
p5290
(lp5291
sS'123'
p5292
(lp5293
sS'3405'
p5294
(lp5295
g16
ag8
asS'3404'
p5296
(lp5297
g16
ag3
asS'126'
p5298
(lp5299
sS'127'
p5300
(lp5301
g3
ag16
asS'3409'
p5302
(lp5303
g8
ag3
asS'3408'
p5304
(lp5305
g3
asS'1020'
p5306
(lp5307
sS'3379'
p5308
(lp5309
g16
ag3
asS'3417'
p5310
(lp5311
g3
asS'1921'
p5312
(lp5313
g16
asS'3378'
p5314
(lp5315
g3
ag11
asS'131'
p5316
(lp5317
sS'2068'
p5318
(lp5319
g3
asS'2069'
p5320
(lp5321
sS'2798'
p5322
(lp5323
sS'2799'
p5324
(lp5325
g11
asS'1187'
p5326
(lp5327
sS'2060'
p5328
(lp5329
g3
asS'2793'
p5330
(lp5331
sS'2062'
p5332
(lp5333
g16
asS'2791'
p5334
(lp5335
g16
asS'2064'
p5336
(lp5337
g16
asS'2797'
p5338
(lp5339
g16
ag3
ag49
asS'2066'
p5340
(lp5341
g3
ag8
asS'2795'
p5342
(lp5343
g49
asS'1185'
p5344
(lp5345
g16
ag3
asS'135'
p5346
(lp5347
g11
ag16
ag3
asS'1182'
p5348
(lp5349
g16
ag11
asS'3411'
p5350
(lp5351
g3
asS'1183'
p5352
(lp5353
g16
asS'3371'
p5354
(lp5355
g16
ag3
asS'1181'
p5356
(lp5357
g3
ag16
asS'3579'
p5358
(lp5359
g3
ag16
asS'3578'
p5360
(lp5361
g16
ag3
ag8
asS'3575'
p5362
(lp5363
g3
asS'3574'
p5364
(lp5365
g3
asS'3577'
p5366
(lp5367
sS'3576'
p5368
(lp5369
g3
asS'3571'
p5370
(lp5371
g16
ag8
asS'3570'
p5372
(lp5373
sS'3573'
p5374
(lp5375
sS'3572'
p5376
(lp5377
g3
asS'2666'
p5378
(lp5379
g11
asS'2667'
p5380
(lp5381
g16
ag8
asS'2664'
p5382
(lp5383
g8
asS'2665'
p5384
(lp5385
g3
asS'2662'
p5386
(lp5387
sS'2663'
p5388
(lp5389
g3
asS'722'
p5390
(lp5391
g49
asS'2668'
p5392
(lp5393
g3
ag16
asS'2669'
p5394
(lp5395
g49
ag8
asS'3668'
p5396
(lp5397
g16
ag8
asS'2938'
p5398
(lp5399
g3
ag8
asS'2939'
p5400
(lp5401
g16
ag11
ag3
asS'2936'
p5402
(lp5403
sS'2937'
p5404
(lp5405
sS'2934'
p5406
(lp5407
sS'2935'
p5408
(lp5409
g3
asS'2932'
p5410
(lp5411
g3
asS'2933'
p5412
(lp5413
g8
asS'2930'
p5414
(lp5415
g3
ag8
asS'2931'
p5416
(lp5417
g16
asS'3595'
p5418
(lp5419
g16
asS'1645'
p5420
(lp5421
g16
ag11
ag3
asS'1644'
p5422
(lp5423
g8
asS'1647'
p5424
(lp5425
sS'1646'
p5426
(lp5427
g8
asS'1641'
p5428
(lp5429
g8
asS'1640'
p5430
(lp5431
sS'1643'
p5432
(lp5433
g16
ag8
asS'1642'
p5434
(lp5435
g49
asS'1649'
p5436
(lp5437
g8
ag16
ag3
asS'1648'
p5438
(lp5439
sS'1742'
p5440
(lp5441
g3
asS'729'
p5442
(lp5443
g11
ag49
asS'579'
p5444
(lp5445
g16
ag3
asS'604'
p5446
(lp5447
g16
ag8
asS'573'
p5448
(lp5449
g8
ag16
asS'572'
p5450
(lp5451
g16
asS'571'
p5452
(lp5453
g8
asS'570'
p5454
(lp5455
sS'576'
p5456
(lp5457
g3
asS'575'
p5458
(lp5459
g8
asS'574'
p5460
(lp5461
g11
asS'2808'
p5462
(lp5463
g16
asS'2809'
p5464
(lp5465
g3
asS'3168'
p5466
(lp5467
g16
ag49
asS'3169'
p5468
(lp5469
g16
ag3
asS'2802'
p5470
(lp5471
g16
asS'2803'
p5472
(lp5473
sS'2800'
p5474
(lp5475
sS'2801'
p5476
(lp5477
g11
ag3
ag49
asS'2806'
p5478
(lp5479
g3
asS'2807'
p5480
(lp5481
g3
asS'2804'
p5482
(lp5483
g3
asS'3161'
p5484
(lp5485
g16
ag49
asS'1421'
p5486
(lp5487
g3
asS'2154'
p5488
(lp5489
g16
asS'1997'
p5490
(lp5491
sS'1425'
p5492
(lp5493
sS'3369'
p5494
(lp5495
g3
asS'1426'
p5496
(lp5497
sS'1429'
p5498
(lp5499
g16
ag49
asS'1428'
p5500
(lp5501
g16
asS'3366'
p5502
(lp5503
g16
asS'3367'
p5504
(lp5505
g3
ag8
ag11
asS'3360'
p5506
(lp5507
g8
asS'2404'
p5508
(lp5509
g3
asS'3362'
p5510
(lp5511
g3
asS'3363'
p5512
(lp5513
sS'731'
p5514
(lp5515
g16
asS'730'
p5516
(lp5517
g16
asS'733'
p5518
(lp5519
g16
ag3
asS'2157'
p5520
(lp5521
g16
asS'737'
p5522
(lp5523
g3
ag8
asS'736'
p5524
(lp5525
g16
ag3
ag8
asS'739'
p5526
(lp5527
g16
ag3
asS'738'
p5528
(lp5529
g16
ag8
asS'2151'
p5530
(lp5531
sS'1358'
p5532
(lp5533
g11
ag16
ag8
asS'469'
p5534
(lp5535
g3
asS'468'
p5536
(lp5537
g3
asS'1353'
p5538
(lp5539
g16
ag3
ag8
asS'1352'
p5540
(lp5541
g3
asS'467'
p5542
(lp5543
g3
asS'466'
p5544
(lp5545
g3
ag16
asS'461'
p5546
(lp5547
g16
asS'1356'
p5548
(lp5549
g3
asS'1355'
p5550
(lp5551
sS'608'
p5552
(lp5553
sS'1273'
p5554
(lp5555
g8
ag16
asS'937'
p5556
(lp5557
g16
ag11
ag8
asS'936'
p5558
(lp5559
g3
asS'1519'
p5560
(lp5561
g3
asS'1518'
p5562
(lp5563
g3
ag16
asS'1514'
p5564
(lp5565
g3
asS'1517'
p5566
(lp5567
g3
ag8
asS'934'
p5568
(lp5569
g3
asS'1274'
p5570
(lp5571
sS'1510'
p5572
(lp5573
g8
asS'1004'
p5574
(lp5575
g8
asS'3184'
p5576
(lp5577
g16
ag3
asS'3185'
p5578
(lp5579
g8
ag16
ag3
asS'3186'
p5580
(lp5581
sS'3187'
p5582
(lp5583
sS'3180'
p5584
(lp5585
g49
asS'3181'
p5586
(lp5587
sS'3182'
p5588
(lp5589
sS'3183'
p5590
(lp5591
g8
asS'3188'
p5592
(lp5593
g16
asS'3189'
p5594
(lp5595
g16
ag49
ag3
asS'3397'
p5596
(lp5597
sS'355'
p5598
(lp5599
g16
asS'353'
p5600
(lp5601
g16
asS'352'
p5602
(lp5603
g16
asS'351'
p5604
(lp5605
g8
asS'350'
p5606
(lp5607
sS'359'
p5608
(lp5609
g16
asS'3107'
p5610
(lp5611
sS'3612'
p5612
(lp5613
sS'2298'
p5614
(lp5615
g3
asS'2323'
p5616
(lp5617
g16
ag3
asS'2322'
p5618
(lp5619
sS'2321'
p5620
(lp5621
g3
asS'2320'
p5622
(lp5623
g8
asS'2325'
p5624
(lp5625
g8
ag3
asS'2324'
p5626
(lp5627
sS'2329'
p5628
(lp5629
g3
asS'2328'
p5630
(lp5631
g16
ag8
asS'289'
p5632
(lp5633
sS'288'
p5634
(lp5635
sS'280'
p5636
(lp5637
g16
ag8
asS'282'
p5638
(lp5639
g3
ag49
asS'285'
p5640
(lp5641
g8
ag3
ag16
asS'284'
p5642
(lp5643
g11
asS'287'
p5644
(lp5645
g3
asS'1441'
p5646
(lp5647
g16
ag3
asS'1440'
p5648
(lp5649
g16
ag3
asS'263'
p5650
(lp5651
g3
asS'262'
p5652
(lp5653
g3
asS'261'
p5654
(lp5655
sS'260'
p5656
(lp5657
g3
asS'267'
p5658
(lp5659
g3
ag16
asS'266'
p5660
(lp5661
sS'265'
p5662
(lp5663
sS'264'
p5664
(lp5665
g16
asS'269'
p5666
(lp5667
g3
asS'268'
p5668
(lp5669
g3
asS'1562'
p5670
(lp5671
g3
asS'2499'
p5672
(lp5673
sS'2498'
p5674
(lp5675
g11
ag16
asS'2491'
p5676
(lp5677
g16
ag8
asS'1296'
p5678
(lp5679
g11
ag8
asS'2493'
p5680
(lp5681
sS'2492'
p5682
(lp5683
g3
ag16
asS'2495'
p5684
(lp5685
g16
ag3
ag11
asS'2494'
p5686
(lp5687
g3
asS'2497'
p5688
(lp5689
g3
ag16
asS'2496'
p5690
(lp5691
g49
asS'2193'
p5692
(lp5693
g3
asS'1566'
p5694
(lp5695
g16
asS'2259'
p5696
(lp5697
g11
ag3
asS'2258'
p5698
(lp5699
sS'2257'
p5700
(lp5701
sS'2256'
p5702
(lp5703
g11
ag3
asS'2254'
p5704
(lp5705
sS'2253'
p5706
(lp5707
g16
asS'2252'
p5708
(lp5709
sS'2251'
p5710
(lp5711
g8
asS'2250'
p5712
(lp5713
sS'2477'
p5714
(lp5715
g16
asS'988'
p5716
(lp5717
g16
asS'3224'
p5718
(lp5719
sS'2473'
p5720
(lp5721
sS'2472'
p5722
(lp5723
sS'2471'
p5724
(lp5725
g49
ag11
ag16
asS'982'
p5726
(lp5727
g16
ag3
asS'983'
p5728
(lp5729
g16
asS'980'
p5730
(lp5731
sS'981'
p5732
(lp5733
g3
ag49
ag16
asS'986'
p5734
(lp5735
sS'987'
p5736
(lp5737
sS'984'
p5738
(lp5739
g49
asS'985'
p5740
(lp5741
g8
asS'115'
p5742
(lp5743
sS'1790'
p5744
(lp5745
g3
asS'116'
p5746
(lp5747
g16
ag11
asS'110'
p5748
(lp5749
g16
asS'119'
p5750
(lp5751
g3
asS'3432'
p5752
(lp5753
g16
asS'2785'
p5754
(lp5755
sS'2784'
p5756
(lp5757
g16
asS'2787'
p5758
(lp5759
g16
asS'2786'
p5760
(lp5761
g16
ag3
asS'2781'
p5762
(lp5763
g16
asS'2780'
p5764
(lp5765
g3
asS'2783'
p5766
(lp5767
g16
ag3
asS'2782'
p5768
(lp5769
g16
asS'2789'
p5770
(lp5771
g3
asS'2788'
p5772
(lp5773
sS'2079'
p5774
(lp5775
g16
ag3
asS'2078'
p5776
(lp5777
g16
ag3
ag8
asS'2072'
p5778
(lp5779
sS'2071'
p5780
(lp5781
sS'2070'
p5782
(lp5783
g16
asS'2077'
p5784
(lp5785
g16
asS'2076'
p5786
(lp5787
g3
ag11
ag16
asS'2075'
p5788
(lp5789
sS'1388'
p5790
(lp5791
g3
asS'1796'
p5792
(lp5793
g3
asS'3508'
p5794
(lp5795
g16
asS'3504'
p5796
(lp5797
g3
asS'3505'
p5798
(lp5799
g16
ag3
asS'3506'
p5800
(lp5801
g8
ag3
asS'3507'
p5802
(lp5803
g49
ag3
asS'2671'
p5804
(lp5805
g49
asS'2670'
p5806
(lp5807
sS'2673'
p5808
(lp5809
sS'2672'
p5810
(lp5811
sS'2675'
p5812
(lp5813
sS'2674'
p5814
(lp5815
g3
asS'2677'
p5816
(lp5817
g3
asS'2676'
p5818
(lp5819
g16
ag3
asS'2929'
p5820
(lp5821
sS'2928'
p5822
(lp5823
g49
ag16
asS'2921'
p5824
(lp5825
g16
asS'2920'
p5826
(lp5827
sS'2923'
p5828
(lp5829
g49
asS'2922'
p5830
(lp5831
g11
asS'2925'
p5832
(lp5833
sS'2924'
p5834
(lp5835
g16
ag3
asS'2927'
p5836
(lp5837
g3
asS'2926'
p5838
(lp5839
sS'708'
p5840
(lp5841
g3
asS'2906'
p5842
(lp5843
g16
asS'1630'
p5844
(lp5845
g16
asS'1987'
p5846
(lp5847
g8
ag49
ag16
ag11
ag3
asS'1632'
p5848
(lp5849
g3
ag8
asS'3217'
p5850
(lp5851
g16
asS'1634'
p5852
(lp5853
g16
ag3
asS'3211'
p5854
(lp5855
g3
ag16
asS'1980'
p5856
(lp5857
g16
asS'1981'
p5858
(lp5859
g3
asS'1638'
p5860
(lp5861
g16
ag11
asS'1639'
p5862
(lp5863
g16
ag3
asS'2904'
p5864
(lp5865
g3
ag16
asS'3218'
p5866
(lp5867
sS'3219'
p5868
(lp5869
g16
ag49
ag8
asS'1988'
p5870
(lp5871
g3
asS'1989'
p5872
(lp5873
g3
asS'706'
p5874
(lp5875
sS'568'
p5876
(lp5877
sS'569'
p5878
(lp5879
sS'2817'
p5880
(lp5881
g3
asS'2811'
p5882
(lp5883
g3
asS'2810'
p5884
(lp5885
sS'2812'
p5886
(lp5887
g3
asS'560'
p5888
(lp5889
g16
asS'561'
p5890
(lp5891
sS'562'
p5892
(lp5893
g3
ag16
asS'563'
p5894
(lp5895
g3
asS'2819'
p5896
(lp5897
sS'565'
p5898
(lp5899
sS'566'
p5900
(lp5901
sS'567'
p5902
(lp5903
g16
asS'3178'
p5904
(lp5905
g3
ag16
asS'3171'
p5906
(lp5907
sS'3170'
p5908
(lp5909
g16
ag8
asS'3173'
p5910
(lp5911
sS'3172'
p5912
(lp5913
g16
asS'3175'
p5914
(lp5915
g8
asS'3174'
p5916
(lp5917
g8
asS'3177'
p5918
(lp5919
g3
asS'3176'
p5920
(lp5921
sS'659'
p5922
(lp5923
sS'1188'
p5924
(lp5925
g16
ag8
asS'1189'
p5926
(lp5927
g3
asS'3377'
p5928
(lp5929
g16
ag3
asS'3376'
p5930
(lp5931
g8
asS'1184'
p5932
(lp5933
g8
asS'3374'
p5934
(lp5935
g3
asS'3373'
p5936
(lp5937
g16
asS'3372'
p5938
(lp5939
g8
asS'1180'
p5940
(lp5941
sS'3370'
p5942
(lp5943
g16
asS'726'
p5944
(lp5945
sS'727'
p5946
(lp5947
g16
asS'1748'
p5948
(lp5949
g8
ag16
asS'1749'
p5950
(lp5951
sS'720'
p5952
(lp5953
g3
asS'721'
p5954
(lp5955
g3
asS'1745'
p5956
(lp5957
sS'1746'
p5958
(lp5959
sS'1747'
p5960
(lp5961
g16
asS'1740'
p5962
(lp5963
sS'1741'
p5964
(lp5965
sS'728'
p5966
(lp5967
sS'1486'
p5968
(lp5969
sS'1164'
p5970
(lp5971
g16
asS'1165'
p5972
(lp5973
sS'1166'
p5974
(lp5975
g3
asS'1167'
p5976
(lp5977
g49
ag16
asS'1160'
p5978
(lp5979
g49
asS'1161'
p5980
(lp5981
g3
asS'1162'
p5982
(lp5983
g49
asS'1163'
p5984
(lp5985
g8
asS'1623'
p5986
(lp5987
g16
asS'1168'
p5988
(lp5989
g16
asS'1169'
p5990
(lp5991
sS'3092'
p5992
(lp5993
sS'1489'
p5994
(lp5995
g8
asS'1366'
p5996
(lp5997
g8
asS'2913'
p5998
(lp5999
g3
asS'1488'
p6000
(lp6001
g3
ag16
asS'1367'
p6002
(lp6003
sS'46'
p6004
(lp6005
g16
asS'47'
p6006
(lp6007
g16
ag3
asS'44'
p6008
(lp6009
g3
asS'45'
p6010
(lp6011
g8
asS'42'
p6012
(lp6013
sS'43'
p6014
(lp6015
g3
asS'40'
p6016
(lp6017
g3
asS'41'
p6018
(lp6019
g16
ag8
asS'1568'
p6020
(lp6021
sS'1569'
p6022
(lp6023
sS'1298'
p6024
(lp6025
g16
asS'1299'
p6026
(lp6027
g3
asS'1587'
p6028
(lp6029
g3
asS'1560'
p6030
(lp6031
sS'1293'
p6032
(lp6033
sS'1290'
p6034
(lp6035
sS'1563'
p6036
(lp6037
g16
asS'1564'
p6038
(lp6039
sS'1565'
p6040
(lp6041
g3
asS'1294'
p6042
(lp6043
g16
asS'1567'
p6044
(lp6045
g8
ag3
asS'1713'
p6046
(lp6047
g16
ag8
ag49
asS'474'
p6048
(lp6049
g16
ag3
ag8
asS'796'
p6050
(lp6051
g16
asS'591'
p6052
(lp6053
sS'475'
p6054
(lp6055
sS'795'
p6056
(lp6057
sS'1789'
p6058
(lp6059
g3
asS'1716'
p6060
(lp6061
g3
ag8
asS'1715'
p6062
(lp6063
g16
asS'590'
p6064
(lp6065
g3
asS'732'
p6066
(lp6067
g3
asS'1714'
p6068
(lp6069
g3
ag16
asS'472'
p6070
(lp6071
g3
ag16
asS'473'
p6072
(lp6073
sS'3195'
p6074
(lp6075
g8
asS'3194'
p6076
(lp6077
g16
ag3
asS'476'
p6078
(lp6079
g49
asS'3192'
p6080
(lp6081
g49
asS'3191'
p6082
(lp6083
g16
asS'3190'
p6084
(lp6085
g3
asS'479'
p6086
(lp6087
g3
asS'2916'
p6088
(lp6089
g11
asS'3199'
p6090
(lp6091
sS'3198'
p6092
(lp6093
g3
as.