(dp0
S'217'
p1
(dp2
sS'762'
p3
(dp4
sS'3495'
p5
(dp6
sS'3049'
p7
(dp8
Vfood
p9
(lp10
Vfood
p11
asVlousy
p12
(lp13
g11
assS'134'
p14
(dp15
Vfood
p16
(lp17
Vfood
p18
asVprepared
p19
(lp20
g18
aVprice
p21
assS'3041'
p22
(dp23
sS'339'
p24
(dp25
Vsushi
p26
(lp27
Vfood
p28
assS'3045'
p29
(dp30
sS'3126'
p31
(dp32
Vone
p33
(lp34
Vfood
p35
assS'1548'
p36
(dp37
Vfood
p38
(lp39
Vfood
p40
assS'2152'
p41
(dp42
Vbagels
p43
(lp44
Vfood
p45
assS'813'
p46
(dp47
Vpasta
p48
(lp49
Vfood
p50
asVappetizers
p51
(lp52
g50
asVsteak
p53
(lp54
g50
assS'2912'
p55
(dp56
Vdishes
p57
(lp58
Vservice
p59
assS'1159'
p60
(dp61
sS'2708'
p62
(dp63
sS'2707'
p64
(dp65
sS'3641'
p66
(dp67
sS'1656'
p68
(dp69
Vtuna
p70
(lp71
Vfood
p72
assS'537'
p73
(dp74
sS'2141'
p75
(dp76
sS'1709'
p77
(dp78
Vfood
p79
(lp80
Vfood
p81
assS'924'
p82
(dp83
V2
p84
(lp85
Vfood
p86
aVmilitary_service
p87
asVblocks
p88
(lp89
g86
aVserve
p90
ag87
asVmeal
p91
(lp92
g86
asVroom
p93
(lp94
g86
ag87
assS'3411'
p95
(dp96
sS'1124'
p97
(dp98
Vwaitress
p99
(lp100
Vservice
p101
assS'193'
p102
(dp103
sS'3440'
p104
(dp105
Vprices
p106
(lp107
Vmonetary_value
p108
asVhigh
p109
(lp110
Vatmosphere
p111
ag108
assS'83'
p112
(dp113
sS'3471'
p114
(dp115
Vbeen
p116
(lp117
Vprice
p118
assS'3575'
p119
(dp120
sS'3478'
p121
(dp122
sS'3020'
p123
(dp124
Vamazing
p125
(lp126
Vprice
p127
asVgoodness
p128
(lp129
g127
assS'2171'
p130
(dp131
sS'1401'
p132
(dp133
sS'2077'
p134
(dp135
sS'586'
p136
(dp137
sS'2769'
p138
(dp139
sS'2609'
p140
(dp141
sS'381'
p142
(dp143
Vtasty
p144
(lp145
Vfood
p146
assS'109'
p147
(dp148
Vsalads
p149
(lp150
Vfood
p151
assS'3315'
p152
(dp153
Vevening
p154
(lp155
Vfood
p156
assS'3018'
p157
(dp158
sS'2041'
p159
(dp160
Vthing
p161
(lp162
Vfood
p163
assS'1380'
p164
(dp165
sS'2575'
p166
(dp167
Vbe
p168
(lp169
Vfood
p170
assS'2673'
p171
(dp172
sS'1242'
p173
(dp174
Vrice
p175
(lp176
Vfood
p177
assS'2164'
p178
(dp179
Vbit
p180
(lp181
Vservice
p182
assS'2459'
p183
(dp184
sS'2591'
p185
(dp186
Vtime
p187
(lp188
Vatmosphere
p189
assS'628'
p190
(dp191
Vcool
p192
(lp193
Vatmosphere
p194
aVservice
p195
asVserver
p196
(lp197
g195
assS'2451'
p198
(dp199
Vprices
p200
(lp201
Vmonetary_value
p202
assS'1471'
p203
(dp204
Vlarge
p205
(lp206
Vatmosphere
p207
assS'179'
p208
(dp209
Vprompt
p210
(lp211
Vservice
p212
asVService
p213
(lp214
g212
assS'2806'
p215
(dp216
sS'3292'
p217
(dp218
Vnotch
p219
(lp220
Vservice
p221
asVService
p222
(lp223
g221
assS'2882'
p224
(dp225
Vexcellent
p226
(lp227
Vfood
p228
assS'2202'
p229
(dp230
sS'3368'
p231
(dp232
sS'2205'
p233
(dp234
Vfood
p235
(lp236
Vfood
p237
asVplace
p238
(lp239
g237
aVatmosphere
p240
assS'3081'
p241
(dp242
Vshrimp
p243
(lp244
Vfood
p245
assS'2811'
p246
(dp247
sS'2186'
p248
(dp249
VIt
p250
(lp251
Vfood
p252
asVrestaurant
p253
(lp254
g252
aVservice
p255
assS'1593'
p256
(dp257
sS'3077'
p258
(dp259
sS'3170'
p260
(dp261
sS'2211'
p262
(dp263
Vsoup
p264
(lp265
Vfood
p266
assS'3681'
p267
(dp268
Vfood
p269
(lp270
Vfood
p271
aVservice
p272
asVgreat
p273
(lp274
g272
asVgood
p275
(lp276
g271
aVprice
p277
ag272
asVdeal
p278
(lp279
g272
assS'3372'
p280
(dp281
sS'1180'
p282
(dp283
sS'3208'
p284
(dp285
VTokyo
p286
(lp287
Vfood
p288
aVambiance
p289
asVNight
p290
(lp291
g288
assS'1455'
p292
(dp293
Vrestaurant
p294
(lp295
Vservice
p296
assS'1105'
p297
(dp298
sS'2751'
p299
(dp300
Vgo
p301
(lp302
Vservice
p303
assS'2105'
p304
(dp305
Vcake
p306
(lp307
Vfood
p308
assS'882'
p309
(dp310
Vfood
p311
(lp312
Vfood
p313
aVatmosphere
p314
asVambiance
p315
(lp316
g314
assS'742'
p317
(dp318
Vatmosphere
p319
(lp320
Vatmosphere
p321
assS'745'
p322
(dp323
Vvisit
p324
(lp325
Vservice
p326
assS'746'
p327
(dp328
VI
p329
(lp330
Vfood
p331
asVmet
p332
(lp333
g331
aVprice
p334
assS'2630'
p335
(dp336
Vchance
p337
(lp338
Vservice
p339
assS'2460'
p340
(dp341
sS'1057'
p342
(dp343
Vservice
p344
(lp345
Vservice
p346
assS'3343'
p347
(dp348
Vfood
p349
(lp350
Vfood
p351
asVinconsistent
p352
(lp353
g351
assS'1194'
p354
(dp355
Vcouple
p356
(lp357
Vserve
p358
assS'870'
p359
(dp360
Vfood
p361
(lp362
Vfood
p363
asVprices
p364
(lp365
g363
aVprice
p366
aVmonetary_value
p367
asVgood
p368
(lp369
g363
ag366
assS'2740'
p370
(dp371
sS'1112'
p372
(dp373
sS'2507'
p374
(dp375
Vfood
p376
(lp377
Vfood
p378
asVgreat
p379
(lp380
g378
aVservice
p381
assS'1293'
p382
(dp383
Vhorrific
p384
(lp385
Vfood
p386
assS'3188'
p387
(dp388
Vlunch
p389
(lp390
Vfood
p391
assS'1698'
p392
(dp393
sS'201'
p394
(dp395
Vfood
p396
(lp397
Vfood
p398
asVprice
p399
(lp400
g398
aVprice
p401
aVmonetary_value
p402
asVgood
p403
(lp404
g398
ag401
asVlist
p405
(lp406
g398
ag401
ag402
asVwine
p407
(lp408
g398
ag401
ag402
assS'776'
p409
(dp410
Vfood
p411
(lp412
Vfood
p413
assS'1273'
p414
(dp415
Vfact
p416
(lp417
Vfood
p418
assS'1884'
p419
(dp420
Vmenu
p421
(lp422
Vfood
p423
assS'3358'
p424
(dp425
sS'1609'
p426
(dp427
VService
p428
(lp429
Vservice
p430
assS'3546'
p431
(dp432
sS'948'
p433
(dp434
Vit
p435
(lp436
Vfood
p437
assS'1579'
p438
(dp439
sS'1769'
p440
(dp441
s.