(dp0
S'643'
p1
(dp2
Vside
p3
S'positive'
p4
ssS'344'
p5
(dp6
Vpeople
p7
S'negative'
p8
ssS'345'
p9
(dp10
Vservice
p11
g8
ssS'346'
p12
(dp13
Vprices
p14
g8
sVplace
p15
g8
ssS'347'
p16
(dp17
Vmenu
p18
g8
sVroll
p19
g8
ssS'340'
p20
(dp21
Vrice
p22
g8
sVquality
p23
g8
ssS'341'
p24
(dp25
Vrice
p26
g8
sVsushi
p27
g8
ssS'342'
p28
(dp29
Vfish
p30
S'neutral'
p31
ssS'343'
p32
(dp33
Vcuisine
p34
g8
sVone
p35
g8
sVexperience
p36
g8
sVrestaurant
p37
g8
ssS'348'
p38
(dp39
Vsushi
p40
g4
sVexperience
p41
g4
ssS'349'
p42
(dp43
Vvalue
p44
g4
ssS'2318'
p45
(dp46
Vdinner
p47
g31
sVchicken
p48
g31
sVnaan
p49
g31
ssS'2316'
p50
(dp51
Vjoint
p52
g4
sVdinner
p53
g4
sVkey
p54
g4
sVpizza
p55
g4
ssS'2317'
p56
(dp57
Vbeer
p58
g4
ssS'2314'
p59
(dp60
Vservice
p61
g4
ssS'2315'
p62
(dp63
Vplace
p64
g31
ssS'2312'
p65
(dp66
Vplace
p67
g31
sVgem
p68
g4
sVpizza
p69
g31
ssS'2311'
p70
(dp71
Vblock
p72
g8
sVwalk
p73
g8
ssS'2184'
p74
(dp75
Vsake
p76
g4
sVmartini
p77
g4
ssS'298'
p78
(dp79
Vcity
p80
g4
sVtimes
p81
g31
sVlunch
p82
g31
ssS'299'
p83
(dp84
Vbenedict
p85
g4
sVservice
p86
g4
ssS'296'
p87
(dp88
Vcheese
p89
g8
sVtemperatures
p90
g8
sVplate
p91
g8
sVingredients
p92
g8
ssS'297'
p93
(dp94
Vwater
p95
g31
sVglass
p96
g31
sVnightmare
p97
g31
sVtable
p98
g31
ssS'294'
p99
(dp100
Vrestaurant
p101
g4
ssS'295'
p102
(dp103
Veverything
p104
g8
ssS'292'
p105
(dp106
Vtable
p107
g8
sVbit
p108
g8
sVfriends
p109
g8
sVwait
p110
g8
ssS'293'
p111
(dp112
sS'291'
p113
(dp114
sS'587'
p115
(dp116
Vnight
p117
g4
ssS'270'
p118
(dp119
Vatmosphere
p120
g4
sVneighborhood
p121
g4
sVservice
p122
g4
sVfood
p123
g4
sVspot
p124
g4
sVbeat
p125
g4
ssS'271'
p126
(dp127
Vfusion
p128
g4
sVinnovators
p129
g4
sVjob
p130
g4
sVdishes
p131
g4
ssS'272'
p132
(dp133
Vfood
p134
g4
sVbeers
p135
g4
sVlist
p136
g4
sVwine
p137
g4
ssS'273'
p138
(dp139
Vparty
p140
g31
sVplanning
p141
g31
sVroom
p142
g31
ssS'274'
p143
(dp144
Vrestaurant
p145
g31
sVpath
p146
g31
sVstreet
p147
g31
sVblock
p148
g31
sVrestaurants
p149
g31
ssS'275'
p150
(dp151
Vfusion
p152
g4
sVcooking
p153
g4
ssS'276'
p154
(dp155
Vmenu
p156
g4
sVmanager
p157
g4
sVsuggestions
p158
g4
sVstaff
p159
g4
ssS'277'
p160
(dp161
Vtaste
p162
g4
sVscallops
p163
g4
sVappetizers
p164
g4
sVchocolate
p165
g4
ssS'278'
p166
(dp167
Vfood
p168
g31
sVtouch
p169
g31
ssS'279'
p170
(dp171
Vcolonies
p172
g4
sVfriends
p173
g4
sVway
p174
g4
ssS'58'
p175
(dp176
Vfood
p177
g4
sVbeer
p178
g4
sVbar
p179
g4
ssS'2268'
p180
(dp181
Vproblem
p182
g4
sVtop
p183
g4
sVpeople
p184
g4
ssS'2269'
p185
(dp186
Vnyc
p187
g8
sVpoint
p188
g8
ssS'2262'
p189
(dp190
Vspicy
p191
g4
sVtempura
p192
g4
sVappetizer
p193
g4
sVrock
p194
g4
sVtuna
p195
g4
sVshrimp
p196
g4
sVroll
p197
g4
ssS'2263'
p198
(dp199
Vbit
p200
g4
sVservice
p201
g4
ssS'2260'
p202
(dp203
sS'2261'
p204
(dp205
Vsake
p206
g31
sVlist
p207
g31
ssS'2267'
p208
(dp209
Vtouch
p210
g4
sVatmosphere
p211
g4
sVmusic
p212
g4
ssS'2442'
p213
(dp214
Vnew
p215
g4
sVny
p216
g4
ssS'2443'
p217
(dp218
Vfood
p219
g4
sVdumplings
p220
g4
sVbathroom
p221
g4
sVcurry
p222
g4
sVservice
p223
g4
ssS'2440'
p224
(dp225
Vservice
p226
g4
ssS'2441'
p227
(dp228
Vdie
p229
g4
ssS'2446'
p230
(dp231
Vthing
p232
g4
ssS'2447'
p233
(dp234
sS'2444'
p235
(dp236
Vmenu
p237
g4
sVsecret
p238
g4
sVlunch
p239
g4
sVappetizer
p240
g4
ssS'2445'
p241
(dp242
Vlunch
p243
g31
sVbill
p244
g31
sVdrinks
p245
g31
ssS'2448'
p246
(dp247
Vthai
p248
g8
sVnoodles
p249
g8
sVpad
p250
g8
ssS'2449'
p251
(dp252
Vwaitstaff
p253
g4
sVmeal
p254
g4
sVhusband
p255
g4
ssS'2189'
p256
(dp257
Vservice
p258
g31
sVdeal
p259
g31
ssS'109'
p260
(dp261
Vlamb
p262
g4
sVolive
p263
g4
sVsalads
p264
g4
sVvirgnin
p265
g4
ssS'102'
p266
(dp267
Vowner
p268
g4
sVtable
p269
g4
sVfront
p270
g4
ssS'103'
p271
(dp272
Vhome
p273
g4
sVeating
p274
g4
sVkitchen
p275
g4
ssS'101'
p276
(dp277
Vplace
p278
g4
ssS'2042'
p279
(dp280
Vprices
p281
g8
ssS'2040'
p282
(dp283
Vkorma
p284
g8
ssS'2041'
p285
(dp286
Vthing
p287
g4
ssS'1297'
p288
(dp289
Vtimes
p290
g8
ssS'2839'
p291
(dp292
Vperson
p293
g31
sVanswers
p294
g31
sVanything
p295
g31
sVrestaurant
p296
g31
ssS'2838'
p297
(dp298
Vdate
p299
g8
sVrun
p300
g8
sVplace
p301
g8
sVrolls
p302
g8
sVtime
p303
g8
ssS'3159'
p304
(dp305
Vcoffee
p306
g4
ssS'3519'
p307
(dp308
Vprices
p309
g4
sVambience
p310
g4
sVwest
p311
g4
sVvillage
p312
g4
ssS'3518'
p313
(dp314
Vpad
p315
g4
ssS'3513'
p316
(dp317
Vrestaurant
p318
g8
sVservice
p319
g8
sVstaff
p320
g8
ssS'3512'
p321
(dp322
Vcomparison
p323
g31
sVcustomers
p324
g31
sVthings
p325
g31
sVneed
p326
g31
sVplace
p327
g31
sVdish
p328
g31
sVrestaurants
p329
g31
ssS'3511'
p330
(dp331
Vtable
p332
g8
sVmanager
p333
g8
sVorder
p334
g8
sVsmile
p335
g8
ssS'3510'
p336
(dp337
Vcustomer
p338
g8
sVweeks
p339
g8
sVexperience
p340
g8
sVservice
p341
g8
sVrestaurant
p342
g8
ssS'3517'
p343
(dp344
Vfood
p345
g4
ssS'3516'
p346
(dp347
Vprices
p348
g4
sVlunch
p349
g4
sVdinner
p350
g31
ssS'3515'
p351
(dp352
Vthai
p353
g4
sVstaff
p354
g4
sVrestaurant
p355
g4
ssS'3514'
p356
(dp357
sS'2688'
p358
(dp359
Vfood
p360
g4
sVmenu
p361
g4
sVprice
p362
g4
sVfixe
p363
g4
sVprixe
p364
g4
ssS'2689'
p365
(dp366
Vcourse
p367
g4
ssS'2686'
p368
(dp369
Vdate
p370
g4
sVplace
p371
g4
sVfriends
p372
g4
sVservice
p373
g4
sVoccassion
p374
g4
ssS'2687'
p375
(dp376
Vevening
p377
g4
sVpeople
p378
g4
ssS'1785'
p379
(dp380
Vrice
p381
g8
sVtriples
p382
g8
sVroll
p383
g8
ssS'2681'
p384
(dp385
Vpasta
p386
g4
sVbean
p387
g4
ssS'3391'
p388
(dp389
sS'1434'
p390
(dp391
Vfood
p392
g31
sVchicken
p393
g8
sVplace
p394
g8
sVgeneral
p395
g31
ssS'98'
p396
(dp397
Vfood
p398
g4
ssS'3392'
p399
(dp400
Vpopcorn
p401
g4
ssS'91'
p402
(dp403
sS'90'
p404
(dp405
Vmenu
p406
g4
sVfixe
p407
g4
sVpenny
p408
g4
sVquality
p409
g4
sVquantity
p410
g4
ssS'93'
p411
(dp412
Vfriends
p413
g8
sVtime
p414
g8
ssS'92'
p415
(dp416
Vplace
p417
g4
ssS'95'
p418
(dp419
Vfood
p420
g4
sVny
p421
g4
sVitalian
p422
g4
ssS'94'
p423
(dp424
Vatmosphere
p425
g4
sVdishes
p426
g4
sVservice
p427
g4
ssS'97'
p428
(dp429
Vlist
p430
g4
sVwine
p431
g4
ssS'96'
p432
(dp433
Vbusiness
p434
g4
ssS'3207'
p435
(dp436
Vfeeling
p437
g4
sVmeal
p438
g4
ssS'3206'
p439
(dp440
Vtown
p441
g4
ssS'1621'
p442
(dp443
Vfood
p444
g4
sVclass
p445
g4
sVservice
p446
g4
ssS'3204'
p447
(dp448
Vdate
p449
g4
sVoccasion
p450
g4
sVspot
p451
g4
ssS'1627'
p452
(dp453
Veveryone
p454
g4
sVservice
p455
g4
sVregulars
p456
g4
ssS'1994'
p457
(dp458
Vfood
p459
g4
ssS'1625'
p460
(dp461
Vthing
p462
g4
sVwaiters
p463
g4
ssS'1624'
p464
(dp465
Vfood
p466
g4
sVthing
p467
g4
sVservice
p468
g4
ssS'1998'
p469
(dp470
sS'1431'
p471
(dp472
sS'3209'
p473
(dp474
Vrestaurant
p475
g4
ssS'3208'
p476
(dp477
Vnight
p478
g4
ssS'2860'
p479
(dp480
Vfamily
p481
g4
ssS'2861'
p482
(dp483
Vbistro
p484
g4
sVincompetency
p485
g4
sVstaff
p486
g4
ssS'2862'
p487
(dp488
Vdishes
p489
g8
sVrestaurant
p490
g8
sVbill
p491
g8
sVrest
p492
g8
sVtimes
p493
g8
sVtable
p494
g8
sVminutes
p495
g8
sVorder
p496
g8
ssS'2863'
p497
(dp498
sS'2864'
p499
(dp500
Vbut
p501
g8
sVgem
p502
g8
ssS'558'
p503
(dp504
Vemployees
p505
g31
sVexperience
p506
g31
ssS'555'
p507
(dp508
Vplace
p509
g4
ssS'554'
p510
(dp511
Vnew
p512
g4
sVyork
p513
g4
sVpeople
p514
g4
ssS'557'
p515
(dp516
Vfocus
p517
g31
sVservice
p518
g31
ssS'556'
p519
(dp520
Vatmosphere
p521
g4
sVstandout
p522
g4
sVservice
p523
g4
sVarea
p524
g4
sVlist
p525
g4
sVreviews
p526
g4
sVplace
p527
g4
sVprices
p528
g4
sVwine
p529
g4
ssS'551'
p530
(dp531
Vwait
p532
g4
ssS'550'
p533
(dp534
Vfood
p535
g4
sVwine
p536
g4
sVplace
p537
g4
sVservice
p538
g4
sVtimes
p539
g4
ssS'553'
p540
(dp541
Vservice
p542
g4
ssS'552'
p543
(dp544
Vglass
p545
g4
sVwine
p546
g4
ssS'1199'
p547
(dp548
Vsauces
p549
g8
ssS'1198'
p550
(dp551
Vnothing
p552
g8
sVfish
p553
g4
sVvariety
p554
g4
ssS'1191'
p555
(dp556
Vchef
p557
g8
sVaverage
p558
g8
sVwaitress
p559
g8
ssS'3343'
p560
(dp561
Vfood
p562
g8
ssS'3340'
p563
(dp564
Vdinner
p565
g31
sVnight
p566
g31
sVlocation
p567
g31
sVthursday
p568
g31
sVrestaurant
p569
g31
ssS'3341'
p570
(dp571
Vchef
p572
g8
sVcourse
p573
g8
sVmonths
p574
g8
sVstaff
p575
g8
ssS'1195'
p576
(dp577
Vprices
p578
g31
sVsushi
p579
g31
sVanything
p580
g31
ssS'1194'
p581
(dp582
Vcouple
p583
g8
sVtimes
p584
g8
ssS'1197'
p585
(dp586
Vhour
p587
g8
ssS'1196'
p588
(dp589
Vtable
p590
g8
sVservice
p591
g8
sVtime
p592
g8
ssS'1759'
p593
(dp594
Vhome
p595
g4
ssS'1756'
p596
(dp597
Vprice
p598
g4
ssS'1755'
p599
(dp600
Vpizza
p601
g4
ssS'1750'
p602
(dp603
Vend
p604
g4
sVblock
p605
g4
ssS'1177'
p606
(dp607
Vso
p608
g4
ssS'1176'
p609
(dp610
Vdumplings
p611
g4
sVreview
p612
g4
ssS'1175'
p613
(dp614
Vdumplings
p615
g4
sVplate
p616
g4
sVfood
p617
g4
ssS'1174'
p618
(dp619
Veye
p620
g31
sVplace
p621
g31
sVtime
p622
g31
ssS'1173'
p623
(dp624
Vdumplings
p625
g4
ssS'1171'
p626
(dp627
Vtaste
p628
g4
sVnyc
p629
g4
sVlife
p630
g4
ssS'1170'
p631
(dp632
Vline
p633
g8
sVaverage
p634
g8
sVtimes
p635
g8
ssS'1179'
p636
(dp637
Voffice
p638
g31
ssS'1178'
p639
(dp640
sS'511'
p641
(dp642
Vlobster
p643
g4
sVravioli
p644
g4
ssS'510'
p645
(dp646
Vqpr
p647
g4
sVprice
p648
g4
ssS'1005'
p649
(dp650
Vmanhattan
p651
g4
sVplaces
p652
g4
ssS'644'
p653
(dp654
Vstaff
p655
g4
ssS'1285'
p656
(dp657
Vneightborhood
p658
g4
ssS'1287'
p659
(dp660
Vfriends
p661
g4
sVpizza
p662
g4
sVneighborhood
p663
g4
sVplace
p664
g4
sVbar
p665
g4
ssS'1286'
p666
(dp667
Vspot
p668
g4
sVtime
p669
g4
ssS'1281'
p670
(dp671
Vbit
p672
g4
sVatmoshere
p673
g4
ssS'1280'
p674
(dp675
Vmoving
p676
g31
ssS'1283'
p677
(dp678
Vpizza
p679
g4
ssS'1282'
p680
(dp681
Vperson
p682
g4
sVnight
p683
g4
ssS'879'
p684
(dp685
sS'1289'
p686
(dp687
Vny
p688
g8
sVpizza
p689
g8
sVeverything
p690
g8
ssS'1288'
p691
(dp692
Vemployees
p693
g4
sVpizza
p694
g4
ssS'514'
p695
(dp696
Vsecond
p697
g31
sVtime
p698
g31
ssS'1579'
p699
(dp700
Vportions
p701
g4
ssS'1578'
p702
(dp703
Vfood
p704
g4
ssS'689'
p705
(dp706
Vsaul
p707
g31
ssS'688'
p708
(dp709
Vspot
p710
g8
ssS'877'
p711
(dp712
Vreviews
p713
g8
sVcrowd
p714
g8
ssS'685'
p715
(dp716
Vfood
p717
g4
sVreviewer
p718
g4
sVneighborhood
p719
g4
ssS'1572'
p720
(dp721
Vfun
p722
g4
sVplaces
p723
g4
ssS'1571'
p724
(dp725
sS'686'
p726
(dp727
Vexperiences
p728
g4
sVtimes
p729
g4
ssS'1577'
p730
(dp731
Vstuff
p732
g4
ssS'680'
p733
(dp734
Vstreet
p735
g4
sVrest
p736
g4
sVrestaurant
p737
g4
ssS'1575'
p738
(dp739
Ventertainment
p740
g4
sVfamily
p741
g4
sVrestaurant
p742
g4
ssS'1574'
p743
(dp744
Vfun
p745
g4
sVplace
p746
g4
ssS'1227'
p747
(dp748
Vbagels
p749
g31
sVrequests
p750
g31
ssS'875'
p751
(dp752
Vrestaurant
p753
g4
ssS'2818'
p754
(dp755
Vfood
p756
g4
sVservice
p757
g4
sVtime
p758
g4
ssS'622'
p759
(dp760
Vplace
p761
g4
ssS'872'
p762
(dp763
Vanyone
p764
g4
sVatmosphere
p765
g4
sVplace
p766
g4
ssS'873'
p767
(dp768
Vreviews
p769
g8
sVrestaurant
p770
g4
ssS'3436'
p771
(dp772
Vmenu
p773
g4
sVdishes
p774
g4
ssS'1295'
p775
(dp776
Vservice
p777
g8
ssS'871'
p778
(dp779
Vmenu
p780
g4
sVdeal
p781
g4
ssS'2037'
p782
(dp783
Vfood
p784
g8
sVmoney
p785
g8
sVwork
p786
g8
sVamount
p787
g8
sVpotential
p788
g8
sVplace
p789
g8
ssS'2740'
p790
(dp791
Vexperience
p792
g4
ssS'1243'
p793
(dp794
Vrating
p795
g4
sVplace
p796
g4
ssS'2743'
p797
(dp798
Veurotrashy
p799
g8
sVstreet
p800
g8
sVplace
p801
g8
ssS'1371'
p802
(dp803
Vtuna
p804
g8
sVsteak
p805
g8
ssS'1370'
p806
(dp807
Vfood
p808
g8
ssS'1373'
p809
(dp810
Vtaste
p811
g8
sVrest
p812
g8
ssS'404'
p813
(dp814
Vt
p815
g31
sVtime
p816
g31
ssS'1375'
p817
(dp818
sS'1374'
p819
(dp820
Vrestaurant
p821
g4
ssS'1377'
p822
(dp823
Vspot
p824
g4
sVnight
p825
g4
ssS'400'
p826
(dp827
Vtown
p828
g4
sVplace
p829
g4
ssS'1379'
p830
(dp831
Vsoho
p832
g4
ssS'1378'
p833
(dp834
Vservice
p835
g4
ssS'409'
p836
(dp837
Vprice
p838
g4
sVsushi
p839
g4
sVsaturday
p840
g4
sVdeal
p841
g4
sVhalf
p842
g4
ssS'408'
p843
(dp844
Vfish
p845
g4
sVrice
p846
g4
sVration
p847
g4
ssS'453'
p848
(dp849
Varea
p850
g8
sVyears
p851
g4
ssS'1344'
p852
(dp853
Vtouch
p854
g4
sVcontrast
p855
g4
ssS'2746'
p856
(dp857
Vfish
p858
g4
sVservice
p859
g4
ssS'1245'
p860
(dp861
sS'379'
p862
(dp863
Vprices
p864
g4
ssS'378'
p865
(dp866
Vsauce
p867
g4
sVfish
p868
g4
sVcurry
p869
g4
ssS'370'
p870
(dp871
sS'375'
p872
(dp873
Vpasta
p874
g4
sVroom
p875
g4
sVdishes
p876
g4
ssS'377'
p877
(dp878
Vgroup
p879
g4
ssS'391'
p880
(dp881
Vtown
p882
g31
sVbar
p883
g31
sVsushi
p884
g31
sVfriends
p885
g31
sVfloor
p886
g31
ssS'390'
p887
(dp888
Voil
p889
g8
sVtime
p890
g8
ssS'397'
p891
(dp892
Vlobster
p893
g4
sVroll
p894
g4
ssS'396'
p895
(dp896
Vcity
p897
g4
sVsushi
p898
g4
sVgem
p899
g4
sVrestaurants
p900
g4
ssS'395'
p901
(dp902
Vsake
p903
g4
sVmenu
p904
g4
ssS'394'
p905
(dp906
Vblue
p907
g31
sVfatty
p908
g31
sVfish
p909
g31
sVshrimp
p910
g31
sVchef
p911
g31
sVtuna
p912
g31
ssS'2309'
p913
(dp914
Vdelivery
p915
g8
sVmajor
p916
g8
ssS'2308'
p917
(dp918
sS'2301'
p919
(dp920
sS'2300'
p921
(dp922
Vtime
p923
g4
ssS'2303'
p924
(dp925
Vright
p926
g4
sVdoor
p927
g4
ssS'2302'
p928
(dp929
Vsalad
p930
g4
sVhouse
p931
g4
sVbottle
p932
g4
sVpizza
p933
g4
sVmeal
p934
g4
sVwine
p935
g4
ssS'2305'
p936
(dp937
Vdelivery
p938
g8
sVpizza
p939
g31
sVtimes
p940
g31
ssS'2304'
p941
(dp942
sS'2307'
p943
(dp944
Vpans
p945
g4
sVnights
p946
g4
sVsize
p947
g4
ssS'2306'
p948
(dp949
Vfood
p950
g4
ssS'247'
p951
(dp952
Vfood
p953
g4
sVlife
p954
g4
sVshanghai
p955
g4
sVgreen
p956
g4
sVrestaurant
p957
g4
ssS'246'
p958
(dp959
Vamount
p960
g8
sVshanghai
p961
g8
ssS'241'
p962
(dp963
Vshanghainese
p964
g4
sVchinatown
p965
g4
sVmanhattan
p966
g4
sVrestaurants
p967
g4
ssS'240'
p968
(dp969
Vnew
p970
g4
sVshanghai
p971
g4
sVplace
p972
g4
sVyork
p973
g4
ssS'249'
p974
(dp975
Vstreet
p976
g4
sVplace
p977
g4
ssS'248'
p978
(dp979
Vreviews
p980
g31
sVgreen
p981
g31
sVbalance
p982
g31
sVchinatown
p983
g31
sVtime
p984
g31
ssS'2275'
p985
(dp986
Vchinatown
p987
g31
sVdoyers
p988
g4
sVplace
p989
g4
sVpell
p990
g4
ssS'2274'
p991
(dp992
Vprice
p993
g4
sVshell
p994
g4
sVroll
p995
g4
ssS'2277'
p996
(dp997
Vcuisine
p998
g31
sVtaipei
p999
g31
ssS'2276'
p1000
(dp1001
Vnoodle
p1002
g31
sVgroup
p1003
g31
sVdishes
p1004
g31
sVmenu
p1005
g31
sVtouch
p1006
g31
sVchicken
p1007
g31
ssS'2271'
p1008
(dp1009
Vbar
p1010
g4
sVsake
p1011
g4
sVhouse
p1012
g4
sVfood
p1013
g4
sVstreet
p1014
g4
sVroll
p1015
g4
sVwait
p1016
g4
ssS'2273'
p1017
(dp1018
Vsushi
p1019
g4
sVrolls
p1020
g4
ssS'2272'
p1021
(dp1022
Vmenu
p1023
g31
sVdrinks
p1024
g31
ssS'2279'
p1025
(dp1026
Vprices
p1027
g4
sVplace
p1028
g4
sVchinatown
p1029
g4
ssS'2278'
p1030
(dp1031
Vtaste
p1032
g8
sVmenu
p1033
g8
sVflavor
p1034
g8
sVchoices
p1035
g8
ssS'2459'
p1036
(dp1037
Vreasons
p1038
g4
ssS'2458'
p1039
(dp1040
Vlife
p1041
g4
sVbar
p1042
g4
sVpeople
p1043
g4
sVfood
p1044
g4
sVrestaurant
p1045
g4
sVny
p1046
g4
sVdesign
p1047
g4
sVlot
p1048
g4
sVdrinks
p1049
g4
ssS'2455'
p1050
(dp1051
Vmenu
p1052
g31
sVstaff
p1053
g31
sVbar
p1054
g31
sVrecomendations
p1055
g31
sVdrinks
p1056
g31
ssS'2454'
p1057
(dp1058
sS'2457'
p1059
(dp1060
Vstaff
p1061
g4
ssS'2456'
p1062
(dp1063
Vcroquette
p1064
g8
sVdeal
p1065
g8
sVtime
p1066
g8
ssS'2451'
p1067
(dp1068
Vprices
p1069
g4
ssS'2450'
p1070
(dp1071
Vdish
p1072
g4
sVtempura
p1073
g4
ssS'2453'
p1074
(dp1075
Vcourse
p1076
g4
sVportion
p1077
g8
sVportions
p1078
g8
sVhusband
p1079
g4
ssS'2452'
p1080
(dp1081
Vseating
p1082
g8
sVrestaurant
p1083
g8
sVpeople
p1084
g8
ssS'179'
p1085
(dp1086
Vservice
p1087
g4
ssS'178'
p1088
(dp1089
Vfood
p1090
g4
sVwaitress
p1091
g4
ssS'177'
p1092
(dp1093
Vbirthday
p1094
g4
sVgroup
p1095
g4
ssS'176'
p1096
(dp1097
Vplace
p1098
g4
ssS'175'
p1099
(dp1100
Vdate
p1101
g4
sVdining
p1102
g4
sVdecor
p1103
g4
sVside
p1104
g4
sVboths
p1105
g4
ssS'174'
p1106
(dp1107
Vevening
p1108
g8
sVreviewers
p1109
g8
sVlunch
p1110
g8
sVtime
p1111
g8
sVproblem
p1112
g8
sVorder
p1113
g8
ssS'173'
p1114
(dp1115
Vfood
p1116
g31
sVside
p1117
g8
sVvegatables
p1118
g8
ssS'3698'
p1119
(dp1120
Vmenu
p1121
g4
sVpotato
p1122
g4
ssS'3699'
p1123
(dp1124
Vlunch
p1125
g31
sVcharge
p1126
g8
ssS'2053'
p1127
(dp1128
sS'2052'
p1129
(dp1130
Vlocations
p1131
g4
ssS'2054'
p1132
(dp1133
Vfirst
p1134
g4
ssS'2057'
p1135
(dp1136
Vfood
p1137
g4
ssS'2059'
p1138
(dp1139
Vbukhara
p1140
g4
ssS'2058'
p1141
(dp1142
Vawsome
p1143
g4
ssS'3692'
p1144
(dp1145
Vbacon
p1146
g8
sVplatter
p1147
g8
sVplace
p1148
g8
sVorder
p1149
g8
sVbacos
p1150
g8
ssS'3693'
p1151
(dp1152
Vstuff
p1153
g4
sVnite
p1154
g4
ssS'3694'
p1155
(dp1156
sS'3695'
p1157
(dp1158
Vsandwiches
p1159
g31
ssS'3696'
p1160
(dp1161
Vnyc
p1162
g4
sVprice
p1163
g4
sVportion
p1164
g4
sVplaces
p1165
g4
sVsandwiches
p1166
g4
ssS'3697'
p1167
(dp1168
Vbeef
p1169
g4
sVfatty
p1170
g4
sVplaces
p1171
g4
sVtourist
p1172
g4
sVtimes
p1173
g4
sVsquare
p1174
g4
sVpastrami
p1175
g4
ssS'1501'
p1176
(dp1177
Varea
p1178
g8
ssS'3089'
p1179
(dp1180
Vactresses
p1181
g4
sVoldies
p1182
g4
ssS'1507'
p1183
(dp1184
sS'3526'
p1185
(dp1186
sS'3527'
p1187
(dp1188
Vfood
p1189
g8
sVmenu
p1190
g8
sVnothing
p1191
g8
ssS'3524'
p1192
(dp1193
Vappetizers
p1194
g31
ssS'3525'
p1195
(dp1196
Vtable
p1197
g4
sVstaff
p1198
g4
ssS'3520'
p1199
(dp1200
Vdecor
p1201
g4
sVdinner
p1202
g31
ssS'3521'
p1203
(dp1204
Veveryone
p1205
g4
ssS'1508'
p1206
(dp1207
Vend
p1208
g8
sVservice
p1209
g8
ssS'1509'
p1210
(dp1211
Vtable
p1212
g8
sVeventhough
p1213
g8
ssS'1977'
p1214
(dp1215
Vnoise
p1216
g31
sVsteakhouse
p1217
g31
sVwait
p1218
g31
ssS'658'
p1219
(dp1220
Vplace
p1221
g4
ssS'2699'
p1222
(dp1223
Vanyone
p1224
g4
sVplace
p1225
g4
ssS'1976'
p1226
(dp1227
sS'2697'
p1228
(dp1229
Vquail
p1230
g4
sVflavor
p1231
g4
sVpastas
p1232
g4
ssS'2696'
p1233
(dp1234
Vfood
p1235
g4
sVmenu
p1236
g4
sVreviews
p1237
g4
ssS'2695'
p1238
(dp1239
Vcouple
p1240
g31
sVboyfriend
p1241
g31
ssS'2694'
p1242
(dp1243
sS'2693'
p1244
(dp1245
Vstart
p1246
g4
sVmeal
p1247
g4
sVsalad
p1248
g4
ssS'1603'
p1249
(dp1250
Vplace
p1251
g4
ssS'2691'
p1252
(dp1253
Vmeal
p1254
g4
sVexperience
p1255
g4
ssS'2690'
p1256
(dp1257
Vamex
p1258
g8
ssS'3226'
p1259
(dp1260
Vcourse
p1261
g4
sVmeal
p1262
g4
sVwine
p1263
g4
ssS'1973'
p1264
(dp1265
Vprice
p1266
g8
sVsomething
p1267
g8
ssS'3220'
p1268
(dp1269
Vfish
p1270
g8
ssS'3223'
p1271
(dp1272
Vwater
p1273
g31
sVrestaurant
p1274
g31
ssS'1606'
p1275
(dp1276
Vcooks
p1277
g4
sVmoment
p1278
g4
ssS'1362'
p1279
(dp1280
sS'3232'
p1281
(dp1282
Vworth
p1283
g4
sVmanhattan
p1284
g4
sVtrip
p1285
g4
ssS'3233'
p1286
(dp1287
Vboyfriend
p1288
g4
sVtimes
p1289
g4
ssS'3230'
p1290
(dp1291
Vmenu
p1292
g4
sVseafood
p1293
g4
sVlist
p1294
g4
sVsurprises
p1295
g4
sVwine
p1296
g4
ssS'3236'
p1297
(dp1298
Vrestaurant
p1299
g4
sVexperience
p1300
g4
sVpeople
p1301
g4
ssS'3237'
p1302
(dp1303
Vposts
p1304
g4
ssS'3234'
p1305
(dp1306
Vfood
p1307
g31
sVblue
p1308
g31
sVfixe
p1309
g31
sVexperience
p1310
g31
ssS'1619'
p1311
(dp1312
Vtable
p1313
g8
ssS'1616'
p1314
(dp1315
Vwaiter
p1316
g31
sVmenu
p1317
g31
sVspecials
p1318
g31
sVdishes
p1319
g31
ssS'1617'
p1320
(dp1321
Vmenu
p1322
g31
sVpeople
p1323
g4
sVsomething
p1324
g4
sVdishes
p1325
g31
sVparty
p1326
g31
ssS'1614'
p1327
(dp1328
Vcook
p1329
g31
sVhouse
p1330
g31
sVdinner
p1331
g31
sVaunt
p1332
g31
ssS'3239'
p1333
(dp1334
Vreservation
p1335
g4
sVweather
p1336
g4
sVgarden
p1337
g4
ssS'1960'
p1338
(dp1339
Vcocktails
p1340
g4
sVreservation
p1341
g4
sVminutes
p1342
g4
sVsurroundings
p1343
g4
sVtime
p1344
g4
ssS'1961'
p1345
(dp1346
Vtable
p1347
g31
sVindustry
p1348
g31
sVsomeone
p1349
g31
sVservice
p1350
g31
ssS'1610'
p1351
(dp1352
Vpizza
p1353
g4
ssS'1611'
p1354
(dp1355
sS'2063'
p1356
(dp1357
Vroom
p1358
g4
ssS'1363'
p1359
(dp1360
Vfood
p1361
g31
ssS'2872'
p1362
(dp1363
Vwife
p1364
g31
sVstaff
p1365
g4
ssS'2871'
p1366
(dp1367
Vhip
p1368
g4
sVbistro
p1369
g4
sVatmosphere
p1370
g4
sVspecials
p1371
g4
sVfare
p1372
g4
sVvillage
p1373
g4
sVeast
p1374
g4
sVgem
p1375
g4
ssS'2877'
p1376
(dp1377
sS'2876'
p1378
(dp1379
Vexperience
p1380
g4
sVtimes
p1381
g4
ssS'2875'
p1382
(dp1383
Vprices
p1384
g4
sVwine
p1385
g4
ssS'2879'
p1386
(dp1387
Vfood
p1388
g4
sVprices
p1389
g4
sVservice
p1390
g4
sVworld
p1391
g4
ssS'2878'
p1392
(dp1393
Vbistro
p1394
g4
sValley
p1395
g4
sVplace
p1396
g4
sVfrench
p1397
g4
sVvillage
p1398
g4
sVeast
p1399
g4
ssS'3355'
p1400
(dp1401
Vdessert
p1402
g31
sVbit
p1403
g31
sVespresso
p1404
g31
sVchocolate
p1405
g31
ssS'3354'
p1406
(dp1407
sS'3353'
p1408
(dp1409
Vsalad
p1410
g31
sVsizes
p1411
g31
sVtop
p1412
g31
sVpizza
p1413
g31
sVmargarite
p1414
g31
sVbeginning
p1415
g31
sVbread
p1416
g31
ssS'3352'
p1417
(dp1418
Vrestaurant
p1419
g4
sVpizza
p1420
g4
ssS'3359'
p1421
(dp1422
Vpizza
p1423
g4
ssS'3358'
p1424
(dp1425
Vanything
p1426
g31
ssS'1768'
p1427
(dp1428
Vwaitstaff
p1429
g4
ssS'1769'
p1430
(dp1431
sS'1760'
p1432
(dp1433
Vheaviness
p1434
g31
ssS'1766'
p1435
(dp1436
Vfood
p1437
g4
ssS'1767'
p1438
(dp1439
Vfish
p1440
g4
ssS'1765'
p1441
(dp1442
Vplace
p1443
g4
ssS'1788'
p1444
(dp1445
Vfood
p1446
g31
sVreservations
p1447
g31
sVchoices
p1448
g31
sVdeal
p1449
g31
sVmenu
p1450
g31
ssS'1140'
p1451
(dp1452
Vfood
p1453
g4
sVstreet
p1454
g4
sVneighborhood
p1455
g4
sVsomething
p1456
g4
sVtime
p1457
g4
ssS'1146'
p1458
(dp1459
Vtime
p1460
g8
ssS'1147'
p1461
(dp1462
sS'1144'
p1463
(dp1464
Vmonth
p1465
g4
ssS'1145'
p1466
(dp1467
Vdescription
p1468
g4
ssS'1148'
p1469
(dp1470
Vjimmy
p1471
g31
sVfriends
p1472
g8
sVrestaurants
p1473
g31
ssS'1149'
p1474
(dp1475
Vdomincan
p1476
g31
ssS'768'
p1477
(dp1478
Vambiance
p1479
g4
sVfact
p1480
g4
sVtime
p1481
g4
ssS'769'
p1482
(dp1483
Vweek
p1484
g31
sVreservations
p1485
g31
sVdinner
p1486
g31
sVnight
p1487
g31
ssS'2402'
p1488
(dp1489
Vfood
p1490
g31
sVorder
p1491
g8
sVconcern
p1492
g31
ssS'692'
p1493
(dp1494
Vpoint
p1495
g31
sVrestaurant
p1496
g31
sVstreet
p1497
g31
sVyork
p1498
g31
sVtime
p1499
g31
sVnew
p1500
g31
ssS'1547'
p1501
(dp1502
Vowner
p1503
g8
sVventure
p1504
g8
ssS'690'
p1505
(dp1506
Vprices
p1507
g8
sVatmosphere
p1508
g8
ssS'691'
p1509
(dp1510
Vfood
p1511
g8
sVdessert
p1512
g8
sVportions
p1513
g8
ssS'1542'
p1514
(dp1515
Vfood
p1516
g8
sVcondiments
p1517
g8
sVcouple
p1518
g8
sVmanager
p1519
g8
sVcontainers
p1520
g8
ssS'1543'
p1521
(dp1522
Vroom
p1523
g8
ssS'694'
p1524
(dp1525
Vvisit
p1526
g4
sVbreast
p1527
g4
ssS'1541'
p1528
(dp1529
Vdogs
p1530
g8
ssS'698'
p1531
(dp1532
Vworld
p1533
g4
sVfoie
p1534
g4
ssS'699'
p1535
(dp1536
Vvalues
p1537
g4
sVlist
p1538
g4
sVwine
p1539
g4
ssS'1548'
p1540
(dp1541
Vfood
p1542
g8
ssS'1549'
p1543
(dp1544
Vfood
p1545
g4
sVtrouble
p1546
g4
sVplace
p1547
g4
ssS'542'
p1548
(dp1549
Vny
p1550
g4
sVfriend
p1551
g4
ssS'762'
p1552
(dp1553
Vwork
p1554
g8
sVgroup
p1555
g31
ssS'540'
p1556
(dp1557
Vpanini
p1558
g4
ssS'541'
p1559
(dp1560
sS'547'
p1561
(dp1562
Vlunch
p1563
g31
sVtimes
p1564
g31
sVplace
p1565
g31
sVwait
p1566
g31
ssS'544'
p1567
(dp1568
Veveryone
p1569
g4
sVspot
p1570
g4
ssS'763'
p1571
(dp1572
Vreservations
p1573
g8
sVservice
p1574
g8
ssS'548'
p1575
(dp1576
Vplace
p1577
g8
ssS'549'
p1578
(dp1579
sS'1782'
p1580
(dp1581
sS'761'
p1582
(dp1583
sS'1784'
p1584
(dp1585
Vsushi
p1586
g4
ssS'2968'
p1587
(dp1588
Vambiance
p1589
g4
sVbartender
p1590
g4
sVservice
p1591
g4
sVbar
p1592
g4
ssS'1941'
p1593
(dp1594
sS'1786'
p1595
(dp1596
Vtuna
p1597
g4
sVspicy
p1598
g4
sVprice
p1599
g4
sVroll
p1600
g4
ssS'1787'
p1601
(dp1602
Vyellowtail
p1603
g4
ssS'414'
p1604
(dp1605
Vfood
p1606
g8
sVdelivery
p1607
g8
sVthai
p1608
g8
ssS'415'
p1609
(dp1610
Vfood
p1611
g31
sVhour
p1612
g31
ssS'416'
p1613
(dp1614
Vfood
p1615
g8
sVrice
p1616
g8
ssS'417'
p1617
(dp1618
Vdinner
p1619
g31
sVrice
p1620
g31
sVthai
p1621
g31
sVrestaurant
p1622
g31
ssS'410'
p1623
(dp1624
Vsquid
p1625
g8
sVvisit
p1626
g8
sVsaturday
p1627
g4
sVnight
p1628
g4
ssS'411'
p1629
(dp1630
sS'412'
p1631
(dp1632
Vpast
p1633
g8
sVsoup
p1634
g8
sVfish
p1635
g8
sVflavor
p1636
g8
ssS'413'
p1637
(dp1638
Vpast
p1639
g8
sVplace
p1640
g4
sVlist
p1641
g4
ssS'1384'
p1642
(dp1643
Vfood
p1644
g4
sVprice
p1645
g4
sVrestaurant
p1646
g4
sVthai
p1647
g4
sVday
p1648
g4
ssS'1385'
p1649
(dp1650
Vtaste
p1651
g4
sVdecor
p1652
g4
sVsoho
p1653
g4
sVservice
p1654
g4
ssS'1386'
p1655
(dp1656
Vfood
p1657
g4
sVcuisine
p1658
g4
sVthai
p1659
g4
sVflavors
p1660
g4
ssS'1387'
p1661
(dp1662
Vnuts
p1663
g4
sVchicken
p1664
g4
sVpad
p1665
g4
sVexperience
p1666
g4
ssS'1380'
p1667
(dp1668
sS'1381'
p1669
(dp1670
Vreviewer
p1671
g4
sVpad
p1672
g4
sVdishes
p1673
g4
ssS'1382'
p1674
(dp1675
Vversion
p1676
g8
sVbeef
p1677
g8
ssS'1383'
p1678
(dp1679
Vdelivery
p1680
g8
sVorder
p1681
g8
sVrestaurant
p1682
g8
ssS'2769'
p1683
(dp1684
sS'3583'
p1685
(dp1686
Vmess
p1687
g8
ssS'368'
p1688
(dp1689
Vtable
p1690
g31
sVbottle
p1691
g31
sVwine
p1692
g31
ssS'369'
p1693
(dp1694
Vmenu
p1695
g31
sVtip
p1696
g31
sVdessert
p1697
g31
ssS'366'
p1698
(dp1699
Vwaiter
p1700
g8
ssS'367'
p1701
(dp1702
Vnight
p1703
g31
ssS'364'
p1704
(dp1705
Vwaiter
p1706
g8
sVcourse
p1707
g8
sVminutes
p1708
g8
ssS'365'
p1709
(dp1710
Vcheese
p1711
g8
sVfood
p1712
g8
sVwater
p1713
g31
sVwaiter
p1714
g8
sVpasta
p1715
g8
sVmeal
p1716
g8
sVempty
p1717
g8
sVwine
p1718
g8
ssS'362'
p1719
(dp1720
Vdecor
p1721
g4
sVrestaurant
p1722
g4
ssS'363'
p1723
(dp1724
Vfood
p1725
g4
sVlist
p1726
g4
sVservice
p1727
g4
sVwine
p1728
g4
ssS'380'
p1729
(dp1730
sS'381'
p1731
(dp1732
Veverything
p1733
g4
sVthai
p1734
g4
ssS'382'
p1735
(dp1736
Vnoodles
p1737
g4
sVsauce
p1738
g4
ssS'385'
p1739
(dp1740
Vplace
p1741
g4
ssS'386'
p1742
(dp1743
Veverything
p1744
g4
ssS'387'
p1745
(dp1746
sS'388'
p1747
(dp1748
Vprices
p1749
g4
sVcity
p1750
g4
sVdecor
p1751
g4
sVplace
p1752
g4
ssS'3215'
p1753
(dp1754
sS'2065'
p1755
(dp1756
sS'2792'
p1757
(dp1758
Vdissapointment
p1759
g4
ssS'2190'
p1760
(dp1761
Vattraction
p1762
g4
ssS'2191'
p1763
(dp1764
Vdelivery
p1765
g8
sVconcept
p1766
g8
ssS'2192'
p1767
(dp1768
Vcocktails
p1769
g4
sVdecor
p1770
g4
sVsushi
p1771
g4
sVlot
p1772
g4
ssS'259'
p1773
(dp1774
Vfood
p1775
g4
sVreview
p1776
g4
sVtime
p1777
g4
sVservice
p1778
g4
sVrestaurant
p1779
g4
ssS'2194'
p1780
(dp1781
Vspecials
p1782
g8
sVthai
p1783
g8
sVingredients
p1784
g8
ssS'2195'
p1785
(dp1786
Vservice
p1787
g4
ssS'2196'
p1788
(dp1789
sS'2197'
p1790
(dp1791
Vsushi
p1792
g4
sVplace
p1793
g4
ssS'2198'
p1794
(dp1795
Vfaan
p1796
g4
ssS'2199'
p1797
(dp1798
Vpad
p1799
g4
ssS'250'
p1800
(dp1801
Vfoods
p1802
g4
sVambiance
p1803
g4
sVservice
p1804
g4
sVwaiters
p1805
g4
sVarea
p1806
g4
ssS'256'
p1807
(dp1808
Vpart
p1809
g8
sVcause
p1810
g8
sVway
p1811
g8
ssS'257'
p1812
(dp1813
Vdumplings
p1814
g31
sVnothing
p1815
g31
ssS'254'
p1816
(dp1817
Vway
p1818
g4
sVrestaurant
p1819
g4
ssS'255'
p1820
(dp1821
Vfun
p1822
g8
sVoily
p1823
g8
ssS'2200'
p1824
(dp1825
Vatmosphere
p1826
g4
ssS'2201'
p1827
(dp1828
Vwine
p1829
g4
ssS'2202'
p1830
(dp1831
sS'2203'
p1832
(dp1833
Vsea
p1834
g4
ssS'2204'
p1835
(dp1836
Vsomeone
p1837
g31
sVservice
p1838
g31
sVseat
p1839
g4
ssS'2205'
p1840
(dp1841
Vfood
p1842
g4
sVplace
p1843
g4
ssS'2206'
p1844
(dp1845
Vparty
p1846
g8
sVparties
p1847
g8
sVminutes
p1848
g8
sVmultiples
p1849
g8
sVtable
p1850
g8
ssS'2207'
p1851
(dp1852
Vtables
p1853
g31
sVspace
p1854
g31
ssS'2208'
p1855
(dp1856
sS'2209'
p1857
(dp1858
Vfood
p1859
g8
sVpart
p1860
g8
sVplace
p1861
g8
sVrestaurant
p1862
g8
ssS'2428'
p1863
(dp1864
Vfood
p1865
g4
sVcity
p1866
g4
sVspot
p1867
g4
sVpatron
p1868
g4
sVnight
p1869
g4
ssS'2429'
p1870
(dp1871
Vstreet
p1872
g31
sVplace
p1873
g31
ssS'2400'
p1874
(dp1875
Vbasil
p1876
g4
sVpeanut
p1877
g4
sVtofu
p1878
g4
sVsauce
p1879
g4
sVsalad
p1880
g4
ssS'2420'
p1881
(dp1882
Vplace
p1883
g4
ssS'2421'
p1884
(dp1885
Vfood
p1886
g4
sVroll
p1887
g4
ssS'2422'
p1888
(dp1889
Vfood
p1890
g4
sVhands
p1891
g4
sVrolls
p1892
g4
sVside
p1893
g4
ssS'2423'
p1894
(dp1895
Vlot
p1896
g8
ssS'2424'
p1897
(dp1898
Vplace
p1899
g4
ssS'2425'
p1900
(dp1901
Vrolls
p1902
g31
ssS'2426'
p1903
(dp1904
Vmeat
p1905
g31
sVsystem
p1906
g31
ssS'2427'
p1907
(dp1908
Vplace
p1909
g8
sVprice
p1910
g8
sVquality
p1911
g8
sVvalue
p1912
g8
ssS'2432'
p1913
(dp1914
Vplace
p1915
g8
sVdownside
p1916
g8
ssS'168'
p1917
(dp1918
sS'169'
p1919
(dp1920
Vrestaurant
p1921
g4
sVsquare
p1922
g4
sVtimes
p1923
g4
ssS'164'
p1924
(dp1925
Vplace
p1926
g8
ssS'165'
p1927
(dp1928
Vfood
p1929
g31
sVnothing
p1930
g31
sVappetizers
p1931
g31
ssS'166'
p1932
(dp1933
Vanyone
p1934
g8
sVconversation
p1935
g8
sVkind
p1936
g8
sVservice
p1937
g8
ssS'167'
p1938
(dp1939
sS'160'
p1940
(dp1941
Vwaiter
p1942
g4
sVdessert
p1943
g4
sVexperience
p1944
g4
ssS'161'
p1945
(dp1946
Vfriend
p1947
g4
sVrestaurant
p1948
g31
ssS'162'
p1949
(dp1950
Vdate
p1951
g31
sVappetizers
p1952
g31
sVfriend
p1953
g31
sVdrinks
p1954
g31
ssS'163'
p1955
(dp1956
Vconversation
p1957
g8
sVwaitress
p1958
g8
sVtime
p1959
g8
ssS'3689'
p1960
(dp1961
Vcheese
p1962
g31
sVfondue
p1963
g31
sVappetizer
p1964
g31
ssS'3688'
p1965
(dp1966
Vtables
p1967
g4
sVatmosphere
p1968
g31
sVbar
p1969
g31
sVrestaurant
p1970
g31
sVwaiter
p1971
g4
sVbartender
p1972
g31
ssS'3683'
p1973
(dp1974
Vforks
p1975
g31
sVsandwich
p1976
g31
ssS'3682'
p1977
(dp1978
Vtown
p1979
g4
sVwait
p1980
g4
sVstaff
p1981
g4
ssS'3681'
p1982
(dp1983
Vfood
p1984
g4
sVplace
p1985
g4
sVdeal
p1986
g4
ssS'3680'
p1987
(dp1988
Vatmosphere
p1989
g4
sVreview
p1990
g4
ssS'3687'
p1991
(dp1992
Vevening
p1993
g4
ssS'3686'
p1994
(dp1995
Vatmosphere
p1996
g4
sVeating
p1997
g4
sVexperience
p1998
g4
ssS'3685'
p1999
(dp2000
Vmoney
p2001
g8
ssS'3684'
p2002
(dp2003
Vside
p2004
g31
sVanything
p2005
g31
ssS'2796'
p2006
(dp2007
Vfood
p2008
g4
ssS'3257'
p2009
(dp2010
Vchinatown
p2011
g31
sVneighborhood
p2012
g4
sVplace
p2013
g8
ssS'2514'
p2014
(dp2015
Vneighborhood
p2016
g4
sVtrip
p2017
g8
sVway
p2018
g8
ssS'2515'
p2019
(dp2020
Vnew
p2021
g4
sVplace
p2022
g4
sVyork
p2023
g4
sVtimes
p2024
g4
ssS'2516'
p2025
(dp2026
Vnyc
p2027
g4
sVthai
p2028
g4
sVjazz
p2029
g4
sVplace
p2030
g4
sVnights
p2031
g4
ssS'2517'
p2032
(dp2033
Vfood
p2034
g4
sVdoor
p2035
g4
sVservice
p2036
g4
ssS'2511'
p2037
(dp2038
Vpoint
p2039
g8
ssS'2512'
p2040
(dp2041
Vfood
p2042
g4
sVprices
p2043
g4
sVmusic
p2044
g4
sVservice
p2045
g4
ssS'2513'
p2046
(dp2047
Vglass
p2048
g4
sVwine
p2049
g4
ssS'2734'
p2050
(dp2051
Vservice
p2052
g4
sVmatter
p2053
g31
sVfood
p2054
g31
sVnightmare
p2055
g31
sVny
p2056
g31
sVflavor
p2057
g31
sVues
p2058
g4
sVyankees
p2059
g4
ssS'2735'
p2060
(dp2061
Vplace
p2062
g4
sVues
p2063
g4
sVeverytime
p2064
g4
ssS'2736'
p2065
(dp2066
Vplace
p2067
g4
sVneighborhood
p2068
g4
ssS'2737'
p2069
(dp2070
Vfood
p2071
g4
sVdecor
p2072
g4
sVportions
p2073
g4
sVservice
p2074
g4
ssS'2730'
p2075
(dp2076
Vrestaurants
p2077
g31
ssS'2733'
p2078
(dp2079
Vcomeback
p2080
g31
sVdinner
p2081
g31
sVtime
p2082
g31
ssS'2738'
p2083
(dp2084
Vcity
p2085
g8
sVrestaurant
p2086
g8
ssS'2739'
p2087
(dp2088
sS'3531'
p2089
(dp2090
Vfood
p2091
g8
sVfriend
p2092
g8
sVopposite
p2093
g8
ssS'3530'
p2094
(dp2095
Vchicken
p2096
g8
sVsauce
p2097
g8
ssS'3533'
p2098
(dp2099
Vplace
p2100
g8
ssS'3532'
p2101
(dp2102
Vanyone
p2103
g4
sVdisappointment
p2104
g4
sVrestaurant
p2105
g4
ssS'3535'
p2106
(dp2107
Vfood
p2108
g4
sVprices
p2109
g4
sVdecor
p2110
g4
sVpresentation
p2111
g4
ssS'3534'
p2112
(dp2113
Vdecoration
p2114
g4
sVmoney
p2115
g8
ssS'3537'
p2116
(dp2117
Vheavy
p2118
g8
sVservice
p2119
g8
sVrestaurant
p2120
g8
sVthings
p2121
g8
sVexperience
p2122
g8
sVplace
p2123
g8
ssS'3536'
p2124
(dp2125
Vlunch
p2126
g4
ssS'3539'
p2127
(dp2128
Vdinner
p2129
g31
sVdoor
p2130
g31
sVrestaurants
p2131
g31
ssS'3538'
p2132
(dp2133
Vreviews
p2134
g4
sVfriends
p2135
g4
sVrestaurant
p2136
g4
ssS'1814'
p2137
(dp2138
sS'1815'
p2139
(dp2140
Vpony
p2141
g4
ssS'1816'
p2142
(dp2143
Vthe
p2144
g4
sVspot
p2145
g4
ssS'1817'
p2146
(dp2147
sS'1811'
p2148
(dp2149
Vvintage
p2150
g4
sVfriends
p2151
g4
sVexperience
p2152
g4
ssS'1093'
p2153
(dp2154
Vroth
p2155
g4
sVcity
p2156
g4
sVtime
p2157
g4
sVrestaurants
p2158
g4
sVrestaurant
p2159
g4
ssS'1818'
p2160
(dp2161
Vservice
p2162
g4
ssS'1819'
p2163
(dp2164
Vambiance
p2165
g4
ssS'671'
p2166
(dp2167
Vnoodles
p2168
g31
sVplatters
p2169
g31
sVwater
p2170
g31
sVglass
p2171
g31
sVmeats
p2172
g31
sVtable
p2173
g31
sVrice
p2174
g31
ssS'1609'
p2175
(dp2176
Vservice
p2177
g4
ssS'1608'
p2178
(dp2179
Vlunch
p2180
g4
sVplace
p2181
g4
sVpizza
p2182
g4
ssS'3229'
p2183
(dp2184
Vlife
p2185
g4
sVmeals
p2186
g4
ssS'3228'
p2187
(dp2188
Vseafood
p2189
g4
sVplace
p2190
g4
ssS'1979'
p2191
(dp2192
Vbeef
p2193
g4
ssS'3225'
p2194
(dp2195
Vtuna
p2196
g4
sVselection
p2197
g4
ssS'1600'
p2198
(dp2199
Vtomato
p2200
g4
sVcheese
p2201
g4
sVny
p2202
g4
sVsauce
p2203
g4
sVpizza
p2204
g4
ssS'1975'
p2205
(dp2206
sS'1602'
p2207
(dp2208
Vtakeout
p2209
g4
sVservice
p2210
g4
ssS'3221'
p2211
(dp2212
Vnyc
p2213
g4
sVharu
p2214
g4
ssS'1972'
p2215
(dp2216
Vwater
p2217
g31
ssS'1971'
p2218
(dp2219
Vsides
p2220
g8
ssS'3222'
p2221
(dp2222
sS'809'
p2223
(dp2224
Vwater
p2225
g31
sVprice
p2226
g8
ssS'808'
p2227
(dp2228
sS'803'
p2229
(dp2230
Vfood
p2231
g4
sVfriends
p2232
g4
sVplace
p2233
g4
ssS'802'
p2234
(dp2235
Vangry
p2236
g4
sVlobster
p2237
g4
sVsalad
p2238
g4
ssS'801'
p2239
(dp2240
Vcourse
p2241
g4
ssS'800'
p2242
(dp2243
Vweek
p2244
g4
sVfood
p2245
g4
sVbirthday
p2246
g4
ssS'804'
p2247
(dp2248
Vweek
p2249
g4
sVrestaurant
p2250
g4
ssS'2848'
p2251
(dp2252
Vfood
p2253
g31
sVperson
p2254
g4
sVfixe
p2255
g31
sVmenu
p2256
g31
ssS'2849'
p2257
(dp2258
sS'2846'
p2259
(dp2260
Vfood
p2261
g4
sVperks
p2262
g4
ssS'2847'
p2263
(dp2264
Vplate
p2265
g4
sVstuff
p2266
g4
sVwaiter
p2267
g4
sVdessert
p2268
g4
sVbirthday
p2269
g4
sVtouch
p2270
g4
sVstaff
p2271
g4
ssS'2844'
p2272
(dp2273
Vnyc
p2274
g4
sVrestaurant
p2275
g4
ssS'2845'
p2276
(dp2277
Vbest
p2278
g4
sVrestaurants
p2279
g4
ssS'2842'
p2280
(dp2281
Vdining
p2282
g4
ssS'2843'
p2283
(dp2284
Vevening
p2285
g4
sVdessert
p2286
g4
sVbuttery
p2287
g4
sVchef
p2288
g4
sVcakebread
p2289
g4
sVtruffle
p2290
g4
sVsauce
p2291
g4
ssS'2840'
p2292
(dp2293
Vmanagement
p2294
g8
ssS'2841'
p2295
(dp2296
Vfood
p2297
g31
sVny
p2298
g31
sVbit
p2299
g31
sVexperience
p2300
g31
sVyears
p2301
g31
ssS'3320'
p2302
(dp2303
Vfood
p2304
g4
sVprices
p2305
g4
sVdecor
p2306
g4
ssS'3321'
p2307
(dp2308
Vproblem
p2309
g8
sVmanager
p2310
g8
ssS'3322'
p2311
(dp2312
Vservice
p2313
g8
ssS'3323'
p2314
(dp2315
Vmoment
p2316
g8
sVfact
p2317
g4
ssS'3324'
p2318
(dp2319
Vlocation
p2320
g4
ssS'3325'
p2321
(dp2322
Vservice
p2323
g8
ssS'3326'
p2324
(dp2325
Vreviewers
p2326
g8
ssS'3327'
p2327
(dp2328
Vfood
p2329
g31
sVcuisine
p2330
g31
sVplace
p2331
g31
ssS'3328'
p2332
(dp2333
Vfood
p2334
g31
sVrun
p2335
g31
ssS'1777'
p2336
(dp2337
sS'1771'
p2338
(dp2339
Vsushi
p2340
g31
ssS'1770'
p2341
(dp2342
Vsushi
p2343
g8
sVlives
p2344
g8
sVhusband
p2345
g8
ssS'1779'
p2346
(dp2347
Vowner
p2348
g4
sVambiance
p2349
g4
sVstaff
p2350
g4
ssS'1778'
p2351
(dp2352
Vnothing
p2353
g31
sVatmosphere
p2354
g31
sVsushi
p2355
g31
ssS'321'
p2356
(dp2357
Vthings
p2358
g4
sVplace
p2359
g4
ssS'2998'
p2360
(dp2361
Vfood
p2362
g4
sVplace
p2363
g4
sVgarden
p2364
g4
ssS'1159'
p2365
(dp2366
Vdate
p2367
g31
sVny
p2368
g31
sVdinner
p2369
g31
sVdance
p2370
g31
sVfloor
p2371
g31
ssS'1158'
p2372
(dp2373
Vfood
p2374
g4
sVdate
p2375
g4
sVbit
p2376
g4
sVrestaurant
p2377
g4
ssS'1550'
p2378
(dp2379
Vfood
p2380
g4
sVcabbies
p2381
g4
sVturnover
p2382
g4
ssS'1155'
p2383
(dp2384
Vplace
p2385
g4
ssS'1154'
p2386
(dp2387
Vquarters
p2388
g8
ssS'1157'
p2389
(dp2390
Vcity
p2391
g4
sVdeegan
p2392
g4
ssS'1156'
p2393
(dp2394
Vspot
p2395
g4
sVnight
p2396
g4
ssS'1151'
p2397
(dp2398
Vplace
p2399
g8
sVghetto
p2400
g8
ssS'1150'
p2401
(dp2402
sS'1153'
p2403
(dp2404
sS'1152'
p2405
(dp2406
Vdollar
p2407
g8
sVisnt
p2408
g8
sVmusic
p2409
g8
ssS'59'
p2410
(dp2411
Vatmosphere
p2412
g4
ssS'1554'
p2413
(dp2414
Vcounter
p2415
g8
sVcounters
p2416
g8
sVdeal
p2417
g8
sVspace
p2418
g8
ssS'1551'
p2419
(dp2420
Vbit
p2421
g4
sVhole
p2422
g4
sVstaff
p2423
g4
ssS'2999'
p2424
(dp2425
Vneighborhood
p2426
g4
ssS'1553'
p2427
(dp2428
Vhole
p2429
g4
ssS'1552'
p2430
(dp2431
Vplace
p2432
g4
ssS'1555'
p2433
(dp2434
Vcounter
p2435
g8
ssS'3039'
p2436
(dp2437
Vspecials
p2438
g8
sVlunch
p2439
g8
sVrestaurant
p2440
g8
ssS'1557'
p2441
(dp2442
sS'1556'
p2443
(dp2444
Vfront
p2445
g4
ssS'3034'
p2446
(dp2447
Vmoney
p2448
g31
sVtime
p2449
g8
ssS'1558'
p2450
(dp2451
Vplate
p2452
g4
sVrice
p2453
g4
sVdeal
p2454
g4
sVrestaurant
p2455
g4
ssS'2992'
p2456
(dp2457
Vplace
p2458
g4
sVtime
p2459
g4
ssS'56'
p2460
(dp2461
Vplace
p2462
g4
ssS'51'
p2463
(dp2464
Vnyc
p2465
g4
sVones
p2466
g4
sVfriends
p2467
g4
sVbrewery
p2468
g4
sVplaces
p2469
g4
ssS'2995'
p2470
(dp2471
sS'53'
p2472
(dp2473
Vfood
p2474
g4
sVmenu
p2475
g4
sVbar
p2476
g4
ssS'3033'
p2477
(dp2478
Vfun
p2479
g8
sVflavor
p2480
g8
sVcurry
p2481
g8
ssS'537'
p2482
(dp2483
Vfavorite
p2484
g4
sVneighborhood
p2485
g4
ssS'55'
p2486
(dp2487
sS'533'
p2488
(dp2489
Vselection
p2490
g4
ssS'532'
p2491
(dp2492
Vdelight
p2493
g4
sVcheese
p2494
g4
sVbargain
p2495
g4
sVplate
p2496
g4
ssS'531'
p2497
(dp2498
Vfood
p2499
g4
sVyears
p2500
g4
ssS'530'
p2501
(dp2502
Vtimes
p2503
g4
ssS'57'
p2504
(dp2505
Vnyc
p2506
g4
sVrestaurant
p2507
g4
ssS'539'
p2508
(dp2509
Vtable
p2510
g4
sVrestaurant
p2511
g4
ssS'538'
p2512
(dp2513
Vtime
p2514
g4
ssS'2993'
p2515
(dp2516
Vfood
p2517
g4
sVatmosphere
p2518
g4
ssS'2994'
p2519
(dp2520
Vkind
p2521
g4
sVstaff
p2522
g4
sVwait
p2523
g4
ssS'1906'
p2524
(dp2525
Vtaste
p2526
g4
sVportions
p2527
g4
sVhusband
p2528
g4
ssS'3295'
p2529
(dp2530
Vnyc
p2531
g4
ssS'52'
p2532
(dp2533
Vmidtown
p2534
g4
sVplace
p2535
g4
ssS'3296'
p2536
(dp2537
Vweeks
p2538
g8
sVtime
p2539
g8
ssS'1905'
p2540
(dp2541
Vchance
p2542
g4
ssS'536'
p2543
(dp2544
Vspecials
p2545
g4
ssS'1902'
p2546
(dp2547
Vsteak
p2548
g31
sVhusband
p2549
g4
ssS'3291'
p2550
(dp2551
Vfood
p2552
g4
ssS'429'
p2553
(dp2554
Vfood
p2555
g4
sVthai
p2556
g4
ssS'428'
p2557
(dp2558
Vfood
p2559
g4
sVthai
p2560
g4
sVspots
p2561
g4
sVarea
p2562
g4
ssS'1900'
p2563
(dp2564
Vdinner
p2565
g31
sVsaturday
p2566
g4
sVnight
p2567
g31
ssS'1399'
p2568
(dp2569
Vowner
p2570
g4
sVfood
p2571
g4
sVyears
p2572
g4
ssS'1398'
p2573
(dp2574
Vatmosphere
p2575
g4
sVservice
p2576
g4
sVfood
p2577
g4
sVbuffet
p2578
g4
sVchoice
p2579
g4
sVlunch
p2580
g4
sVdinner
p2581
g4
sVdelicious
p2582
g4
ssS'423'
p2583
(dp2584
Vcity
p2585
g4
sVthai
p2586
g4
sVtoons
p2587
g4
sVplaces
p2588
g4
ssS'1394'
p2589
(dp2590
Vatmosphere
p2591
g4
sVsripraphai
p2592
g4
ssS'1393'
p2593
(dp2594
Vdish
p2595
g4
sVgreen
p2596
g4
sVrice
p2597
g4
sVcurry
p2598
g4
sVdishes
p2599
g4
ssS'1392'
p2600
(dp2601
Vcouple
p2602
g4
sVsripraphai
p2603
g4
sVthai
p2604
g8
sVrestaurant
p2605
g4
ssS'427'
p2606
(dp2607
Vfood
p2608
g4
ssS'426'
p2609
(dp2610
Vspace
p2611
g4
ssS'854'
p2612
(dp2613
sS'3453'
p2614
(dp2615
Vfriends
p2616
g31
sVsaturday
p2617
g31
sVnight
p2618
g31
ssS'3074'
p2619
(dp2620
Vdining
p2621
g4
sVdinner
p2622
g4
sVexperience
p2623
g4
ssS'3450'
p2624
(dp2625
Vdesserts
p2626
g4
sVrestaurant
p2627
g4
sVespresso
p2628
g4
sVchocolate
p2629
g4
ssS'857'
p2630
(dp2631
Vchef
p2632
g4
sVroot
p2633
g4
ssS'850'
p2634
(dp2635
Vparty
p2636
g8
ssS'1423'
p2637
(dp2638
Vsichuan
p2639
g4
sVnyc
p2640
g4
sVrestaurant
p2641
g4
ssS'1321'
p2642
(dp2643
Vfood
p2644
g4
sVcity
p2645
g4
sVplace
p2646
g4
sVyork
p2647
g4
sVnew
p2648
g4
ssS'258'
p2649
(dp2650
Vplace
p2651
g4
sVrestaurants
p2652
g4
ssS'1840'
p2653
(dp2654
Vlocation
p2655
g4
ssS'1970'
p2656
(dp2657
Vbutter
p2658
g4
sVflavor
p2659
g8
sVsteak
p2660
g4
sVway
p2661
g4
ssS'1424'
p2662
(dp2663
Vsoft
p2664
g4
sVspicy
p2665
g4
sVfavorites
p2666
g4
sVfamily
p2667
g4
sVfood
p2668
g4
sVshredded
p2669
g4
sVfish
p2670
g4
sVjuice
p2671
g4
sVpancake
p2672
g4
sVguizhou
p2673
g4
sVchicken
p2674
g4
sVfriends
p2675
g4
ssS'2331'
p2676
(dp2677
Veveryone
p2678
g4
sVchoices
p2679
g4
ssS'3475'
p2680
(dp2681
Vdrink
p2682
g31
sVsomething
p2683
g31
ssS'2183'
p2684
(dp2685
Vscallop
p2686
g4
sVchicken
p2687
g4
sVroll
p2688
g4
sVboyfriend
p2689
g4
ssS'2187'
p2690
(dp2691
Vselection
p2692
g4
sVwine
p2693
g4
sVdrinks
p2694
g4
ssS'2186'
p2695
(dp2696
Vrestaurant
p2697
g4
ssS'229'
p2698
(dp2699
Vothers
p2700
g4
sVpeople
p2701
g4
ssS'228'
p2702
(dp2703
sS'227'
p2704
(dp2705
Vperson
p2706
g31
ssS'226'
p2707
(dp2708
Vanyone
p2709
g4
ssS'225'
p2710
(dp2711
Vheck
p2712
g8
ssS'224'
p2713
(dp2714
Vfood
p2715
g4
sVservice
p2716
g4
ssS'223'
p2717
(dp2718
sS'222'
p2719
(dp2720
Vinternet
p2721
g4
sVrestaurant
p2722
g31
ssS'221'
p2723
(dp2724
Vnyc
p2725
g4
sVanniversary
p2726
g4
sVwife
p2727
g4
ssS'220'
p2728
(dp2729
Vanyone
p2730
g4
sVgrade
p2731
g4
sVservice
p2732
g4
ssS'2213'
p2733
(dp2734
Vplace
p2735
g4
ssS'2212'
p2736
(dp2737
Vthai
p2738
g8
sVplace
p2739
g4
ssS'2211'
p2740
(dp2741
Vsoup
p2742
g8
ssS'2210'
p2743
(dp2744
Vfood
p2745
g8
sVdish
p2746
g8
sVflavor
p2747
g8
sVspicy
p2748
g8
sVtimes
p2749
g8
ssS'2217'
p2750
(dp2751
Vcuisine
p2752
g4
ssS'2216'
p2753
(dp2754
Vminutes
p2755
g8
sVprice
p2756
g8
sVplace
p2757
g8
sVline
p2758
g8
ssS'2215'
p2759
(dp2760
Vfood
p2761
g4
sVtop
p2762
g4
sVprices
p2763
g4
sVambience
p2764
g4
sVfun
p2765
g4
sVfact
p2766
g4
ssS'2214'
p2767
(dp2768
Vcity
p2769
g4
sVhusband
p2770
g4
sVfriend
p2771
g4
sVrestaurant
p2772
g4
ssS'2219'
p2773
(dp2774
Voutside
p2775
g31
sVdoors
p2776
g31
sVair
p2777
g31
ssS'2218'
p2778
(dp2779
Vfood
p2780
g4
sVprice
p2781
g4
sVdoor
p2782
g4
sVday
p2783
g4
sVdelicious
p2784
g4
ssS'151'
p2785
(dp2786
Vfood
p2787
g4
sVprice
p2788
g4
sVplace
p2789
g4
sVdecor
p2790
g4
ssS'150'
p2791
(dp2792
Vsomeone
p2793
g8
sVplace
p2794
g8
ssS'2439'
p2795
(dp2796
Vmoney
p2797
g4
sVplace
p2798
g4
sVvalue
p2799
g4
ssS'152'
p2800
(dp2801
Vservice
p2802
g4
ssS'154'
p2803
(dp2804
sS'2433'
p2805
(dp2806
Vfood
p2807
g8
sVseating
p2808
g8
sVtimes
p2809
g8
sVwait
p2810
g8
ssS'158'
p2811
(dp2812
Vplatter
p2813
g31
sVappetizer
p2814
g31
ssS'2431'
p2815
(dp2816
sS'2437'
p2817
(dp2818
sS'2436'
p2819
(dp2820
sS'2435'
p2821
(dp2822
Vunda
p2823
g4
sVrolls
p2824
g4
ssS'2434'
p2825
(dp2826
Vplace
p2827
g4
sVrolls
p2828
g4
ssS'2508'
p2829
(dp2830
sS'2507'
p2831
(dp2832
Vfood
p2833
g4
ssS'2506'
p2834
(dp2835
Vchoices
p2836
g4
ssS'2503'
p2837
(dp2838
Vanimals
p2839
g8
sVplace
p2840
g8
sVnight
p2841
g4
ssS'2502'
p2842
(dp2843
Vbit
p2844
g8
sVnights
p2845
g31
sVmusic
p2846
g8
ssS'2501'
p2847
(dp2848
Vservice
p2849
g4
ssS'2500'
p2850
(dp2851
Vmenu
p2852
g31
sVeverything
p2853
g31
ssS'2727'
p2854
(dp2855
Vside
p2856
g4
ssS'2726'
p2857
(dp2858
sS'2723'
p2859
(dp2860
Vok
p2861
g31
sVstomach
p2862
g31
ssS'2722'
p2863
(dp2864
Vred
p2865
g4
ssS'2721'
p2866
(dp2867
Vnyc
p2868
g4
sVmeal
p2869
g4
ssS'1712'
p2870
(dp2871
Vaccident
p2872
g4
sVplace
p2873
g4
ssS'125'
p2874
(dp2875
Vfamily
p2876
g4
ssS'1805'
p2877
(dp2878
Vconvenience
p2879
g8
sVtimes
p2880
g8
ssS'1804'
p2881
(dp2882
sS'1803'
p2883
(dp2884
Vstudents
p2885
g31
sVrestaurant
p2886
g31
ssS'1800'
p2887
(dp2888
Varea
p2889
g8
sVtraffic
p2890
g8
sVroom
p2891
g8
sVrest
p2892
g31
sVhour
p2893
g8
ssS'1808'
p2894
(dp2895
Vtaste
p2896
g8
sVservice
p2897
g8
ssS'3258'
p2898
(dp2899
Vneighborhood
p2900
g4
sVrestaurants
p2901
g31
ssS'3259'
p2902
(dp2903
Vfood
p2904
g31
ssS'1948'
p2905
(dp2906
Vbistro
p2907
g4
sVfood
p2908
g4
sVyears
p2909
g4
sVchef
p2910
g4
sVyork
p2911
g4
sVnew
p2912
g4
sVinnovations
p2913
g4
ssS'1949'
p2914
(dp2915
Vchicken
p2916
g31
sVbar
p2917
g31
sVmartini
p2918
g31
sVvillage
p2919
g31
ssS'1942'
p2920
(dp2921
Vwaiter
p2922
g4
sVpeople
p2923
g4
ssS'3251'
p2924
(dp2925
Vphone
p2926
g4
ssS'1940'
p2927
(dp2928
Vbistro
p2929
g4
sVjazz
p2930
g4
sVchilaquiles
p2931
g4
sVbrunch
p2932
g4
sVsuper
p2933
g4
sVstaff
p2934
g4
ssS'3253'
p2935
(dp2936
Vcase
p2937
g4
sVrestaurant
p2938
g4
ssS'3254'
p2939
(dp2940
Vfood
p2941
g4
sVtimes
p2942
g4
ssS'3255'
p2943
(dp2944
Vmenu
p2945
g4
sVrestaurant
p2946
g4
sVway
p2947
g4
sVpeople
p2948
g4
ssS'3256'
p2949
(dp2950
Vchinatown
p2951
g31
sVrestaurants
p2952
g31
ssS'1945'
p2953
(dp2954
Vfood
p2955
g4
sVbistro
p2956
g4
sVneighborhood
p2957
g4
sVplace
p2958
g4
sVservice
p2959
g4
ssS'818'
p2960
(dp2961
Vplace
p2962
g4
sVbar
p2963
g4
ssS'810'
p2964
(dp2965
Vdinner
p2966
g31
sVfriends
p2967
g31
sVchristmas
p2968
g31
sVfamily
p2969
g31
sVnight
p2970
g31
ssS'811'
p2971
(dp2972
Vsunday
p2973
g8
sVplace
p2974
g8
ssS'812'
p2975
(dp2976
Vfood
p2977
g4
sVwaiter
p2978
g4
sVones
p2979
g4
sVhour
p2980
g4
ssS'813'
p2981
(dp2982
Vpasta
p2983
g4
sVappetizers
p2984
g4
sVsteak
p2985
g4
sVsalads
p2986
g4
ssS'814'
p2987
(dp2988
Vfood
p2989
g4
ssS'817'
p2990
(dp2991
Vwaiter
p2992
g4
ssS'2859'
p2993
(dp2994
Vchef
p2995
g8
ssS'1991'
p2996
(dp2997
Vfood
p2998
g4
sVfun
p2999
g4
sVpart
p3000
g4
ssS'1522'
p3001
(dp3002
sS'1990'
p3003
(dp3004
Vway
p3005
g4
ssS'2851'
p3006
(dp3007
Vcountryside
p3008
g4
ssS'2850'
p3009
(dp3010
Vfood
p3011
g4
sVambience
p3012
g4
sVservice
p3013
g4
ssS'2853'
p3014
(dp3015
Veveryone
p3016
g4
sVplace
p3017
g4
ssS'2852'
p3018
(dp3019
Vceiling
p3020
g4
ssS'2855'
p3021
(dp3022
Vfood
p3023
g4
sVservice
p3024
g4
ssS'3205'
p3025
(dp3026
Vfish
p3027
g4
sVambiance
p3028
g4
sVlocation
p3029
g4
sVservice
p3030
g4
ssS'2856'
p3031
(dp3032
Vtables
p3033
g4
sVfloor
p3034
g4
sVfact
p3035
g4
sVspace
p3036
g4
ssS'1490'
p3037
(dp3038
Vcheese
p3039
g4
sVplain
p3040
g4
sVslice
p3041
g4
sVmozzerella
p3042
g4
ssS'3332'
p3043
(dp3044
Vfront
p3045
g4
sVglass
p3046
g4
sVdoor
p3047
g4
sVgetup
p3048
g4
ssS'1492'
p3049
(dp3050
Vplace
p3051
g31
ssS'1493'
p3052
(dp3053
Vowner
p3054
g4
sVguy
p3055
g4
sVpizza
p3056
g4
ssS'1494'
p3057
(dp3058
Vmenu
p3059
g4
sVdishes
p3060
g4
ssS'1495'
p3061
(dp3062
Vweather
p3063
g8
ssS'3335'
p3064
(dp3065
Vfood
p3066
g8
sVvegetables
p3067
g8
sVsauce
p3068
g8
ssS'3334'
p3069
(dp3070
Vfood
p3071
g4
sVrestaurant
p3072
g4
ssS'3203'
p3073
(dp3074
Veverything
p3075
g31
sVsushi
p3076
g31
sVrestaurant
p3077
g31
ssS'3339'
p3078
(dp3079
Vstrip
p3080
g4
sVindia
p3081
g4
sVrestaurant
p3082
g4
ssS'1395'
p3083
(dp3084
Ventrees
p3085
g4
ssS'3202'
p3086
(dp3087
Vdumplings
p3088
g4
sVsake
p3089
g4
sVsushi
p3090
g4
sVrolls
p3091
g4
sVmix
p3092
g4
ssS'1700'
p3093
(dp3094
Vrestaurant
p3095
g31
ssS'1701'
p3096
(dp3097
Vcrew
p3098
g4
sVstaff
p3099
g4
ssS'1702'
p3100
(dp3101
Vfood
p3102
g4
sVprice
p3103
g4
ssS'1703'
p3104
(dp3105
sS'1704'
p3106
(dp3107
Vfood
p3108
g8
sVstrike
p3109
g8
ssS'3201'
p3110
(dp3111
Vfood
p3112
g4
sVservice
p3113
g4
ssS'1706'
p3114
(dp3115
Vfriends
p3116
g4
sVgroup
p3117
g4
sVtime
p3118
g4
ssS'1707'
p3119
(dp3120
Vfriends
p3121
g4
sVdinner
p3122
g4
sVplace
p3123
g4
ssS'1708'
p3124
(dp3125
Vdinner
p3126
g31
sVlucky
p3127
g31
sVname
p3128
g31
ssS'1709'
p3129
(dp3130
Vfood
p3131
g8
sVsomething
p3132
g8
ssS'3200'
p3133
(dp3134
sS'424'
p3135
(dp3136
Veverything
p3137
g4
sVpad
p3138
g4
sVpenang
p3139
g4
ssS'3658'
p3140
(dp3141
Vmusic
p3142
g4
sVpatio
p3143
g4
ssS'3659'
p3144
(dp3145
Vrestaurant
p3146
g4
ssS'1128'
p3147
(dp3148
Vthai
p3149
g8
sVscores
p3150
g8
ssS'1129'
p3151
(dp3152
Vfood
p3153
g31
ssS'1120'
p3154
(dp3155
Vbeef
p3156
g4
sVdishes
p3157
g4
sVwife
p3158
g4
sVways
p3159
g4
sVway
p3160
g4
sVthai
p3161
g4
sVnoodles
p3162
g4
ssS'1123'
p3163
(dp3164
Vsummer
p3165
g4
sVrolls
p3166
g4
sVnight
p3167
g4
sVowner
p3168
g4
sVsaturday
p3169
g4
sVkitchen
p3170
g4
ssS'1124'
p3171
(dp3172
Vwaitress
p3173
g4
ssS'1125'
p3174
(dp3175
Vtimes
p3176
g31
sVmusic
p3177
g31
sVwife
p3178
g31
ssS'1126'
p3179
(dp3180
sS'1127'
p3181
(dp3182
Vfood
p3183
g4
sVrestaurant
p3184
g4
ssS'2989'
p3185
(dp3186
Vdessert
p3187
g31
ssS'2988'
p3188
(dp3189
Vorder
p3190
g8
sVwaitress
p3191
g8
sVtime
p3192
g8
ssS'3029'
p3193
(dp3194
sS'2983'
p3195
(dp3196
Vatmosphere
p3197
g4
sVdesert
p3198
g4
sVservice
p3199
g4
ssS'2099'
p3200
(dp3201
Vvisit
p3202
g4
sVworth
p3203
g31
ssS'3025'
p3204
(dp3205
Vjudgement
p3206
g4
ssS'3024'
p3207
(dp3208
Vsushi
p3209
g31
sVtime
p3210
g8
ssS'3023'
p3211
(dp3212
sS'2986'
p3213
(dp3214
Vway
p3215
g4
ssS'2985'
p3216
(dp3217
Vbite
p3218
g4
sVnight
p3219
g4
ssS'3020'
p3220
(dp3221
Veverything
p3222
g4
sVfish
p3223
g4
sVrice
p3224
g4
sVseaweed
p3225
g4
ssS'524'
p3226
(dp3227
Vatmosphere
p3228
g4
ssS'527'
p3229
(dp3230
Vcouple
p3231
g4
sVspot
p3232
g4
sVdinner
p3233
g4
sVdrinks
p3234
g4
ssS'520'
p3235
(dp3236
Vwine
p3237
g31
ssS'1019'
p3238
(dp3239
sS'523'
p3240
(dp3241
Vlist
p3242
g4
sVwine
p3243
g4
ssS'1014'
p3244
(dp3245
Vatmosphere
p3246
g4
ssS'1015'
p3247
(dp3248
Vdesserts
p3249
g4
sVcouple
p3250
g4
sVfriends
p3251
g4
sVplace
p3252
g4
sVdrinks
p3253
g4
ssS'1017'
p3254
(dp3255
Vfood
p3256
g31
sVservice
p3257
g31
ssS'528'
p3258
(dp3259
Vseating
p3260
g4
sVwinter
p3261
g4
ssS'529'
p3262
(dp3263
Vfood
p3264
g4
sVprices
p3265
g4
sVselecion
p3266
g4
ssS'1012'
p3267
(dp3268
Vdesserts
p3269
g4
ssS'1013'
p3270
(dp3271
Vny
p3272
g4
sVcouple
p3273
g4
sVvinegar
p3274
g4
sVdesserts
p3275
g4
ssS'1236'
p3276
(dp3277
Vkind
p3278
g4
sVproblem
p3279
g4
ssS'1237'
p3280
(dp3281
Vselection
p3282
g4
sVanything
p3283
g31
ssS'1231'
p3284
(dp3285
Vbagel
p3286
g4
sVcity
p3287
g4
sVbagels
p3288
g4
ssS'1232'
p3289
(dp3290
Vfood
p3291
g4
sVlunch
p3292
g4
ssS'1233'
p3293
(dp3294
sS'1238'
p3295
(dp3296
sS'1239'
p3297
(dp3298
sS'438'
p3299
(dp3300
Vfood
p3301
g8
sVpizza
p3302
g8
ssS'439'
p3303
(dp3304
sS'433'
p3305
(dp3306
sS'430'
p3307
(dp3308
Vive
p3309
g4
sVfood
p3310
g4
sVcourse
p3311
g4
sVtoons
p3312
g4
sVthai
p3313
g4
sVmanhattan
p3314
g4
sVrestaurants
p3315
g4
ssS'1966'
p3316
(dp3317
Vbusiness
p3318
g4
sVdinner
p3319
g4
sVplace
p3320
g4
sVfun
p3321
g4
sVtable
p3322
g4
sVfriends
p3323
g4
ssS'559'
p3324
(dp3325
Vmimosas
p3326
g4
sVhour
p3327
g4
sVtime
p3328
g4
ssS'1967'
p3329
(dp3330
Vny
p3331
g4
sVyears
p3332
g4
ssS'3162'
p3333
(dp3334
Vtown
p3335
g4
sVbagel
p3336
g4
ssS'3160'
p3337
(dp3338
Vtime
p3339
g4
ssS'2465'
p3340
(dp3341
Vdates
p3342
g4
ssS'2948'
p3343
(dp3344
Vambiance
p3345
g8
ssS'997'
p3346
(dp3347
Vplace
p3348
g4
ssS'238'
p3349
(dp3350
Vfood
p3351
g4
sVwaiters
p3352
g4
ssS'239'
p3353
(dp3354
Vcourse
p3355
g31
ssS'991'
p3356
(dp3357
Vprices
p3358
g4
sVlocation
p3359
g4
ssS'236'
p3360
(dp3361
Vmoney
p3362
g4
sVgreen
p3363
g4
sVnew
p3364
g4
ssS'237'
p3365
(dp3366
Vdumplings
p3367
g4
sVfish
p3368
g4
sVchicken
p3369
g4
sVcrab
p3370
g4
ssS'230'
p3371
(dp3372
sS'231'
p3373
(dp3374
Vfood
p3375
g31
sVdate
p3376
g31
sVafternoon
p3377
g31
ssS'232'
p3378
(dp3379
Vplace
p3380
g4
ssS'233'
p3381
(dp3382
Vfood
p3383
g4
sVservice
p3384
g4
ssS'2228'
p3385
(dp3386
Vsetting
p3387
g4
ssS'2229'
p3388
(dp3389
sS'2226'
p3390
(dp3391
Vfood
p3392
g4
sVprice
p3393
g4
sVappetizers
p3394
g4
ssS'2227'
p3395
(dp3396
Vfamily
p3397
g4
sVdishes
p3398
g4
ssS'2224'
p3399
(dp3400
Vwater
p3401
g31
sVrice
p3402
g31
sVfriend
p3403
g31
ssS'2225'
p3404
(dp3405
Vseating
p3406
g8
sVplace
p3407
g8
sVday
p3408
g8
ssS'2222'
p3409
(dp3410
Vseafood
p3411
g31
sVappetizers
p3412
g31
sVdishes
p3413
g31
ssS'2223'
p3414
(dp3415
Vfood
p3416
g4
ssS'2220'
p3417
(dp3418
Vcoats
p3419
g31
sVparty
p3420
g31
sVdoors
p3421
g31
sVclose
p3422
g31
ssS'2221'
p3423
(dp3424
sS'147'
p3425
(dp3426
Vcity
p3427
g4
sVstyle
p3428
g4
sVplace
p3429
g4
ssS'142'
p3430
(dp3431
Vsoh
p3432
g4
sVtasting
p3433
g4
sVdough
p3434
g4
sVbread
p3435
g4
ssS'140'
p3436
(dp3437
Vdumplings
p3438
g4
sVnoodles
p3439
g4
sVbeef
p3440
g4
sVshrimp
p3441
g4
ssS'141'
p3442
(dp3443
Vdish
p3444
g4
ssS'2468'
p3445
(dp3446
Vfood
p3447
g4
ssS'148'
p3448
(dp3449
Vrice
p3450
g4
sVvarieties
p3451
g4
sVdishes
p3452
g4
ssS'149'
p3453
(dp3454
Vlunch
p3455
g4
sVfriend
p3456
g4
ssS'3401'
p3457
(dp3458
Vwasnt
p3459
g8
sVchicken
p3460
g8
sVsalmon
p3461
g8
sVservings
p3462
g8
ssS'2088'
p3463
(dp3464
Vdecor
p3465
g8
sVsomething
p3466
g8
ssS'2089'
p3467
(dp3468
Vdumplings
p3469
g4
sVdecor
p3470
g4
ssS'2082'
p3471
(dp3472
sS'2083'
p3473
(dp3474
Vsum
p3475
g31
ssS'2080'
p3476
(dp3477
Vmanager
p3478
g4
sVvisit
p3479
g4
ssS'2081'
p3480
(dp3481
Vprices
p3482
g31
ssS'2086'
p3483
(dp3484
Vdishes
p3485
g31
ssS'2087'
p3486
(dp3487
Vwaiter
p3488
g8
sVsomeone
p3489
g8
ssS'2084'
p3490
(dp3491
Vsum
p3492
g8
sVlack
p3493
g8
sVdishes
p3494
g8
ssS'2085'
p3495
(dp3496
Vmushrooms
p3497
g4
sVwintermelon
p3498
g4
sVabby
p3499
g4
ssS'3342'
p3500
(dp3501
sS'2538'
p3502
(dp3503
Vfood
p3504
g4
sVscratch
p3505
g4
ssS'2539'
p3506
(dp3507
Vdrink
p3508
g4
sVbar
p3509
g4
sVspecial
p3510
g4
sVselections
p3511
g4
ssS'1190'
p3512
(dp3513
Vlot
p3514
g8
sVservice
p3515
g8
ssS'2532'
p3516
(dp3517
Vmoney
p3518
g31
ssS'2533'
p3519
(dp3520
Vway
p3521
g4
ssS'2536'
p3522
(dp3523
Vreview
p3524
g31
ssS'1193'
p3525
(dp3526
sS'2534'
p3527
(dp3528
sS'2535'
p3529
(dp3530
sS'2712'
p3531
(dp3532
Vmeal
p3533
g4
sVtimes
p3534
g4
ssS'2713'
p3535
(dp3536
Vcity
p3537
g4
sVplaces
p3538
g4
ssS'2710'
p3539
(dp3540
sS'2711'
p3541
(dp3542
Vfact
p3543
g4
ssS'2716'
p3544
(dp3545
Vweek
p3546
g4
sVjob
p3547
g4
sVrestaurant
p3548
g4
ssS'2717'
p3549
(dp3550
Vred
p3551
g4
ssS'2714'
p3552
(dp3553
Vmenu
p3554
g4
sVsomething
p3555
g4
ssS'2715'
p3556
(dp3557
Vfish
p3558
g4
sVsteak
p3559
g4
sVsushi
p3560
g4
ssS'2718'
p3561
(dp3562
Vatmosphere
p3563
g4
sVjazz
p3564
g4
sVlobster
p3565
g4
sVsalad
p3566
g4
sVtime
p3567
g4
ssS'130'
p3568
(dp3569
Vservice
p3570
g8
ssS'128'
p3571
(dp3572
Vchicken
p3573
g4
sVrice
p3574
g4
ssS'3344'
p3575
(dp3576
Vtimes
p3577
g8
ssS'129'
p3578
(dp3579
Vmiddle
p3580
g31
sVchinatown
p3581
g31
ssS'3345'
p3582
(dp3583
Vny
p3584
g4
sVpizza
p3585
g4
ssS'1832'
p3586
(dp3587
Vfriends
p3588
g4
ssS'1830'
p3589
(dp3590
Vfamous
p3591
g4
sVlove
p3592
g4
sVpizza
p3593
g4
ssS'1831'
p3594
(dp3595
sS'1836'
p3596
(dp3597
Vindividuals
p3598
g8
sVservice
p3599
g8
ssS'1837'
p3600
(dp3601
Vservice
p3602
g4
ssS'1835'
p3603
(dp3604
Vcustomers
p3605
g8
sVorder
p3606
g8
sVtimes
p3607
g8
ssS'1838'
p3608
(dp3609
sS'1839'
p3610
(dp3611
Vfood
p3612
g4
ssS'2406'
p3613
(dp3614
Vdumplings
p3615
g4
sVappetizers
p3616
g4
sVshrimp
p3617
g4
ssS'2155'
p3618
(dp3619
Vmayo
p3620
g4
sVsalad
p3621
g4
ssS'2156'
p3622
(dp3623
Vnyc
p3624
g4
sVbagels
p3625
g4
ssS'2405'
p3626
(dp3627
Vfood
p3628
g4
sVprices
p3629
g4
ssS'2150'
p3630
(dp3631
Vdrink
p3632
g4
ssS'2403'
p3633
(dp3634
Vlunch
p3635
g31
sVsaet
p3636
g31
ssS'2152'
p3637
(dp3638
Vbagels
p3639
g4
ssS'2153'
p3640
(dp3641
Vcity
p3642
g31
sVbagels
p3643
g31
sVorder
p3644
g31
sVnew
p3645
g31
sVyork
p3646
g31
ssS'932'
p3647
(dp3648
Vminutes
p3649
g31
sVappetizer
p3650
g31
ssS'931'
p3651
(dp3652
Vwater
p3653
g31
sVminutes
p3654
g4
ssS'930'
p3655
(dp3656
Vvodka
p3657
g4
sVsquare
p3658
g4
sVtimes
p3659
g4
ssS'2158'
p3660
(dp3661
Vbagel
p3662
g4
sVny
p3663
g4
sVmidtown
p3664
g4
ssS'2159'
p3665
(dp3666
Vbagels
p3667
g4
sVinside
p3668
g4
ssS'2408'
p3669
(dp3670
Vconversation
p3671
g8
sVeveryone
p3672
g8
sVmusic
p3673
g8
sVluxury
p3674
g8
sVnight
p3675
g8
ssS'2409'
p3676
(dp3677
Vdelivery
p3678
g8
sVservice
p3679
g8
ssS'471'
p3680
(dp3681
Vpasta
p3682
g8
sVmushrooms
p3683
g8
sVchicken
p3684
g8
sVsauce
p3685
g8
sVparm
p3686
g8
ssS'3091'
p3687
(dp3688
Vfood
p3689
g4
sVpuke
p3690
g4
sVlot
p3691
g8
ssS'1955'
p3692
(dp3693
sS'1954'
p3694
(dp3695
sS'1957'
p3696
(dp3697
sS'1956'
p3698
(dp3699
Vprice
p3700
g4
sVmeal
p3701
g4
ssS'1951'
p3702
(dp3703
Vtable
p3704
g4
sVrestaurant
p3705
g4
ssS'1950'
p3706
(dp3707
Vreservation
p3708
g31
sVnight
p3709
g31
sVboyfriend
p3710
g31
ssS'1953'
p3711
(dp3712
sS'1952'
p3713
(dp3714
Vfood
p3715
g4
sVservice
p3716
g4
ssS'1959'
p3717
(dp3718
Vbar
p3719
g31
ssS'1958'
p3720
(dp3721
Vtop
p3722
g31
sVlist
p3723
g31
ssS'3249'
p3724
(dp3725
Vfood
p3726
g4
sVeverything
p3727
g4
sVrestaurant
p3728
g4
ssS'3248'
p3729
(dp3730
Vchicken
p3731
g8
ssS'3243'
p3732
(dp3733
Vdessert
p3734
g31
sVroom
p3735
g4
sVtime
p3736
g31
ssS'3242'
p3737
(dp3738
Vreason
p3739
g4
ssS'3241'
p3740
(dp3741
Vfish
p3742
g4
sVhit
p3743
g4
ssS'3247'
p3744
(dp3745
Vattractions
p3746
g4
sVshanghai
p3747
g4
sVwife
p3748
g4
ssS'3246'
p3749
(dp3750
sS'3245'
p3751
(dp3752
Vdelivery
p3753
g4
sVbuns
p3754
g4
ssS'3244'
p3755
(dp3756
Vm
p3757
g31
sVtimes
p3758
g31
ssS'828'
p3759
(dp3760
Vtable
p3761
g4
sVnight
p3762
g4
sVview
p3763
g4
sVreservation
p3764
g4
ssS'825'
p3765
(dp3766
Vtry
p3767
g4
ssS'824'
p3768
(dp3769
Vlocation
p3770
g31
sVthrill
p3771
g31
ssS'827'
p3772
(dp3773
Vsurprise
p3774
g4
ssS'826'
p3775
(dp3776
Vgrand
p3777
g8
sVhall
p3778
g8
sVrestaurant
p3779
g8
ssS'823'
p3780
(dp3781
Vlunch
p3782
g31
sVclient
p3783
g31
ssS'822'
p3784
(dp3785
Vreviews
p3786
g4
sVdesserts
p3787
g4
sVgroup
p3788
g4
ssS'2284'
p3789
(dp3790
Vfood
p3791
g31
sVprices
p3792
g31
ssS'1536'
p3793
(dp3794
Vsoup
p3795
g4
sVsandwich
p3796
g4
ssS'1993'
p3797
(dp3798
Vmarketing
p3799
g4
sVhumor
p3800
g4
sVsense
p3801
g4
ssS'3227'
p3802
(dp3803
Vtown
p3804
g4
sVdinner
p3805
g4
sVrestaurant
p3806
g4
sVdeal
p3807
g4
sVnight
p3808
g4
ssS'1483'
p3809
(dp3810
Vowner
p3811
g4
ssS'1482'
p3812
(dp3813
Vslice
p3814
g4
sVtoppings
p3815
g4
sVplaces
p3816
g4
ssS'1481'
p3817
(dp3818
Vslice
p3819
g4
sVingredients
p3820
g4
ssS'1480'
p3821
(dp3822
Vslice
p3823
g4
sVpizza
p3824
g4
ssS'1487'
p3825
(dp3826
Vgarlic
p3827
g4
sVsauce
p3828
g4
sVtomatoes
p3829
g4
sVpizza
p3830
g4
ssS'1823'
p3831
(dp3832
Vpizza
p3833
g4
ssS'1485'
p3834
(dp3835
Vpizza
p3836
g4
ssS'1484'
p3837
(dp3838
Vside
p3839
g4
ssS'3306'
p3840
(dp3841
sS'3304'
p3842
(dp3843
Vnew
p3844
g4
sVchowder
p3845
g4
sVlobster
p3846
g4
sVboyfriend
p3847
g4
ssS'3305'
p3848
(dp3849
Vmash
p3850
g31
sVfilet
p3851
g31
ssS'3302'
p3852
(dp3853
Vservice
p3854
g4
sVstaff
p3855
g4
ssS'3303'
p3856
(dp3857
Vlobster
p3858
g4
ssS'797'
p3859
(dp3860
Vmenu
p3861
g8
sVseafood
p3862
g8
sVsalmon
p3863
g8
ssS'928'
p3864
(dp3865
Vfood
p3866
g31
sVambience
p3867
g31
ssS'1711'
p3868
(dp3869
Vfood
p3870
g8
sVbistro
p3871
g8
sVprices
p3872
g8
ssS'1710'
p3873
(dp3874
Vfood
p3875
g8
sVprices
p3876
g8
sVplace
p3877
g8
sVwaiter
p3878
g8
sVway
p3879
g8
ssS'1717'
p3880
(dp3881
Vbit
p3882
g8
ssS'792'
p3883
(dp3884
Vchef
p3885
g31
sVowner
p3886
g31
ssS'791'
p3887
(dp3888
Vtable
p3889
g8
sVbill
p3890
g8
sVwaiters
p3891
g8
ssS'2410'
p3892
(dp3893
Vdelivery
p3894
g8
sVhour
p3895
g8
ssS'1719'
p3896
(dp3897
sS'1718'
p3898
(dp3899
Vfood
p3900
g4
sVdecor
p3901
g4
sVservice
p3902
g4
ssS'2413'
p3903
(dp3904
Vfood
p3905
g8
sVjoints
p3906
g8
sValternative
p3907
g8
ssS'799'
p3908
(dp3909
Vfood
p3910
g31
ssS'798'
p3911
(dp3912
Vparty
p3913
g8
sVholiday
p3914
g8
sVsomething
p3915
g4
ssS'612'
p3916
(dp3917
Vbeer
p3918
g4
sVdrink
p3919
g4
sVplace
p3920
g4
ssS'2412'
p3921
(dp3922
Vmenu
p3923
g4
sVspice
p3924
g4
ssS'1271'
p3925
(dp3926
Vcurry
p3927
g8
sVthai
p3928
g8
sVrice
p3929
g8
sVpad
p3930
g8
sVseafood
p3931
g8
ssS'2415'
p3932
(dp3933
Vsetting
p3934
g4
sVplace
p3935
g4
ssS'610'
p3936
(dp3937
Vfood
p3938
g4
sVtiem
p3939
g4
ssS'2414'
p3940
(dp3941
Vfood
p3942
g31
sVpaper
p3943
g31
sVpad
p3944
g31
sVplaces
p3945
g31
sVdishes
p3946
g31
ssS'1139'
p3947
(dp3948
Vbit
p3949
g4
ssS'1138'
p3950
(dp3951
Vgrilled
p3952
g4
sVthing
p3953
g31
sVchicken
p3954
g31
ssS'2417'
p3955
(dp3956
Vfood
p3957
g4
sVfavorite
p3958
g4
ssS'1133'
p3959
(dp3960
Vdinner
p3961
g31
ssS'1995'
p3962
(dp3963
Veverything
p3964
g4
ssS'1131'
p3965
(dp3966
Vwow
p3967
g4
ssS'1130'
p3968
(dp3969
Vlight
p3970
g4
sVplace
p3971
g4
sVmeal
p3972
g4
sVlong
p3973
g4
sVaccent
p3974
g4
ssS'617'
p3975
(dp3976
Vtown
p3977
g4
sVlocation
p3978
g4
ssS'2419'
p3979
(dp3980
Vfood
p3981
g4
sVpinnacle
p3982
g4
ssS'1276'
p3983
(dp3984
Vmoney
p3985
g31
sVcostco
p3986
g31
sVway
p3987
g31
ssS'2418'
p3988
(dp3989
Vparatha
p3990
g4
sVbread
p3991
g4
ssS'615'
p3992
(dp3993
Vfood
p3994
g4
sVportions
p3995
g4
ssS'2790'
p3996
(dp3997
Vfood
p3998
g8
sVheritage
p3999
g8
ssS'3018'
p4000
(dp4001
Vbills
p4002
g8
ssS'3019'
p4003
(dp4004
Vbar
p4005
g31
sVcouple
p4006
g31
sVsushi
p4007
g31
sVtimes
p4008
g31
sVchef
p4009
g31
sVeverything
p4010
g31
sVtime
p4011
g31
sVhusband
p4012
g31
ssS'3012'
p4013
(dp4014
Vcombinations
p4015
g4
sVsushi
p4016
g4
sVside
p4017
g4
ssS'3013'
p4018
(dp4019
Vrestaurant
p4020
g4
ssS'3011'
p4021
(dp4022
Vtaste
p4023
g31
ssS'3016'
p4024
(dp4025
Vportions
p4026
g8
sVqualities
p4027
g8
ssS'3017'
p4028
(dp4029
Vvisit
p4030
g31
sVbeer
p4031
g31
sVglass
p4032
g31
sVdinner
p4033
g31
sVplace
p4034
g31
sVwine
p4035
g31
ssS'3014'
p4036
(dp4037
Vcall
p4038
g4
ssS'3015'
p4039
(dp4040
Vportions
p4041
g8
sVorder
p4042
g8
ssS'519'
p4043
(dp4044
Vseafood
p4045
g4
sVselection
p4046
g4
sVwine
p4047
g4
ssS'518'
p4048
(dp4049
Vservice
p4050
g4
sVrestaurant
p4051
g4
ssS'926'
p4052
(dp4053
sS'1009'
p4054
(dp4055
Vfood
p4056
g8
sVservice
p4057
g8
sVlevel
p4058
g8
ssS'1008'
p4059
(dp4060
Vmenu
p4061
g8
sVorder
p4062
g8
sVexperience
p4063
g8
ssS'1007'
p4064
(dp4065
Vdim
p4066
g31
sVsum
p4067
g31
ssS'1006'
p4068
(dp4069
Vdim
p4070
g8
sVsum
p4071
g8
sVworst
p4072
g8
sVplaces
p4073
g8
ssS'513'
p4074
(dp4075
Vtable
p4076
g8
ssS'927'
p4077
(dp4078
Veffort
p4079
g31
sVok
p4080
g31
sVcrowd
p4081
g8
sVservers
p4082
g8
ssS'1003'
p4083
(dp4084
Vstrawberry
p4085
g4
ssS'1002'
p4086
(dp4087
Vfood
p4088
g4
sVview
p4089
g4
ssS'1001'
p4090
(dp4091
Vsunset
p4092
g4
sVplace
p4093
g4
ssS'1000'
p4094
(dp4095
Vfood
p4096
g4
sVdishes
p4097
g4
sVdrinks
p4098
g4
ssS'623'
p4099
(dp4100
Vgreenewich
p4101
g4
sVvillage
p4102
g4
ssS'1226'
p4103
(dp4104
Vhome
p4105
g31
sVsalads
p4106
g31
ssS'621'
p4107
(dp4108
Vdinner
p4109
g4
sVentertainment
p4110
g4
ssS'620'
p4111
(dp4112
Vfood
p4113
g4
sVdish
p4114
g4
sVbeers
p4115
g4
sVguest
p4116
g4
sVhusband
p4117
g4
ssS'627'
p4118
(dp4119
Vtable
p4120
g31
sVdinner
p4121
g31
sVbar
p4122
g31
ssS'626'
p4123
(dp4124
Vdrinks
p4125
g31
sVplace
p4126
g31
sVvillage
p4127
g31
ssS'625'
p4128
(dp4129
Vnight
p4130
g4
sVpub
p4131
g4
sVtime
p4132
g4
ssS'624'
p4133
(dp4134
sS'629'
p4135
(dp4136
Vbathrooms
p4137
g4
sVdecor
p4138
g4
sVplace
p4139
g4
sVlaugh
p4140
g4
ssS'628'
p4141
(dp4142
Vfood
p4143
g4
sVserver
p4144
g4
sVdrinks
p4145
g4
ssS'1228'
p4146
(dp4147
Vcheese
p4148
g31
sVmanager
p4149
g8
sVsandwich
p4150
g31
sVbusiness
p4151
g31
ssS'2882'
p4152
(dp4153
Vlamb
p4154
g4
sVlassi
p4155
g4
sVnaan
p4156
g4
ssS'2883'
p4157
(dp4158
sS'2880'
p4159
(dp4160
Vplaces
p4161
g4
ssS'2881'
p4162
(dp4163
Vsans
p4164
g4
sVfood
p4165
g4
sVvenues
p4166
g4
sVyears
p4167
g4
sVhome
p4168
g4
sVbit
p4169
g4
ssS'2886'
p4170
(dp4171
Vweek
p4172
g4
sVfood
p4173
g4
sVwife
p4174
g4
ssS'2887'
p4175
(dp4176
Vfood
p4177
g31
sVchicken
p4178
g31
ssS'2884'
p4179
(dp4180
Vambience
p4181
g4
sVfood
p4182
g4
ssS'2885'
p4183
(dp4184
Vstomach
p4185
g4
ssS'2888'
p4186
(dp4187
Voffensive
p4188
g31
ssS'2889'
p4189
(dp4190
sS'3196'
p4191
(dp4192
sS'1920'
p4193
(dp4194
Veast
p4195
g4
sVroom
p4196
g4
sVvillage
p4197
g4
ssS'15'
p4198
(dp4199
Vfriends
p4200
g4
ssS'14'
p4201
(dp4202
Vnoir
p4203
g8
sVcafe
p4204
g8
sVplace
p4205
g8
sVstaff
p4206
g8
ssS'16'
p4207
(dp4208
Vbar
p4209
g31
sVwhile
p4210
g31
sVexperience
p4211
g4
sVmanager
p4212
g4
sVnight
p4213
g31
sVreservation
p4214
g31
ssS'1922'
p4215
(dp4216
Vspace
p4217
g4
sVservice
p4218
g4
sVrestaurants
p4219
g4
ssS'3275'
p4220
(dp4221
Vwaitress
p4222
g4
ssS'1925'
p4223
(dp4224
Vchef
p4225
g8
sVpoint
p4226
g8
ssS'3193'
p4227
(dp4228
Vservice
p4229
g31
sVpeople
p4230
g31
ssS'929'
p4231
(dp4232
Vmenu
p4233
g4
sVcity
p4234
g4
sVeverything
p4235
g4
ssS'201'
p4236
(dp4237
Vfood
p4238
g4
sVprice
p4239
g4
sVlist
p4240
g4
sVwine
p4241
g4
ssS'200'
p4242
(dp4243
Vgroup
p4244
g4
ssS'202'
p4245
(dp4246
sS'205'
p4247
(dp4248
Vwaitstaff
p4249
g31
sVservice
p4250
g31
ssS'204'
p4251
(dp4252
Vroom
p4253
g8
sVspot
p4254
g8
sVatomosphere
p4255
g8
sVquarters
p4256
g8
sVtable
p4257
g8
sVfun
p4258
g8
sVparty
p4259
g8
ssS'206'
p4260
(dp4261
Vfood
p4262
g4
sVcourse
p4263
g4
sVreason
p4264
g4
ssS'209'
p4265
(dp4266
Vdate
p4267
g4
sVtable
p4268
g4
sVplace
p4269
g4
sVprivacy
p4270
g4
ssS'208'
p4271
(dp4272
Vspecials
p4273
g4
ssS'1573'
p4274
(dp4275
Vtime
p4276
g4
ssS'831'
p4277
(dp4278
Vfood
p4279
g8
sVview
p4280
g8
ssS'3470'
p4281
(dp4282
Vatmosphere
p4283
g31
ssS'687'
p4284
(dp4285
Voccasion
p4286
g4
sVsetting
p4287
g4
sVservice
p4288
g4
ssS'837'
p4289
(dp4290
Vambience
p4291
g8
sVpeople
p4292
g8
ssS'2239'
p4293
(dp4294
Vfood
p4295
g4
sVmoney
p4296
g4
sVplace
p4297
g4
sVexpectations
p4298
g4
sVlot
p4299
g4
ssS'2238'
p4300
(dp4301
Vsuan
p4302
g4
ssS'1570'
p4303
(dp4304
Vfood
p4305
g31
ssS'834'
p4306
(dp4307
Vbit
p4308
g8
ssS'2230'
p4309
(dp4310
Vfood
p4311
g8
ssS'2233'
p4312
(dp4313
Vprice
p4314
g8
ssS'3473'
p4315
(dp4316
Vdark
p4317
g8
sVhot
p4318
g4
sVloud
p4319
g8
ssS'2235'
p4320
(dp4321
Vnyc
p4322
g8
sVthai
p4323
g8
sVone
p4324
g8
sVrestaurants
p4325
g8
ssS'2234'
p4326
(dp4327
sS'2237'
p4328
(dp4329
Vthai
p4330
g8
ssS'2236'
p4331
(dp4332
Vfood
p4333
g8
sVsauces
p4334
g8
ssS'682'
p4335
(dp4336
Vmanhattanite
p4337
g4
ssS'3499'
p4338
(dp4339
Vglass
p4340
g8
sVwines
p4341
g8
ssS'3496'
p4342
(dp4343
Vpizza
p4344
g8
ssS'3494'
p4345
(dp4346
Vpizza
p4347
g31
ssS'3495'
p4348
(dp4349
sS'3492'
p4350
(dp4351
Vpasta
p4352
g4
sVpizza
p4353
g4
ssS'3493'
p4354
(dp4355
Vambience
p4356
g4
sVservice
p4357
g4
ssS'3490'
p4358
(dp4359
Vyears
p4360
g4
sVrestaurant
p4361
g4
ssS'3491'
p4362
(dp4363
Vfood
p4364
g4
ssS'2095'
p4365
(dp4366
Vnoodles
p4367
g31
ssS'2094'
p4368
(dp4369
sS'2097'
p4370
(dp4371
Vdish
p4372
g31
ssS'2096'
p4373
(dp4374
Vdimsum
p4375
g4
sVplaces
p4376
g4
ssS'2091'
p4377
(dp4378
Vpiece
p4379
g4
ssS'2090'
p4380
(dp4381
Vsum
p4382
g4
sVbite
p4383
g4
ssS'2093'
p4384
(dp4385
Vsomeone
p4386
g8
sVbill
p4387
g8
ssS'2092'
p4388
(dp4389
sS'3654'
p4390
(dp4391
Vfood
p4392
g4
sVdish
p4393
g4
sVsalmon
p4394
g4
ssS'3655'
p4395
(dp4396
Vworld
p4397
g4
ssS'3650'
p4398
(dp4399
Vgin
p4400
g31
ssS'2098'
p4401
(dp4402
Vservice
p4403
g31
ssS'3652'
p4404
(dp4405
sS'3653'
p4406
(dp4407
Vny
p4408
g4
sVchance
p4409
g4
sVfriends
p4410
g4
sVfriend
p4411
g4
ssS'2525'
p4412
(dp4413
Vpizzeria
p4414
g8
sVplace
p4415
g8
sVside
p4416
g8
sVidea
p4417
g8
ssS'2524'
p4418
(dp4419
Vplace
p4420
g4
ssS'2526'
p4421
(dp4422
Vprices
p4423
g8
sVpizzerias
p4424
g8
sVhour
p4425
g8
sVarea
p4426
g8
ssS'2521'
p4427
(dp4428
Vfood
p4429
g8
sVeverything
p4430
g8
sVservice
p4431
g8
sVenvironment
p4432
g8
ssS'2520'
p4433
(dp4434
Vplace
p4435
g8
ssS'2523'
p4436
(dp4437
Vfood
p4438
g8
ssS'2522'
p4439
(dp4440
Vbakery
p4441
g8
sVbread
p4442
g8
ssS'2529'
p4443
(dp4444
Vbar
p4445
g8
sVidea
p4446
g8
ssS'2709'
p4447
(dp4448
Vdesserts
p4449
g4
sVrestaurants
p4450
g4
ssS'2708'
p4451
(dp4452
Vfood
p4453
g4
ssS'2705'
p4454
(dp4455
Voutside
p4456
g31
ssS'2704'
p4457
(dp4458
sS'2707'
p4459
(dp4460
sS'2706'
p4461
(dp4462
Vpeople
p4463
g8
ssS'2701'
p4464
(dp4465
Vfood
p4466
g4
sVservice
p4467
g4
ssS'2700'
p4468
(dp4469
Vsomeplace
p4470
g8
sVtable
p4471
g8
sVfriend
p4472
g8
ssS'2703'
p4473
(dp4474
sS'2702'
p4475
(dp4476
Vfilet
p4477
g4
sVfrites
p4478
g4
sVappetizer
p4479
g4
ssS'1829'
p4480
(dp4481
sS'1828'
p4482
(dp4483
Vpie
p4484
g4
sVhomemade
p4485
g4
ssS'1825'
p4486
(dp4487
Vpizzerias
p4488
g4
ssS'1824'
p4489
(dp4490
sS'1827'
p4491
(dp4492
Vfood
p4493
g4
sVpride
p4494
g4
sVbusiness
p4495
g4
ssS'1826'
p4496
(dp4497
Vnew
p4498
g4
sVeveryone
p4499
g4
sVyork
p4500
g4
sVsal
p4501
g4
ssS'1821'
p4502
(dp4503
Vpizzeria
p4504
g4
sVneighborhood
p4505
g4
ssS'1820'
p4506
(dp4507
Vhome
p4508
g4
sVplace
p4509
g4
sVheart
p4510
g4
ssS'512'
p4511
(dp4512
Vmaitre
p4513
g8
sVday
p4514
g8
ssS'1822'
p4515
(dp4516
Vprice
p4517
g4
sVpizzas
p4518
g4
ssS'2147'
p4519
(dp4520
Veveryone
p4521
g4
sVplace
p4522
g4
sVmeal
p4523
g4
ssS'2146'
p4524
(dp4525
Vfood
p4526
g4
sVhome
p4527
g4
sVatmosphere
p4528
g4
sVstaff
p4529
g4
ssS'2145'
p4530
(dp4531
sS'2144'
p4532
(dp4533
Vhurley
p4534
g4
ssS'2143'
p4535
(dp4536
sS'2142'
p4537
(dp4538
Veverything
p4539
g4
sVmatter
p4540
g4
ssS'2141'
p4541
(dp4542
Vtuna
p4543
g4
ssS'2140'
p4544
(dp4545
Veveryone
p4546
g8
sVname
p4547
g31
ssS'920'
p4548
(dp4549
Vfood
p4550
g4
ssS'921'
p4551
(dp4552
Vplace
p4553
g4
ssS'922'
p4554
(dp4555
Vbit
p4556
g8
sVservice
p4557
g8
ssS'923'
p4558
(dp4559
Vsurprise
p4560
g4
ssS'924'
p4561
(dp4562
Vroom
p4563
g4
sVmeal
p4564
g4
ssS'925'
p4565
(dp4566
Vservice
p4567
g4
ssS'2149'
p4568
(dp4569
Vfood
p4570
g4
ssS'2148'
p4571
(dp4572
sS'2411'
p4573
(dp4574
Vpopularity
p4575
g4
sVambiance
p4576
g4
sVreputation
p4577
g4
ssS'3276'
p4578
(dp4579
Vservice
p4580
g4
ssS'3277'
p4581
(dp4582
sS'3274'
p4583
(dp4584
Vupper
p4585
g8
sVeast
p4586
g8
sVside
p4587
g8
sVpeople
p4588
g8
ssS'1923'
p4589
(dp4590
Vcase
p4591
g4
ssS'3272'
p4592
(dp4593
Vsake
p4594
g4
sVcollection
p4595
g4
ssS'3273'
p4596
(dp4597
Vsake
p4598
g8
ssS'1926'
p4599
(dp4600
Vvillage
p4601
g4
sVbirthday
p4602
g4
sVnight
p4603
g31
ssS'1927'
p4604
(dp4605
Vsomeone
p4606
g31
ssS'1928'
p4607
(dp4608
sS'1929'
p4609
(dp4610
Vfood
p4611
g4
sVhalibut
p4612
g4
sVsteak
p4613
g4
sVservice
p4614
g4
sVhusband
p4615
g4
ssS'3278'
p4616
(dp4617
Vfood
p4618
g8
sVportioins
p4619
g8
sVquality
p4620
g8
sVrestaurant
p4621
g8
ssS'3279'
p4622
(dp4623
Vprices
p4624
g8
sVway
p4625
g8
ssS'3474'
p4626
(dp4627
Vconversation
p4628
g31
ssS'833'
p4629
(dp4630
Vterminal
p4631
g4
sVspot
p4632
g4
ssS'3476'
p4633
(dp4634
Vplace
p4635
g4
ssS'3477'
p4636
(dp4637
Vfood
p4638
g4
sVatmosphere
p4639
g4
sVspot
p4640
g4
ssS'836'
p4641
(dp4642
sS'3471'
p4643
(dp4644
sS'3472'
p4645
(dp4646
Vreservations
p4647
g8
sVtable
p4648
g8
sVhour
p4649
g8
sVtimes
p4650
g8
ssS'835'
p4651
(dp4652
Vfood
p4653
g31
sVlunch
p4654
g31
ssS'838'
p4655
(dp4656
Vplace
p4657
g8
ssS'839'
p4658
(dp4659
Vplace
p4660
g4
sVarchitecture
p4661
g4
ssS'3478'
p4662
(dp4663
Vperson
p4664
g8
ssS'3479'
p4665
(dp4666
Vfront
p4667
g4
sVeverytime
p4668
g4
ssS'3'
p4669
(dp4670
Veverything
p4671
g8
sVplace
p4672
g8
sVstickler
p4673
g8
sVservice
p4674
g8
sVstaff
p4675
g8
ssS'1986'
p4676
(dp4677
Vthing
p4678
g4
sVservice
p4679
g4
sVshow
p4680
g4
ssS'3319'
p4681
(dp4682
Vwater
p4683
g31
sVkind
p4684
g4
sVservice
p4685
g4
ssS'3318'
p4686
(dp4687
Vtable
p4688
g4
ssS'3313'
p4689
(dp4690
Vbday
p4691
g31
ssS'3315'
p4692
(dp4693
Vfood
p4694
g4
sVprice
p4695
g4
sVevening
p4696
g4
sVservice
p4697
g4
ssS'3314'
p4698
(dp4699
Vhouse
p4700
g4
sVtop
p4701
g4
ssS'3317'
p4702
(dp4703
Vfood
p4704
g4
sVcity
p4705
g4
sVskiline
p4706
g4
sVday
p4707
g4
ssS'3316'
p4708
(dp4709
Vdessert
p4710
g4
ssS'784'
p4711
(dp4712
Vfamilies
p4713
g4
sVtables
p4714
g4
sVsusans
p4715
g4
sVgroup
p4716
g4
sVplace
p4717
g4
ssS'785'
p4718
(dp4719
sS'780'
p4720
(dp4721
Vpenny
p4722
g4
ssS'781'
p4723
(dp4724
Vplace
p4725
g4
ssS'1728'
p4726
(dp4727
Vplace
p4728
g4
ssS'1729'
p4729
(dp4730
Vpizza
p4731
g4
ssS'1727'
p4732
(dp4733
Vtaste
p4734
g4
sVmusic
p4735
g4
sVsaturday
p4736
g4
ssS'1724'
p4737
(dp4738
Vatmosphere
p4739
g4
sVpart
p4740
g4
sVnight
p4741
g4
ssS'788'
p4742
(dp4743
Vplace
p4744
g31
sVlook
p4745
g31
sVreality
p4746
g31
ssS'1723'
p4747
(dp4748
Vfood
p4749
g4
sVfries
p4750
g4
sVspicy
p4751
g4
sVsauce
p4752
g4
ssS'1720'
p4753
(dp4754
Vwannabes
p4755
g4
ssS'1721'
p4756
(dp4757
Vstrike
p4758
g4
sVcity
p4759
g4
sVyear
p4760
g4
sVnight
p4761
g4
ssS'153'
p4762
(dp4763
Vfood
p4764
g4
sVcity
p4765
g4
sVcomfort
p4766
g4
sVplaces
p4767
g4
ssS'3005'
p4768
(dp4769
Vfront
p4770
g31
sVsushi
p4771
g31
sVbar
p4772
g31
ssS'61'
p4773
(dp4774
Vlunch
p4775
g4
sVdinner
p4776
g4
sVdrinks
p4777
g4
sVfriends
p4778
g4
sVspot
p4779
g4
ssS'62'
p4780
(dp4781
Vbeer
p4782
g4
sVbartender
p4783
g4
ssS'2438'
p4784
(dp4785
Vsecret
p4786
g4
ssS'3001'
p4787
(dp4788
Vstaff
p4789
g4
ssS'3000'
p4790
(dp4791
Vreviewer
p4792
g4
sVanything
p4793
g31
sVexperience
p4794
g4
ssS'66'
p4795
(dp4796
Vtheir
p4797
g4
sVfriends
p4798
g4
sVpeople
p4799
g4
ssS'3002'
p4800
(dp4801
Vsushi
p4802
g4
sVtokyo
p4803
g4
ssS'1985'
p4804
(dp4805
Vfare
p4806
g8
sVbotle
p4807
g8
sVroof
p4808
g8
sVwine
p4809
g31
ssS'407'
p4810
(dp4811
Vsushi
p4812
g4
ssS'406'
p4813
(dp4814
Vmouth
p4815
g8
ssS'1582'
p4816
(dp4817
Vrestaurant
p4818
g4
ssS'1583'
p4819
(dp4820
sS'1580'
p4821
(dp4822
Vnew
p4823
g4
sVyork
p4824
g4
sVstaff
p4825
g4
ssS'1581'
p4826
(dp4827
Vcity
p4828
g4
sVtime
p4829
g4
ssS'1586'
p4830
(dp4831
Vfood
p4832
g4
sVlarge
p4833
g4
ssS'405'
p4834
(dp4835
Vsushi
p4836
g4
sVurchin
p4837
g4
sVrestaurant
p4838
g4
ssS'1584'
p4839
(dp4840
Vbest
p4841
g4
ssS'1585'
p4842
(dp4843
sS'159'
p4844
(dp4845
Vfood
p4846
g4
sVplates
p4847
g4
sVvariety
p4848
g4
ssS'1038'
p4849
(dp4850
Vmeal
p4851
g31
sVservice
p4852
g8
ssS'1372'
p4853
(dp4854
Vambience
p4855
g8
sVservice
p4856
g8
ssS'508'
p4857
(dp4858
Vbit
p4859
g4
sVside
p4860
g4
sVfrites
p4861
g4
ssS'509'
p4862
(dp4863
Vservice
p4864
g4
ssS'1032'
p4865
(dp4866
Vfish
p4867
g4
sVsushi
p4868
g4
sVquality
p4869
g4
sVservice
p4870
g4
ssS'1033'
p4871
(dp4872
Vdelivery
p4873
g4
ssS'504'
p4874
(dp4875
Vfood
p4876
g4
sVdecor
p4877
g4
sVlist
p4878
g4
sVwine
p4879
g4
ssS'505'
p4880
(dp4881
Vsteak
p4882
g4
sVclassics
p4883
g4
ssS'502'
p4884
(dp4885
Vfood
p4886
g4
sVvisit
p4887
g4
sVnight
p4888
g4
ssS'1037'
p4889
(dp4890
Vfood
p4891
g8
ssS'500'
p4892
(dp4893
sS'1035'
p4894
(dp4895
Vbite
p4896
g31
ssS'630'
p4897
(dp4898
Vdinner
p4899
g4
sVdrinks
p4900
g4
sVrestaurant
p4901
g4
ssS'1213'
p4902
(dp4903
Vfood
p4904
g8
sVbgel
p4905
g8
sVside
p4906
g8
sVservice
p4907
g8
sVarea
p4908
g8
ssS'1210'
p4909
(dp4910
Vvalue
p4911
g4
ssS'1211'
p4912
(dp4913
Vcity
p4914
g4
sVbagels
p4915
g4
ssS'1216'
p4916
(dp4917
Vbagel
p4918
g4
sVplace
p4919
g4
sVway
p4920
g4
ssS'401'
p4921
(dp4922
Vflower
p4923
g4
sVservice
p4924
g4
ssS'1214'
p4925
(dp4926
Vbagel
p4927
g4
sVstreet
p4928
g4
sVblocks
p4929
g4
sVarea
p4930
g4
ssS'1215'
p4931
(dp4932
Vbagels
p4933
g4
sVplace
p4934
g4
ssS'638'
p4935
(dp4936
Vfood
p4937
g4
sVprices
p4938
g4
sVevening
p4939
g4
sVreasonable
p4940
g4
ssS'639'
p4941
(dp4942
sS'1218'
p4943
(dp4944
Vbagel
p4945
g31
sVcourse
p4946
g31
sVatmosphere
p4947
g31
sVplace
p4948
g8
sVhour
p4949
g8
ssS'1376'
p4950
(dp4951
Vweek
p4952
g4
ssS'2416'
p4953
(dp4954
Vnyc
p4955
g4
sVvillage
p4956
g4
sVok
p4957
g4
sVrestaurants
p4958
g4
ssS'2899'
p4959
(dp4960
Vlamb
p4961
g4
sVmeal
p4962
g4
sVbread
p4963
g4
ssS'782'
p4964
(dp4965
Vfood
p4966
g4
sVservice
p4967
g4
ssS'2895'
p4968
(dp4969
Vanyone
p4970
g4
sVdining
p4971
g4
sVplace
p4972
g4
sVvalue
p4973
g4
sVexperience
p4974
g4
ssS'2894'
p4975
(dp4976
Vfood
p4977
g4
sVplace
p4978
g4
ssS'2897'
p4979
(dp4980
Vcity
p4981
g4
sVdecor
p4982
g4
sVrestaurant
p4983
g4
sVfood
p4984
g4
sVambiance
p4985
g4
sVyork
p4986
g4
sVnew
p4987
g4
ssS'2896'
p4988
(dp4989
Vfood
p4990
g4
sVdinner
p4991
g4
sVambiance
p4992
g4
ssS'2891'
p4993
(dp4994
Vfood
p4995
g4
sVexperience
p4996
g4
sVyears
p4997
g4
sVdining
p4998
g4
sVquality
p4999
g4
sVwine
p5000
g4
ssS'2890'
p5001
(dp5002
Vnyc
p5003
g4
sVrestaurant
p5004
g4
ssS'2893'
p5005
(dp5006
Vstaff
p5007
g4
sVwork
p5008
g4
sVgroup
p5009
g4
sVsaturday
p5010
g4
sVpeople
p5011
g4
ssS'2892'
p5012
(dp5013
Vkind
p5014
g4
sVgroup
p5015
g4
sVstaff
p5016
g4
ssS'1454'
p5017
(dp5018
Vdate
p5019
g8
sVmenu
p5020
g8
sVdrawback
p5021
g8
sVitems
p5022
g8
sVpoint
p5023
g8
ssS'1455'
p5024
(dp5025
Vcity
p5026
g4
sVyork
p5027
g4
sVnew
p5028
g4
sVrestaurant
p5029
g4
ssS'1104'
p5030
(dp5031
Vlife
p5032
g8
sVsauce
p5033
g8
ssS'1105'
p5034
(dp5035
Vspot
p5036
g4
sVneighborhood
p5037
g4
sVyears
p5038
g4
ssS'1102'
p5039
(dp5040
Vtime
p5041
g8
ssS'1103'
p5042
(dp5043
Vnothing
p5044
g8
sVdinner
p5045
g31
ssS'1100'
p5046
(dp5047
Vservice
p5048
g8
sVtimes
p5049
g8
ssS'1101'
p5050
(dp5051
Vglass
p5052
g31
sVwine
p5053
g31
ssS'1458'
p5054
(dp5055
Vdish
p5056
g4
sVchicken
p5057
g4
sVfavorite
p5058
g4
sVwaiters
p5059
g4
sVhalf
p5060
g4
ssS'1459'
p5061
(dp5062
Vziti
p5063
g4
sVmanhattan
p5064
g4
sVfriend
p5065
g4
sVparmesan
p5066
g4
ssS'1108'
p5067
(dp5068
Vhouse
p5069
g4
sVsteakhouse
p5070
g4
ssS'1109'
p5071
(dp5072
Vcity
p5073
g4
sVpotatoes
p5074
g4
ssS'1722'
p5075
(dp5076
Vbeautification
p5077
g4
sVpart
p5078
g4
sVway
p5079
g4
sVfun
p5080
g4
sVwait
p5081
g4
sVstaff
p5082
g4
ssS'789'
p5083
(dp5084
Vnothing
p5085
g8
sVmenu
p5086
g8
ssS'1357'
p5087
(dp5088
Vattitude
p5089
g4
sVspot
p5090
g4
ssS'1576'
p5091
(dp5092
Vplace
p5093
g8
ssS'959'
p5094
(dp5095
Vatmosphere
p5096
g4
sVservice
p5097
g4
ssS'958'
p5098
(dp5099
Vlamb
p5100
g4
sVwine
p5101
g4
ssS'2794'
p5102
(dp5103
Vcry
p5104
g31
sVchocolate
p5105
g31
ssS'216'
p5106
(dp5107
Vspot
p5108
g4
ssS'217'
p5109
(dp5110
Vnight
p5111
g4
sVbirthday
p5112
g4
sVboyfriend
p5113
g4
ssS'214'
p5114
(dp5115
Vwaitstaff
p5116
g4
ssS'215'
p5117
(dp5118
Vlist
p5119
g31
sVwine
p5120
g31
ssS'212'
p5121
(dp5122
Vmenu
p5123
g4
sVcaviar
p5124
g4
sVrest
p5125
g4
sVchance
p5126
g4
sVline
p5127
g4
sVvarietys
p5128
g4
ssS'213'
p5129
(dp5130
Vwater
p5131
g31
ssS'210'
p5132
(dp5133
Vrestaurant
p5134
g4
ssS'211'
p5135
(dp5136
Vfood
p5137
g31
sVmoney
p5138
g31
sVservice
p5139
g31
ssS'218'
p5140
(dp5141
Vsecond
p5142
g4
sVcaviar
p5143
g4
ssS'3094'
p5144
(dp5145
Vanything
p5146
g31
ssS'957'
p5147
(dp5148
Vfood
p5149
g4
sVmenu
p5150
g4
sVplaces
p5151
g4
sVbrassiere
p5152
g4
ssS'956'
p5153
(dp5154
Vfood
p5155
g4
ssS'939'
p5156
(dp5157
Vfood
p5158
g4
ssS'4'
p5159
(dp5160
Vdate
p5161
g4
sVgreat
p5162
g4
sVbrunch
p5163
g4
ssS'3489'
p5164
(dp5165
Vfood
p5166
g4
ssS'3488'
p5167
(dp5168
Vowners
p5169
g8
sVwaiters
p5170
g8
ssS'3481'
p5171
(dp5172
Vcustomers
p5173
g8
sVmanhattan
p5174
g8
sVscene
p5175
g8
ssS'3480'
p5176
(dp5177
sS'3483'
p5178
(dp5179
Vwaterbug
p5180
g31
sVdinner
p5181
g31
sVwork
p5182
g8
ssS'3482'
p5183
(dp5184
Vfood
p5185
g4
sVtable
p5186
g4
ssS'3487'
p5187
(dp5188
Vnyc
p5189
g8
sVlife
p5190
g8
sVplace
p5191
g8
sVdream
p5192
g8
sVwaterbugs
p5193
g8
ssS'938'
p5194
(dp5195
Vfood
p5196
g4
sVvalue
p5197
g4
sVservice
p5198
g4
sVeverytime
p5199
g4
ssS'2474'
p5200
(dp5201
Vfood
p5202
g31
sVdish
p5203
g8
sVsteak
p5204
g31
sVstuff
p5205
g4
ssS'3649'
p5206
(dp5207
Vbar
p5208
g31
sVfriends
p5209
g8
sVbartender
p5210
g31
ssS'3648'
p5211
(dp5212
Vrestaurant
p5213
g4
ssS'3647'
p5214
(dp5215
sS'3646'
p5216
(dp5217
sS'3645'
p5218
(dp5219
Vdates
p5220
g4
sVfriends
p5221
g4
ssS'3644'
p5222
(dp5223
sS'3643'
p5224
(dp5225
Vcrowd
p5226
g4
ssS'3642'
p5227
(dp5228
Vfood
p5229
g4
sVservice
p5230
g4
ssS'3641'
p5231
(dp5232
Vplace
p5233
g4
ssS'3640'
p5234
(dp5235
Vplace
p5236
g4
ssS'2550'
p5237
(dp5238
sS'2551'
p5239
(dp5240
sS'2553'
p5241
(dp5242
Vtoninos
p5243
g8
sVneighborhood
p5244
g8
sVpizza
p5245
g8
ssS'2554'
p5246
(dp5247
Vpizza
p5248
g4
ssS'2555'
p5249
(dp5250
Vservice
p5251
g4
sVdelivery
p5252
g4
sVtastes
p5253
g4
sVway
p5254
g4
sVtime
p5255
g4
sVprices
p5256
g4
sVpizza
p5257
g4
ssS'3004'
p5258
(dp5259
Vplate
p5260
g4
sVfish
p5261
g4
sVsushi
p5262
g4
sVpieces
p5263
g31
sVplace
p5264
g4
sVyork
p5265
g4
sVnew
p5266
g4
ssS'2558'
p5267
(dp5268
Vsort
p5269
g4
sVtomato
p5270
g4
sVcrust
p5271
g4
sVspecials
p5272
g4
sVjob
p5273
g4
sVpizzeria
p5274
g4
sVsauce
p5275
g4
sVpizza
p5276
g4
ssS'2559'
p5277
(dp5278
sS'2396'
p5279
(dp5280
Vfun
p5281
g4
sVatmosphere
p5282
g4
sVplace
p5283
g4
ssS'2397'
p5284
(dp5285
Vlunch
p5286
g31
sVdinner
p5287
g31
sVtimes
p5288
g31
ssS'2394'
p5289
(dp5290
Vminutes
p5291
g8
sVwait
p5292
g8
ssS'2395'
p5293
(dp5294
Vwait
p5295
g31
ssS'2392'
p5296
(dp5297
Vfood
p5298
g4
sVthai
p5299
g4
sVappetizers
p5300
g4
ssS'2393'
p5301
(dp5302
Vminutes
p5303
g4
sVpeople
p5304
g4
ssS'2390'
p5305
(dp5306
Vdish
p5307
g8
sVitem
p5308
g8
sVsum
p5309
g8
ssS'2391'
p5310
(dp5311
Vfood
p5312
g4
ssS'2398'
p5313
(dp5314
Vspecials
p5315
g4
sVlunch
p5316
g4
sVstrength
p5317
g4
ssS'65'
p5318
(dp5319
Vheartland
p5320
g4
sVdisappointed
p5321
g4
sVyears
p5322
g4
ssS'2778'
p5323
(dp5324
Vaverage
p5325
g8
sVservice
p5326
g8
ssS'2779'
p5327
(dp5328
Vwaiter
p5329
g31
sVitems
p5330
g31
sVappetizers
p5331
g31
sVgroup
p5332
g31
ssS'3003'
p5333
(dp5334
Vfish
p5335
g4
sVsushi
p5336
g4
sVwasabi
p5337
g4
sVchef
p5338
g4
sVperfection
p5339
g4
sVsauce
p5340
g4
ssS'2770'
p5341
(dp5342
Vreview
p5343
g8
sVplace
p5344
g8
sVfirst
p5345
g8
ssS'2771'
p5346
(dp5347
Vconversation
p5348
g4
sVtable
p5349
g4
ssS'2772'
p5350
(dp5351
Vtables
p5352
g8
sVrestaurant
p5353
g8
sVmenu
p5354
g8
sVlist
p5355
g8
sVway
p5356
g8
sVwine
p5357
g8
ssS'2773'
p5358
(dp5359
Vselection
p5360
g8
sVwines
p5361
g8
ssS'2774'
p5362
(dp5363
Vprice
p5364
g8
sVservice
p5365
g8
ssS'2777'
p5366
(dp5367
Vfood
p5368
g4
sVaverage
p5369
g4
sVdeficiencies
p5370
g4
sVfactor
p5371
g4
ssS'3166'
p5372
(dp5373
Vside
p5374
g4
ssS'3167'
p5375
(dp5376
Vbagel
p5377
g31
sVbagels
p5378
g31
sVexperience
p5379
g31
ssS'3165'
p5380
(dp5381
Vtoaster
p5382
g8
ssS'1851'
p5383
(dp5384
Vpar
p5385
g31
sVservice
p5386
g31
ssS'1852'
p5387
(dp5388
Vfood
p5389
g31
sVcomplaint
p5390
g31
ssS'1853'
p5391
(dp5392
Vdish
p5393
g31
sVflavor
p5394
g31
sVsalmon
p5395
g31
sVprice
p5396
g31
ssS'1854'
p5397
(dp5398
Vfood
p5399
g8
ssS'1855'
p5400
(dp5401
Vhusband
p5402
g4
ssS'1856'
p5403
(dp5404
Vglass
p5405
g4
ssS'1857'
p5406
(dp5407
Vdrink
p5408
g31
sVspace
p5409
g4
ssS'2172'
p5410
(dp5411
Vbagels
p5412
g31
ssS'2173'
p5413
(dp5414
Vave
p5415
g4
sVspot
p5416
g4
sVworth
p5417
g4
ssS'2170'
p5418
(dp5419
Vstaff
p5420
g4
ssS'2171'
p5421
(dp5422
Vfood
p5423
g4
ssS'2176'
p5424
(dp5425
sS'2177'
p5426
(dp5427
sS'915'
p5428
(dp5429
Vselection
p5430
g4
ssS'914'
p5431
(dp5432
Vtime
p5433
g8
ssS'2178'
p5434
(dp5435
Vbagel
p5436
g4
sVeverything
p5437
g4
sVfavorite
p5438
g4
sVbagles
p5439
g4
ssS'916'
p5440
(dp5441
Vfood
p5442
g4
sVdishes
p5443
g4
ssS'911'
p5444
(dp5445
Vfood
p5446
g8
sVselection
p5447
g8
sVfat
p5448
g8
sVbelly
p5449
g8
sVexperience
p5450
g8
ssS'910'
p5451
(dp5452
Vservice
p5453
g4
ssS'913'
p5454
(dp5455
Vconversation
p5456
g8
sVvoices
p5457
g4
sVdecour
p5458
g4
sVrestaurant
p5459
g4
ssS'912'
p5460
(dp5461
Vtop
p5462
g4
sVselection
p5463
g4
sVlist
p5464
g4
sVwine
p5465
g4
ssS'2604'
p5466
(dp5467
Vplace
p5468
g4
sVl
p5469
g4
sVpizza
p5470
g4
ssS'2605'
p5471
(dp5472
Vcheese
p5473
g4
sVkind
p5474
g4
sVmine
p5475
g4
sVgoat
p5476
g4
ssS'2606'
p5477
(dp5478
Vfriend
p5479
g4
sVpizza
p5480
g4
ssS'2607'
p5481
(dp5482
Vsangria
p5483
g4
sVday
p5484
g4
ssS'2600'
p5485
(dp5486
Vanyone
p5487
g4
sVplace
p5488
g4
ssS'2601'
p5489
(dp5490
sS'2602'
p5491
(dp5492
Vanyone
p5493
g4
sVfamily
p5494
g4
ssS'1420'
p5495
(dp5496
Vbeer
p5497
g8
ssS'2608'
p5498
(dp5499
Vplace
p5500
g8
sVkind
p5501
g8
sVgroup
p5502
g8
ssS'2609'
p5503
(dp5504
sS'3261'
p5505
(dp5506
Vspicy
p5507
g4
ssS'3260'
p5508
(dp5509
Vowner
p5510
g4
ssS'3263'
p5511
(dp5512
Vfood
p5513
g4
sVkai
p5514
g4
ssS'1930'
p5515
(dp5516
Vwaiter
p5517
g31
sVdessert
p5518
g31
sVoccassion
p5519
g31
sVbirthday
p5520
g31
sVanyone
p5521
g4
ssS'3265'
p5522
(dp5523
Vudon
p5524
g8
sVportions
p5525
g8
sVtasting
p5526
g8
sVmenu
p5527
g8
sVappetizers
p5528
g8
sVappetizer
p5529
g8
sVchef
p5530
g8
sVperson
p5531
g8
sVdish
p5532
g8
sVmeal
p5533
g8
ssS'3264'
p5534
(dp5535
Vsauce
p5536
g4
sVcod
p5537
g4
ssS'1935'
p5538
(dp5539
Vgroup
p5540
g31
sVcontract
p5541
g31
sVdinner
p5542
g31
sVdeposit
p5543
g31
sVdate
p5544
g31
sVfl
p5545
g31
ssS'3266'
p5546
(dp5547
Vportion
p5548
g4
sVsomeone
p5549
g4
sVplace
p5550
g4
sVseafood
p5551
g4
ssS'3268'
p5552
(dp5553
Vambience
p5554
g4
ssS'1939'
p5555
(dp5556
Vgem
p5557
g4
sVvillage
p5558
g4
ssS'2051'
p5559
(dp5560
Vwaiters
p5561
g31
sVtimes
p5562
g31
ssS'847'
p5563
(dp5564
Vnew
p5565
g4
sVrestaurant
p5566
g4
sVclubhouse
p5567
g8
sVmeal
p5568
g31
sVroom
p5569
g4
ssS'846'
p5570
(dp5571
Vmenu
p5572
g4
sVmeal
p5573
g4
sVservice
p5574
g4
sVstaff
p5575
g4
ssS'845'
p5576
(dp5577
Vdining
p5578
g4
sVmusic
p5579
g4
sVroom
p5580
g4
ssS'844'
p5581
(dp5582
Vfood
p5583
g4
ssS'843'
p5584
(dp5585
Vfood
p5586
g4
sVatmosphere
p5587
g4
sVservice
p5588
g4
sVanything
p5589
g4
sVrestaurant
p5590
g4
ssS'3462'
p5591
(dp5592
Vdeal
p5593
g4
sVchoice
p5594
g4
ssS'3461'
p5595
(dp5596
sS'3460'
p5597
(dp5598
Vdelivery
p5599
g4
sVvariety
p5600
g4
ssS'3469'
p5601
(dp5602
Vchicken
p5603
g4
sVpad
p5604
g4
ssS'3468'
p5605
(dp5606
Vfood
p5607
g4
sVrestaurant
p5608
g4
ssS'3364'
p5609
(dp5610
Vdate
p5611
g4
sVspot
p5612
g4
ssS'3365'
p5613
(dp5614
Vopera
p5615
g4
sVeverything
p5616
g4
ssS'3361'
p5617
(dp5618
Veverything
p5619
g4
sVrest
p5620
g4
sVmenu
p5621
g4
ssS'2407'
p5622
(dp5623
Vreason
p5624
g8
ssS'1192'
p5625
(dp5626
Veverything
p5627
g4
sVsushi
p5628
g4
sVsauce
p5629
g4
ssS'1739'
p5630
(dp5631
Vservice
p5632
g4
ssS'1738'
p5633
(dp5634
Vstaff
p5635
g4
ssS'1731'
p5636
(dp5637
sS'1730'
p5638
(dp5639
Vmeal
p5640
g4
sVway
p5641
g4
ssS'1733'
p5642
(dp5643
Vdecor
p5644
g4
ssS'1732'
p5645
(dp5646
sS'1735'
p5647
(dp5648
Vcheese
p5649
g31
sVpeople
p5650
g31
ssS'1734'
p5651
(dp5652
Vservice
p5653
g31
ssS'1039'
p5654
(dp5655
Vdecor
p5656
g8
ssS'753'
p5657
(dp5658
Vcustomer
p5659
g4
sVmanager
p5660
g4
sVtime
p5661
g4
ssS'752'
p5662
(dp5663
Vfood
p5664
g4
sVtimes
p5665
g4
ssS'751'
p5666
(dp5667
sS'750'
p5668
(dp5669
Vfood
p5670
g4
sVservice
p5671
g4
ssS'757'
p5672
(dp5673
Vbridge
p5674
g31
sVpeople
p5675
g31
sVfood
p5676
g31
sVchance
p5677
g31
sVplace
p5678
g8
sVlot
p5679
g8
ssS'756'
p5680
(dp5681
sS'755'
p5682
(dp5683
Vrestaurant
p5684
g4
ssS'754'
p5685
(dp5686
Vwaiters
p5687
g4
sVservice
p5688
g4
ssS'759'
p5689
(dp5690
Vfood
p5691
g4
sVblock
p5692
g4
sVgrand
p5693
g4
ssS'758'
p5694
(dp5695
Vfood
p5696
g8
sVny
p5697
g8
sVfusion
p5698
g8
sVlot
p5699
g8
sVplaces
p5700
g8
ssS'1595'
p5701
(dp5702
Vnyc
p5703
g4
sVvisit
p5704
g4
sVmeal
p5705
g4
ssS'3071'
p5706
(dp5707
Vtables
p5708
g4
sVatomosphere
p5709
g4
ssS'1597'
p5710
(dp5711
Vnyc
p5712
g4
sVprice
p5713
g4
sVingredients
p5714
g4
ssS'1596'
p5715
(dp5716
Vcity
p5717
g4
sVrestaurant
p5718
g4
sVdifferences
p5719
g4
sVneapolitan
p5720
g4
sVpreference
p5721
g4
sVhome
p5722
g4
sVpizza
p5723
g4
ssS'2958'
p5724
(dp5725
Vnyc
p5726
g4
ssS'3075'
p5727
(dp5728
Vplace
p5729
g4
ssS'3076'
p5730
(dp5731
sS'1592'
p5732
(dp5733
Vserver
p5734
g4
ssS'2954'
p5735
(dp5736
Vneighborhood
p5737
g4
sVrestaurant
p5738
g31
ssS'2955'
p5739
(dp5740
Vreviews
p5741
g8
sVplace
p5742
g8
ssS'2956'
p5743
(dp5744
Vtimes
p5745
g31
ssS'2957'
p5746
(dp5747
Vfood
p5748
g4
sVbill
p5749
g4
sVwaiters
p5750
g4
ssS'1599'
p5751
(dp5752
Vpizza
p5753
g4
ssS'1598'
p5754
(dp5755
sS'1024'
p5756
(dp5757
Vplace
p5758
g4
sVdrink
p5759
g4
sVfriends
p5760
g4
sVorder
p5761
g4
sVpearls
p5762
g4
ssS'1027'
p5763
(dp5764
Vsake
p5765
g31
sVplate
p5766
g31
sVsushi
p5767
g31
sVorder
p5768
g31
ssS'1031'
p5769
(dp5770
Vfood
p5771
g4
sVamounts
p5772
g4
sVatmosphere
p5773
g4
sVplace
p5774
g4
sVservice
p5775
g4
ssS'1021'
p5776
(dp5777
Vwork
p5778
g8
sVnight
p5779
g8
ssS'1974'
p5780
(dp5781
Vpar
p5782
g8
ssS'1023'
p5783
(dp5784
Vdesserts
p5785
g4
sVdrinks
p5786
g4
ssS'1022'
p5787
(dp5788
Vmini
p5789
g4
sVwaitress
p5790
g4
sVfruits
p5791
g4
ssS'1029'
p5792
(dp5793
Vplate
p5794
g4
sVvariety
p5795
g4
ssS'1028'
p5796
(dp5797
Vportions
p5798
g4
ssS'503'
p5799
(dp5800
Vgod
p5801
g4
sVservice
p5802
g4
ssS'1034'
p5803
(dp5804
Vdelivery
p5805
g4
sVseating
p5806
g4
sVsushi
p5807
g4
sVservice
p5808
g4
ssS'501'
p5809
(dp5810
Vnyc
p5811
g4
sVvisit
p5812
g8
ssS'605'
p5813
(dp5814
sS'1212'
p5815
(dp5816
Vhome
p5817
g8
sVplace
p5818
g8
ssS'607'
p5819
(dp5820
Vplace
p5821
g4
sVfriends
p5822
g4
sVvillage
p5823
g4
ssS'606'
p5824
(dp5825
sS'1209'
p5826
(dp5827
Vbagels
p5828
g4
ssS'1208'
p5829
(dp5830
Vside
p5831
g4
ssS'603'
p5832
(dp5833
Vmenu
p5834
g4
sVservice
p5835
g4
sVitems
p5836
g4
ssS'602'
p5837
(dp5838
Vburger
p5839
g4
sVvillage
p5840
g4
ssS'1205'
p5841
(dp5842
Vcity
p5843
g4
sVsushi
p5844
g4
ssS'1204'
p5845
(dp5846
Vfood
p5847
g31
sVupper
p5848
g8
sVeast
p5849
g31
sVside
p5850
g31
sVrest
p5851
g31
ssS'1207'
p5852
(dp5853
Vtuna
p5854
g4
ssS'1206'
p5855
(dp5856
Vfood
p5857
g4
sVplace
p5858
g8
ssS'609'
p5859
(dp5860
Vstauff
p5861
g4
ssS'1200'
p5862
(dp5863
Vspicy
p5864
g8
sVvariety
p5865
g8
sVroll
p5866
g8
sVperformance
p5867
g8
sVtuna
p5868
g8
sVnori
p5869
g8
ssS'1203'
p5870
(dp5871
Vrestaurant
p5872
g31
ssS'633'
p5873
(dp5874
sS'634'
p5875
(dp5876
Vfood
p5877
g4
sVprices
p5878
g4
sVquality
p5879
g4
sVservice
p5880
g4
ssS'935'
p5881
(dp5882
Vlarge
p5883
g8
sVrice
p5884
g8
ssS'1217'
p5885
(dp5886
Vtown
p5887
g4
sVbagels
p5888
g4
sVplace
p5889
g4
sVblock
p5890
g4
ssS'3108'
p5891
(dp5892
Vfood
p5893
g31
sVcasualness
p5894
g31
ssS'3105'
p5895
(dp5896
Vtimes
p5897
g4
ssS'3106'
p5898
(dp5899
Vhype
p5900
g8
sVrestaurant
p5901
g8
ssS'637'
p5902
(dp5903
Vglass
p5904
g4
sVsurroundings
p5905
g4
sVdining
p5906
g4
ssS'3100'
p5907
(dp5908
Vhour
p5909
g4
ssS'3101'
p5910
(dp5911
sS'3102'
p5912
(dp5913
Vhalf
p5914
g4
sVdrinks
p5915
g4
ssS'3103'
p5916
(dp5917
Vbartender
p5918
g4
sVmanhattan
p5919
g4
ssS'1111'
p5920
(dp5921
Vdrinks
p5922
g4
ssS'1110'
p5923
(dp5924
Vmanager
p5925
g4
sVbartender
p5926
g4
ssS'1113'
p5927
(dp5928
Vcity
p5929
g4
sVrestaurants
p5930
g4
ssS'1112'
p5931
(dp5932
sS'1115'
p5933
(dp5934
Vpiece
p5935
g4
sVfilet
p5936
g4
ssS'1114'
p5937
(dp5938
Vstaff
p5939
g4
ssS'1117'
p5940
(dp5941
Vgelato
p5942
g4
sVdessert
p5943
g4
sVexperience
p5944
g4
sVchocolate
p5945
g4
sVdinner
p5946
g4
sVwhite
p5947
g4
sVbread
p5948
g4
ssS'1116'
p5949
(dp5950
Vgarlic
p5951
g4
ssS'1119'
p5952
(dp5953
Vmenu
p5954
g31
sVthai
p5955
g31
sVpad
p5956
g31
sVplace
p5957
g31
sVsoup
p5958
g31
ssS'1118'
p5959
(dp5960
Vmike
p5961
g4
ssS'1351'
p5962
(dp5963
Vwork
p5964
g4
ssS'1449'
p5965
(dp5966
sS'1448'
p5967
(dp5968
sS'1350'
p5969
(dp5970
sS'78'
p5971
(dp5972
Vvisitor
p5973
g4
sVfamily
p5974
g4
sVbusiness
p5975
g4
sVgem
p5976
g4
sVyears
p5977
g4
ssS'2401'
p5978
(dp5979
Vplace
p5980
g4
ssS'460'
p5981
(dp5982
Vgem
p5983
g4
ssS'463'
p5984
(dp5985
sS'489'
p5986
(dp5987
Vnyc
p5988
g4
sVyears
p5989
g4
ssS'488'
p5990
(dp5991
Vspace
p5992
g31
ssS'487'
p5993
(dp5994
Vaddition
p5995
g4
ssS'486'
p5996
(dp5997
Vbeef
p5998
g4
ssS'485'
p5999
(dp6000
Vplace
p6001
g4
ssS'484'
p6002
(dp6003
Vfood
p6004
g31
ssS'483'
p6005
(dp6006
Vsandwich
p6007
g4
sVbeef
p6008
g4
sVplaces
p6009
g4
ssS'482'
p6010
(dp6011
Vplace
p6012
g4
ssS'481'
p6013
(dp6014
Vgallery
p6015
g4
ssS'480'
p6016
(dp6017
Vwaitresses
p6018
g4
sVservice
p6019
g4
ssS'790'
p6020
(dp6021
Vfood
p6022
g31
ssS'695'
p6023
(dp6024
Vvisit
p6025
g8
ssS'723'
p6026
(dp6027
Vbirthday
p6028
g4
sVfriend
p6029
g4
ssS'124'
p6030
(dp6031
Vfood
p6032
g4
ssS'992'
p6033
(dp6034
Vfriends
p6035
g4
sVkind
p6036
g4
sVplace
p6037
g4
sVsecret
p6038
g4
ssS'2898'
p6039
(dp6040
Vcourse
p6041
g4
sVportion
p6042
g31
ssS'3665'
p6043
(dp6044
Vfeel
p6045
g4
sVdecor
p6046
g4
sVchance
p6047
g4
sVrestaurant
p6048
g4
ssS'199'
p6049
(dp6050
Vweek
p6051
g31
sVmix
p6052
g31
sVcougars
p6053
g31
ssS'198'
p6054
(dp6055
Vodd
p6056
g4
sVplace
p6057
g4
sVcrowd
p6058
g4
ssS'2289'
p6059
(dp6060
Vservice
p6061
g4
sVresturant
p6062
g4
ssS'195'
p6063
(dp6064
Vtable
p6065
g4
sVweather
p6066
g4
ssS'194'
p6067
(dp6068
Vreservations
p6069
g31
sVtimes
p6070
g31
ssS'197'
p6071
(dp6072
Vtimes
p6073
g31
sVpeople
p6074
g31
ssS'196'
p6075
(dp6076
Vbathroom
p6077
g8
sVstaff
p6078
g8
ssS'191'
p6079
(dp6080
Vcourse
p6081
g31
sVseats
p6082
g31
ssS'190'
p6083
(dp6084
Vanyone
p6085
g4
sVplace
p6086
g8
ssS'193'
p6087
(dp6088
Vfood
p6089
g4
ssS'192'
p6090
(dp6091
Vtimes
p6092
g4
sVtime
p6093
g4
ssS'3679'
p6094
(dp6095
Vplace
p6096
g4
ssS'3672'
p6097
(dp6098
Vdinner
p6099
g31
sVsushi
p6100
g31
sVbar
p6101
g31
sVstaff
p6102
g31
ssS'3670'
p6103
(dp6104
Vcourse
p6105
g31
sVbread
p6106
g31
sVwine
p6107
g31
sVglass
p6108
g31
sVappetizer
p6109
g31
ssS'3671'
p6110
(dp6111
Vtable
p6112
g8
sVcats
p6113
g8
sVthing
p6114
g8
ssS'3676'
p6115
(dp6116
Vpita
p6117
g4
sVtapas
p6118
g4
sVbread
p6119
g4
sVwine
p6120
g4
ssS'3677'
p6121
(dp6122
Vcheese
p6123
g4
sVfondue
p6124
g4
sVtable
p6125
g4
sVplate
p6126
g4
sVwine
p6127
g4
ssS'3675'
p6128
(dp6129
Vhusband
p6130
g4
sVeverytime
p6131
g4
ssS'2547'
p6132
(dp6133
Vchef
p6134
g31
sVspecials
p6135
g31
ssS'2546'
p6136
(dp6137
Vdelivery
p6138
g4
sVplace
p6139
g4
sVgnochi
p6140
g4
sVtonino
p6141
g4
ssS'2545'
p6142
(dp6143
sS'2544'
p6144
(dp6145
Vneighborhood
p6146
g8
sVcabaret
p6147
g8
sVdoor
p6148
g8
sVmusic
p6149
g8
ssS'2549'
p6150
(dp6151
Vmile
p6152
g4
sVeveryone
p6153
g4
ssS'2548'
p6154
(dp6155
Vdelivery
p6156
g4
sVknots
p6157
g4
sVpizza
p6158
g4
ssS'1456'
p6159
(dp6160
Vvilla
p6161
g4
sVfood
p6162
g4
sVexperience
p6163
g4
sVdining
p6164
g4
sVprices
p6165
g4
sVrestaurants
p6166
g4
ssS'2381'
p6167
(dp6168
sS'2380'
p6169
(dp6170
Vreviews
p6171
g4
sVplace
p6172
g4
sVplaces
p6173
g4
sVpeople
p6174
g4
ssS'2382'
p6175
(dp6176
sS'2385'
p6177
(dp6178
Vtaste
p6179
g4
ssS'2384'
p6180
(dp6181
Vrice
p6182
g4
ssS'2387'
p6183
(dp6184
Vsum
p6185
g31
ssS'2386'
p6186
(dp6187
Vbit
p6188
g31
sVsum
p6189
g31
ssS'2389'
p6190
(dp6191
Vportions
p6192
g8
sVdishes
p6193
g31
sVfood
p6194
g31
sVsum
p6195
g31
sVhey
p6196
g8
sVdish
p6197
g8
ssS'2388'
p6198
(dp6199
sS'3580'
p6200
(dp6201
Vfood
p6202
g8
ssS'3581'
p6203
(dp6204
Vcheeseburgers
p6205
g4
ssS'3582'
p6206
(dp6207
Vbun
p6208
g31
ssS'2768'
p6209
(dp6210
Vtables
p6211
g4
sVservice
p6212
g4
ssS'3584'
p6213
(dp6214
sS'3585'
p6215
(dp6216
Vsandwich
p6217
g4
sVroll
p6218
g4
sVpastrami
p6219
g4
ssS'3587'
p6220
(dp6221
Vfood
p6222
g31
sVwife
p6223
g31
sVyork
p6224
g31
sVyears
p6225
g31
ssS'3588'
p6226
(dp6227
Vbit
p6228
g8
sVyork
p6229
g8
sVpeople
p6230
g8
ssS'3589'
p6231
(dp6232
sS'2767'
p6233
(dp6234
Vlamb
p6235
g4
sVvinegar
p6236
g4
ssS'2766'
p6237
(dp6238
Vfood
p6239
g4
sVspecials
p6240
g4
sVdishes
p6241
g4
ssS'2765'
p6242
(dp6243
Vtop
p6244
g4
sVtrattoria
p6245
g4
sVlist
p6246
g4
sVmanhattan
p6247
g4
sVrestaurant
p6248
g4
ssS'2764'
p6249
(dp6250
sS'902'
p6251
(dp6252
Vplace
p6253
g4
sVideas
p6254
g4
ssS'903'
p6255
(dp6256
Vveyr
p6257
g4
ssS'900'
p6258
(dp6259
Vinterior
p6260
g4
ssS'901'
p6261
(dp6262
Vlook
p6263
g8
sVsite
p6264
g8
sVrestaurant
p6265
g8
ssS'906'
p6266
(dp6267
Vchance
p6268
g31
sVdinner
p6269
g31
ssS'907'
p6270
(dp6271
sS'904'
p6272
(dp6273
Vair
p6274
g31
ssS'905'
p6275
(dp6276
Vfood
p6277
g4
sVservice
p6278
g4
ssS'1843'
p6279
(dp6280
Vpoints
p6281
g4
ssS'1842'
p6282
(dp6283
Vinside
p6284
g8
sVthalia
p6285
g8
ssS'1841'
p6286
(dp6287
sS'909'
p6288
(dp6289
Vweek
p6290
g31
sVmenu
p6291
g31
sVny
p6292
g31
sVrestaurant
p6293
g31
ssS'1846'
p6294
(dp6295
Vfood
p6296
g8
sVbill
p6297
g8
sVside
p6298
g8
sVnight
p6299
g8
ssS'1845'
p6300
(dp6301
Vsalmon
p6302
g31
sVservice
p6303
g31
ssS'1844'
p6304
(dp6305
Vfood
p6306
g4
sVeverything
p6307
g4
sVdecor
p6308
g4
sVdrinks
p6309
g4
sVpeople
p6310
g4
ssS'3250'
p6311
(dp6312
Vreservation
p6313
g8
sVages
p6314
g8
ssS'2169'
p6315
(dp6316
Vbagels
p6317
g4
ssS'2168'
p6318
(dp6319
sS'2165'
p6320
(dp6321
Vbagel
p6322
g31
ssS'2164'
p6323
(dp6324
Vbit
p6325
g8
sVgem
p6326
g8
ssS'2167'
p6327
(dp6328
Vbagel
p6329
g31
sVcheese
p6330
g31
ssS'2166'
p6331
(dp6332
Vinterior
p6333
g4
ssS'2161'
p6334
(dp6335
Vlox
p6336
g4
ssS'2160'
p6337
(dp6338
Vselection
p6339
g4
sVsalads
p6340
g4
sVcream
p6341
g4
ssS'2163'
p6342
(dp6343
Vbagel
p6344
g31
sVnew
p6345
g4
sVyork
p6346
g4
sVtime
p6347
g4
ssS'2162'
p6348
(dp6349
sS'2617'
p6350
(dp6351
sS'2616'
p6352
(dp6353
sS'2615'
p6354
(dp6355
Vtrip
p6356
g4
ssS'2614'
p6357
(dp6358
Vtown
p6359
g4
sVnew
p6360
g8
sVplace
p6361
g8
sVtrip
p6362
g8
sVyork
p6363
g8
ssS'2611'
p6364
(dp6365
Vsandwich
p6366
g4
sVreuben
p6367
g4
ssS'2610'
p6368
(dp6369
Vtoppings
p6370
g4
sVsquare
p6371
g4
sVplace
p6372
g4
sVpizza
p6373
g4
ssS'1946'
p6374
(dp6375
Vplaces
p6376
g4
sVvillage
p6377
g4
ssS'1947'
p6378
(dp6379
Vfood
p6380
g4
sVworld
p6381
g4
sVambiance
p6382
g4
sVstaff
p6383
g4
ssS'3298'
p6384
(dp6385
Vfood
p6386
g4
sVnothing
p6387
g4
sVpart
p6388
g4
ssS'3299'
p6389
(dp6390
Vquiter
p6391
g31
sVfamily
p6392
g4
sVrestaurants
p6393
g31
ssS'1908'
p6394
(dp6395
Vreservations
p6396
g31
ssS'1909'
p6397
(dp6398
Vdining
p6399
g4
sVexperience
p6400
g4
ssS'3294'
p6401
(dp6402
Vhouse
p6403
g4
sVbirthday
p6404
g4
ssS'1907'
p6405
(dp6406
Vfood
p6407
g4
sVwaitress
p6408
g4
sVwine
p6409
g4
ssS'1904'
p6410
(dp6411
Vatmosphere
p6412
g4
ssS'3297'
p6413
(dp6414
Vhouse
p6415
g4
ssS'3290'
p6416
(dp6417
Vexperience
p6418
g4
ssS'1903'
p6419
(dp6420
Vhusbands
p6421
g4
ssS'3292'
p6422
(dp6423
Vnotch
p6424
g4
sVservice
p6425
g4
ssS'3293'
p6426
(dp6427
sS'3452'
p6428
(dp6429
Vfriends
p6430
g4
ssS'855'
p6431
(dp6432
sS'856'
p6433
(dp6434
Vcuisine
p6435
g4
sVdishes
p6436
g4
sVfood
p6437
g4
sVfish
p6438
g4
sVchef
p6439
g4
sVexecution
p6440
g4
sVfine
p6441
g4
sVkitchen
p6442
g4
ssS'3451'
p6443
(dp6444
Vwine
p6445
g31
sVdeal
p6446
g31
sVrestaurant
p6447
g31
ssS'3456'
p6448
(dp6449
Vpersonality
p6450
g4
sVstaff
p6451
g4
ssS'3457'
p6452
(dp6453
Vmoment
p6454
g8
sVplace
p6455
g8
ssS'3454'
p6456
(dp6457
Vive
p6458
g31
sVdinner
p6459
g31
ssS'3455'
p6460
(dp6461
Vbank
p6462
g4
ssS'3458'
p6463
(dp6464
Vexperience
p6465
g4
ssS'3459'
p6466
(dp6467
Vthai
p6468
g4
sVstreets
p6469
g4
sVjoya
p6470
g4
sVrestaurant
p6471
g4
ssS'858'
p6472
(dp6473
Vreservation
p6474
g4
sVseating
p6475
g4
sVminutes
p6476
g4
sVservice
p6477
g4
ssS'859'
p6478
(dp6479
Vsoup
p6480
g4
sVbartender
p6481
g4
ssS'1186'
p6482
(dp6483
Vtable
p6484
g8
sVminutes
p6485
g4
ssS'425'
p6486
(dp6487
Vprice
p6488
g4
sVservice
p6489
g4
ssS'740'
p6490
(dp6491
Vmanager
p6492
g8
sVbill
p6493
g8
sVgroup
p6494
g8
sVanything
p6495
g31
ssS'741'
p6496
(dp6497
Vpotatoes
p6498
g4
sVtuna
p6499
g4
ssS'742'
p6500
(dp6501
Vworld
p6502
g4
sVatmosphere
p6503
g4
sVevening
p6504
g4
sVavenue
p6505
g4
ssS'743'
p6506
(dp6507
sS'744'
p6508
(dp6509
Vservice
p6510
g4
ssS'745'
p6511
(dp6512
Vvisit
p6513
g8
ssS'746'
p6514
(dp6515
Vrestaurant
p6516
g31
ssS'747'
p6517
(dp6518
Vestablishment
p6519
g31
ssS'748'
p6520
(dp6521
Vnothing
p6522
g8
ssS'749'
p6523
(dp6524
Vny
p6525
g31
sVevening
p6526
g4
sVplace
p6527
g4
ssS'1799'
p6528
(dp6529
Vwaitress
p6530
g31
ssS'3063'
p6531
(dp6532
sS'3062'
p6533
(dp6534
Vbistro
p6535
g4
ssS'3061'
p6536
(dp6537
Vbistros
p6538
g8
sVmoney
p6539
g8
sVexperience
p6540
g8
sVdining
p6541
g8
sVamount
p6542
g8
sVlot
p6543
g8
ssS'3060'
p6544
(dp6545
Vbill
p6546
g8
ssS'3067'
p6547
(dp6548
Vfood
p6549
g4
ssS'2949'
p6550
(dp6551
Vsomeone
p6552
g8
sVroom
p6553
g8
ssS'3064'
p6554
(dp6555
sS'2947'
p6556
(dp6557
Vplace
p6558
g8
ssS'2946'
p6559
(dp6560
Vmenu
p6561
g4
sVowners
p6562
g4
sVwine
p6563
g4
sVlist
p6564
g4
sVstaff
p6565
g4
ssS'2945'
p6566
(dp6567
Veverything
p6568
g8
sVroom
p6569
g4
sVplate
p6570
g4
ssS'2944'
p6571
(dp6572
Vmenu
p6573
g4
sVtimes
p6574
g4
ssS'2943'
p6575
(dp6576
sS'2942'
p6577
(dp6578
Vexperience
p6579
g4
ssS'2941'
p6580
(dp6581
Vselection
p6582
g4
sVend
p6583
g4
sVwines
p6584
g4
ssS'2940'
p6585
(dp6586
Vofferng
p6587
g4
sVtables
p6588
g4
sVservice
p6589
g4
sVdessert
p6590
g4
ssS'1050'
p6591
(dp6592
Vcuisine
p6593
g4
sVservice
p6594
g4
ssS'1051'
p6595
(dp6596
Vvisit
p6597
g8
sVrestaurants
p6598
g31
ssS'1052'
p6599
(dp6600
Vcheese
p6601
g4
sVbagels
p6602
g4
ssS'1053'
p6603
(dp6604
sS'1054'
p6605
(dp6606
Vtoaster
p6607
g8
ssS'1055'
p6608
(dp6609
Vbagels
p6610
g4
sVway
p6611
g4
ssS'1056'
p6612
(dp6613
Vprice
p6614
g4
sVzabars
p6615
g4
ssS'1057'
p6616
(dp6617
Vservice
p6618
g8
ssS'1058'
p6619
(dp6620
sS'1059'
p6621
(dp6622
Vbagels
p6623
g4
ssS'717'
p6624
(dp6625
Vplace
p6626
g4
sVmeal
p6627
g4
ssS'1692'
p6628
(dp6629
Vnothing
p6630
g8
sVplace
p6631
g8
ssS'1693'
p6632
(dp6633
Vowner
p6634
g31
ssS'1690'
p6635
(dp6636
Vfood
p6637
g8
sVant
p6638
g8
sVeveryone
p6639
g8
ssS'1691'
p6640
(dp6641
Vfood
p6642
g4
ssS'715'
p6643
(dp6644
Vnoodle
p6645
g8
sVdishes
p6646
g8
sVbeef
p6647
g8
sVmenu
p6648
g8
sVsoup
p6649
g8
sVnothing
p6650
g8
sVthai
p6651
g8
ssS'1698'
p6652
(dp6653
Vhouse
p6654
g4
sVtimes
p6655
g4
ssS'1699'
p6656
(dp6657
Vdumplings
p6658
g4
ssS'1278'
p6659
(dp6660
Vpizza
p6661
g4
ssS'1279'
p6662
(dp6663
Vawsome
p6664
g4
sVpizza
p6665
g4
ssS'618'
p6666
(dp6667
Vperson
p6668
g4
sVplace
p6669
g4
ssS'619'
p6670
(dp6671
Vjekyll
p6672
g4
sVhusband
p6673
g4
sVsurprise
p6674
g4
ssS'1270'
p6675
(dp6676
Vfood
p6677
g8
ssS'613'
p6678
(dp6679
Vsomething
p6680
g4
ssS'1272'
p6681
(dp6682
Vfood
p6683
g8
sVdoor
p6684
g8
ssS'611'
p6685
(dp6686
Vfood
p6687
g4
sVcomfort
p6688
g4
sVportions
p6689
g4
ssS'616'
p6690
(dp6691
sS'1275'
p6692
(dp6693
Vnothing
p6694
g8
ssS'614'
p6695
(dp6696
Vfun
p6697
g4
sVtype
p6698
g4
sVlot
p6699
g4
sVentertainment
p6700
g4
ssS'1277'
p6701
(dp6702
sS'1795'
p6703
(dp6704
Vservers
p6705
g8
ssS'1794'
p6706
(dp6707
Vdrinks
p6708
g8
ssS'3119'
p6709
(dp6710
Vneighborhood
p6711
g4
ssS'3118'
p6712
(dp6713
Veverything
p6714
g4
sVdrinks
p6715
g4
ssS'3117'
p6716
(dp6717
Vfood
p6718
g4
ssS'3116'
p6719
(dp6720
Vfeat
p6721
g4
sVwaitstaff
p6722
g4
sVquarters
p6723
g4
ssS'3115'
p6724
(dp6725
Vminutes
p6726
g4
ssS'3114'
p6727
(dp6728
Vtable
p6729
g4
sVwait
p6730
g4
ssS'3113'
p6731
(dp6732
Vline
p6733
g31
sVmary
p6734
g31
ssS'3112'
p6735
(dp6736
Vfood
p6737
g31
ssS'3111'
p6738
(dp6739
Vservice
p6740
g31
ssS'1472'
p6741
(dp6742
Vrestaurants
p6743
g31
ssS'1473'
p6744
(dp6745
Vpizza
p6746
g8
ssS'1470'
p6747
(dp6748
Vway
p6749
g8
sVpizza
p6750
g8
ssS'1471'
p6751
(dp6752
Vtoppings
p6753
g31
ssS'1477'
p6754
(dp6755
Vhuge
p6756
g31
sVportions
p6757
g31
sVpeople
p6758
g31
sVthings
p6759
g31
sVappetizer
p6760
g31
sVperson
p6761
g31
ssS'1474'
p6762
(dp6763
Vsomeone
p6764
g4
sVright
p6765
g4
sVpizza
p6766
g4
sVingredients
p6767
g4
ssS'1475'
p6768
(dp6769
Vdisappointment
p6770
g4
ssS'1478'
p6771
(dp6772
Vvalues
p6773
g4
sVmoney
p6774
g4
sVoffers
p6775
g4
sVavenue
p6776
g4
sVrestaurants
p6777
g4
ssS'1479'
p6778
(dp6779
sS'3336'
p6780
(dp6781
Vfortune
p6782
g4
ssS'1304'
p6783
(dp6784
Vfood
p6785
g31
sVservice
p6786
g31
ssS'1305'
p6787
(dp6788
Vfood
p6789
g8
sVmenu
p6790
g8
sVplace
p6791
g8
sVfact
p6792
g8
sVpeople
p6793
g8
ssS'1306'
p6794
(dp6795
Vtime
p6796
g4
ssS'1307'
p6797
(dp6798
Vbit
p6799
g8
ssS'1300'
p6800
(dp6801
Vfriend
p6802
g31
ssS'1301'
p6803
(dp6804
Vfood
p6805
g8
ssS'1302'
p6806
(dp6807
Vfood
p6808
g8
sVprices
p6809
g8
sVservice
p6810
g8
ssS'1303'
p6811
(dp6812
Vprices
p6813
g8
sVny
p6814
g4
sVplaces
p6815
g4
ssS'1497'
p6816
(dp6817
Vwaitress
p6818
g4
ssS'1309'
p6819
(dp6820
Vdate
p6821
g8
ssS'3590'
p6822
(dp6823
Vfood
p6824
g4
sVperson
p6825
g4
ssS'498'
p6826
(dp6827
sS'499'
p6828
(dp6829
Vbeer
p6830
g4
sVsandwich
p6831
g4
sVicy
p6832
g4
sVexperience
p6833
g4
ssS'494'
p6834
(dp6835
Vdogs
p6836
g4
ssS'495'
p6837
(dp6838
Vcarnivore
p6839
g4
ssS'496'
p6840
(dp6841
Vdelis
p6842
g4
sVpbs
p6843
g4
sVarea
p6844
g4
ssS'497'
p6845
(dp6846
Vdeli
p6847
g4
sVnyc
p6848
g4
ssS'490'
p6849
(dp6850
Vnyc
p6851
g4
sVkatz
p6852
g4
sVeast
p6853
g4
sVside
p6854
g4
ssS'491'
p6855
(dp6856
Vrye
p6857
g4
sVjuicy
p6858
g4
sVbeef
p6859
g4
sVbread
p6860
g4
ssS'492'
p6861
(dp6862
Vorder
p6863
g4
ssS'493'
p6864
(dp6865
Vsandwich
p6866
g4
sVcompliment
p6867
g4
ssS'24'
p6868
(dp6869
sS'25'
p6870
(dp6871
Vgreat
p6872
g4
sVevening
p6873
g4
sVwaiter
p6874
g4
sVgroups
p6875
g4
sVsuper
p6876
g4
sVhappy
p6877
g4
ssS'21'
p6878
(dp6879
sS'28'
p6880
(dp6881
Vfood
p6882
g4
ssS'29'
p6883
(dp6884
Vdessert
p6885
g4
sVroom
p6886
g4
ssS'3262'
p6887
(dp6888
sS'1705'
p6889
(dp6890
Vfood
p6891
g4
sVstaples
p6892
g4
sVpoint
p6893
g4
ssS'1601'
p6894
(dp6895
Ventrees
p6896
g4
ssS'1604'
p6897
(dp6898
Vdinner
p6899
g31
ssS'3267'
p6900
(dp6901
Vfood
p6902
g31
sVthings
p6903
g31
sVsomeone
p6904
g31
sVshare
p6905
g31
sVoption
p6906
g31
ssS'7'
p6907
(dp6908
Vnoir
p6909
g8
sVdont
p6910
g8
sVpeople
p6911
g8
ssS'2288'
p6912
(dp6913
Vsoup
p6914
g4
sVnoodle
p6915
g4
sVbeef
p6916
g4
ssS'3664'
p6917
(dp6918
Vrestaurant
p6919
g8
ssS'3667'
p6920
(dp6921
Vservice
p6922
g4
sVfood
p6923
g4
sVmenu
p6924
g4
sVprice
p6925
g4
sVwaitresses
p6926
g4
sVeverything
p6927
g4
ssS'3666'
p6928
(dp6929
Vbar
p6930
g8
sVarea
p6931
g8
ssS'3661'
p6932
(dp6933
Vnight
p6934
g4
ssS'3660'
p6935
(dp6936
Vfusion
p6937
g4
sVstreet
p6938
g4
sVrestaurants
p6939
g4
sVrestaurant
p6940
g4
ssS'3663'
p6941
(dp6942
Vdessert
p6943
g4
sVhouse
p6944
g4
ssS'3662'
p6945
(dp6946
Vdish
p6947
g4
sVspring
p6948
g4
sVrolls
p6949
g4
sVservice
p6950
g4
ssS'2280'
p6951
(dp6952
Vtables
p6953
g4
sVbuck
p6954
g4
sVrestuarant
p6955
g4
ssS'2281'
p6956
(dp6957
Vcuisine
p6958
g8
sVplenty
p6959
g8
ssS'2282'
p6960
(dp6961
Vtown
p6962
g4
sVfellas
p6963
g4
sVrestaurant
p6964
g4
ssS'2283'
p6965
(dp6966
Vtown
p6967
g4
sVonly
p6968
g4
sVrestaurant
p6969
g4
ssS'3669'
p6970
(dp6971
Vwait
p6972
g8
ssS'2285'
p6973
(dp6974
Vfood
p6975
g31
sVchinatown
p6976
g31
ssS'2286'
p6977
(dp6978
Vflushing
p6979
g4
sVrestaurants
p6980
g4
ssS'2287'
p6981
(dp6982
Vtown
p6983
g4
sVsoup
p6984
g4
sVspicy
p6985
g4
sVrice
p6986
g4
sVdrumsticks
p6987
g4
ssS'1605'
p6988
(dp6989
Vtimes
p6990
g31
sVpizza
p6991
g31
sVsalad
p6992
g31
sVappetizer
p6993
g31
ssS'2578'
p6994
(dp6995
Vchoices
p6996
g31
ssS'2579'
p6997
(dp6998
sS'2576'
p6999
(dp7000
Vfood
p7001
g4
sVsalad
p7002
g4
sVrestaurant
p7003
g4
ssS'2577'
p7004
(dp7005
Vdining
p7006
g4
sVquality
p7007
g4
sVrestaurant
p7008
g4
ssS'2574'
p7009
(dp7010
Vingredients
p7011
g4
ssS'2575'
p7012
(dp7013
sS'2572'
p7014
(dp7015
Vsalads
p7016
g4
ssS'2573'
p7017
(dp7018
Vlettuce
p7019
g31
sVsalads
p7020
g4
ssS'2570'
p7021
(dp7022
Vlunch
p7023
g4
sVday
p7024
g4
ssS'2571'
p7025
(dp7026
Vambience
p7027
g4
sVbusiness
p7028
g4
ssS'3690'
p7029
(dp7030
Vchocolate
p7031
g4
ssS'2378'
p7032
(dp7033
Vdinner
p7034
g31
sVservice
p7035
g31
ssS'2379'
p7036
(dp7037
Vreviews
p7038
g31
sVpeople
p7039
g31
ssS'601'
p7040
(dp7041
Vfood
p7042
g4
sVfun
p7043
g4
sVatmosphere
p7044
g4
sVrestaurant
p7045
g4
sVnight
p7046
g4
ssS'2377'
p7047
(dp7048
Vfood
p7049
g8
ssS'2370'
p7050
(dp7051
Vblock
p7052
g4
ssS'2372'
p7053
(dp7054
Vanyone
p7055
g4
sVplace
p7056
g4
ssS'2594'
p7057
(dp7058
Vbedford
p7059
g4
ssS'2595'
p7060
(dp7061
Vherb
p7062
g4
sVgarden
p7063
g4
sVarea
p7064
g4
ssS'2596'
p7065
(dp7066
sS'2597'
p7067
(dp7068
Vfamily
p7069
g4
sVpizza
p7070
g4
ssS'2590'
p7071
(dp7072
Vfood
p7073
g4
sVcuisine
p7074
g4
sVingrediants
p7075
g4
sVrestaurants
p7076
g4
ssS'2591'
p7077
(dp7078
Vtime
p7079
g4
ssS'2592'
p7080
(dp7081
Vfood
p7082
g4
sVlunch
p7083
g31
sVcouple
p7084
g31
sVsaturday
p7085
g4
ssS'2593'
p7086
(dp7087
Vcheese
p7088
g4
sVamount
p7089
g4
sVpizza
p7090
g4
ssS'3599'
p7091
(dp7092
Vcheese
p7093
g8
sVpizza
p7094
g8
ssS'3598'
p7095
(dp7096
Vhorrible
p7097
g8
ssS'2598'
p7098
(dp7099
sS'2599'
p7100
(dp7101
Vplace
p7102
g4
sVservice
p7103
g4
ssS'1874'
p7104
(dp7105
Vdessert
p7106
g8
ssS'1872'
p7107
(dp7108
Vfood
p7109
g4
sVpeople
p7110
g4
sVrestaurant
p7111
g4
ssS'1873'
p7112
(dp7113
Vflavor
p7114
g8
sVsalmon
p7115
g8
sVappetizer
p7116
g8
ssS'1870'
p7117
(dp7118
Vservice
p7119
g4
ssS'1871'
p7120
(dp7121
Vrestaurant
p7122
g4
ssS'600'
p7123
(dp7124
Vtable
p7125
g8
sVchance
p7126
g8
sVdinner
p7127
g8
ssS'1607'
p7128
(dp7129
Vservice
p7130
g4
sVthings
p7131
g31
sVyears
p7132
g4
sVdinner
p7133
g31
sVnight
p7134
g4
sVtable
p7135
g4
sVbit
p7136
g4
ssS'1878'
p7137
(dp7138
Vtown
p7139
g4
sVselection
p7140
g4
sVglass
p7141
g4
sVbottle
p7142
g4
sVreservation
p7143
g4
sVfriends
p7144
g4
sVwine
p7145
g4
ssS'1879'
p7146
(dp7147
Vtable
p7148
g8
sVbar
p7149
g8
ssS'977'
p7150
(dp7151
Vrestaurants
p7152
g31
sVarea
p7153
g31
ssS'182'
p7154
(dp7155
sS'974'
p7156
(dp7157
Vlemon
p7158
g4
sVbeef
p7159
g4
sVrestaurant
p7160
g4
sVtimes
p7161
g4
sVplace
p7162
g4
sVchicken
p7163
g4
sVrice
p7164
g4
ssS'973'
p7165
(dp7166
Vmusic
p7167
g4
sVambiance
p7168
g4
ssS'972'
p7169
(dp7170
Vlots
p7171
g4
sVfact
p7172
g4
sVwaiters
p7173
g4
sVway
p7174
g4
ssS'971'
p7175
(dp7176
Vsauce
p7177
g4
sVchicken
p7178
g4
sVsalmon
p7179
g4
sVcurry
p7180
g4
sVdishes
p7181
g4
ssS'970'
p7182
(dp7183
Vfish
p7184
g4
sVspicing
p7185
g4
ssS'1080'
p7186
(dp7187
Vtea
p7188
g4
ssS'979'
p7189
(dp7190
Vplace
p7191
g4
sVservice
p7192
g4
ssS'978'
p7193
(dp7194
Vfood
p7195
g4
sVyears
p7196
g4
ssS'2118'
p7197
(dp7198
Vpiece
p7199
g4
ssS'2119'
p7200
(dp7201
Vplace
p7202
g4
ssS'180'
p7203
(dp7204
Vside
p7205
g8
ssS'181'
p7206
(dp7207
Vfood
p7208
g4
ssS'186'
p7209
(dp7210
Vambience
p7211
g4
sVlunch
p7212
g4
sVconversation
p7213
g4
ssS'187'
p7214
(dp7215
Vrestaurant
p7216
g31
ssS'184'
p7217
(dp7218
Vkitchen
p7219
g8
ssS'185'
p7220
(dp7221
Vfood
p7222
g31
sVspicy
p7223
g31
ssS'2112'
p7224
(dp7225
Vsaturday
p7226
g4
sVfriend
p7227
g31
ssS'2113'
p7228
(dp7229
Vplace
p7230
g8
sVtime
p7231
g8
ssS'2114'
p7232
(dp7233
Vappetizers
p7234
g31
sVrestaurant
p7235
g31
ssS'2115'
p7236
(dp7237
Vdumplings
p7238
g8
sVmenu
p7239
g8
sVchoices
p7240
g8
sVlot
p7241
g8
sVappetizer
p7242
g8
ssS'2116'
p7243
(dp7244
Vtuna
p7245
g31
sVrolls
p7246
g31
ssS'1559'
p7247
(dp7248
Vfood
p7249
g31
sVturnover
p7250
g31
ssS'2622'
p7251
(dp7252
Vfood
p7253
g4
sVprices
p7254
g4
sVservice
p7255
g4
ssS'2623'
p7256
(dp7257
Vquality
p7258
g4
sVplace
p7259
g4
ssS'2620'
p7260
(dp7261
Vbit
p7262
g8
sVservice
p7263
g8
ssS'2621'
p7264
(dp7265
Vdrinks
p7266
g8
ssS'2627'
p7267
(dp7268
Vambience
p7269
g4
sVservice
p7270
g4
ssS'2624'
p7271
(dp7272
Vplace
p7273
g8
ssS'60'
p7274
(dp7275
sS'1919'
p7276
(dp7277
sS'1918'
p7278
(dp7279
Vfun
p7280
g4
ssS'3289'
p7281
(dp7282
Vrestaurant
p7283
g4
sVplace
p7284
g4
sVyork
p7285
g4
sVarea
p7286
g4
ssS'3288'
p7287
(dp7288
sS'1911'
p7289
(dp7290
Vrange
p7291
g4
sVprice
p7292
g4
sVmeal
p7293
g4
sVwine
p7294
g4
ssS'1910'
p7295
(dp7296
Vfood
p7297
g31
sVbite
p7298
g31
ssS'3285'
p7299
(dp7300
sS'1912'
p7301
(dp7302
sS'3282'
p7303
(dp7304
Vcheese
p7305
g4
sVhome
p7306
g4
ssS'3281'
p7307
(dp7308
Vway
p7309
g8
sVrestaurants
p7310
g8
ssS'3280'
p7311
(dp7312
Vmushrooms
p7313
g4
sVsoup
p7314
g4
ssS'869'
p7315
(dp7316
Vambience
p7317
g4
sVservice
p7318
g4
ssS'868'
p7319
(dp7320
Vreason
p7321
g4
sVtimes
p7322
g4
ssS'189'
p7323
(dp7324
Vsalad
p7325
g8
sVservice
p7326
g8
sVfood
p7327
g8
sVeverything
p7328
g8
sVtime
p7329
g8
sVbread
p7330
g8
sVwait
p7331
g8
ssS'861'
p7332
(dp7333
Vfriend
p7334
g31
sVboyfriend
p7335
g31
ssS'860'
p7336
(dp7337
Vblue
p7338
g31
ssS'863'
p7339
(dp7340
Vfood
p7341
g31
sVstomach
p7342
g31
ssS'862'
p7343
(dp7344
Vdecor
p7345
g4
ssS'865'
p7346
(dp7347
Vdessert
p7348
g4
sVchocolate
p7349
g4
sVworld
p7350
g4
sVbread
p7351
g4
ssS'3440'
p7352
(dp7353
Vprices
p7354
g8
sVseafood
p7355
g4
ssS'3443'
p7356
(dp7357
Vservice
p7358
g4
ssS'3442'
p7359
(dp7360
Vreservation
p7361
g31
sVminutes
p7362
g4
sVsaturday
p7363
g4
sVnight
p7364
g31
ssS'2024'
p7365
(dp7366
Vweek
p7367
g31
sVrestaurant
p7368
g31
ssS'2757'
p7369
(dp7370
sS'2026'
p7371
(dp7372
Vcheese
p7373
g8
sVwine
p7374
g8
ssS'2027'
p7375
(dp7376
Vcity
p7377
g4
sVplaces
p7378
g4
ssS'2020'
p7379
(dp7380
Vdinner
p7381
g31
sVapple
p7382
g4
ssS'2753'
p7383
(dp7384
Vfish
p7385
g8
sVsushi
p7386
g8
sVchef
p7387
g8
sVplace
p7388
g8
sVquality
p7389
g8
sVstaff
p7390
g8
ssS'2751'
p7391
(dp7392
sS'2828'
p7393
(dp7394
sS'2117'
p7395
(dp7396
Vrolls
p7397
g8
sVsashimi
p7398
g31
ssS'2028'
p7399
(dp7400
Vartisanal
p7401
g4
sVsummer
p7402
g4
sVcheese
p7403
g4
sVmenu
p7404
g4
sVnight
p7405
g4
sVfriends
p7406
g4
ssS'2029'
p7407
(dp7408
Vreservation
p7409
g31
sVproblem
p7410
g31
sVtable
p7411
g31
ssS'2829'
p7412
(dp7413
sS'883'
p7414
(dp7415
Vchicken
p7416
g8
sVmeat
p7417
g8
sVpieces
p7418
g8
ssS'882'
p7419
(dp7420
Vfood
p7421
g4
sVatmosphere
p7422
g4
sVambiance
p7423
g4
sVservice
p7424
g4
ssS'881'
p7425
(dp7426
sS'880'
p7427
(dp7428
Vthings
p7429
g4
sVlot
p7430
g4
sVrestaurant
p7431
g4
ssS'887'
p7432
(dp7433
Vtable
p7434
g31
ssS'885'
p7435
(dp7436
Vfood
p7437
g4
sVplace
p7438
g8
sVway
p7439
g4
ssS'884'
p7440
(dp7441
sS'889'
p7442
(dp7443
Vplace
p7444
g8
sVstay
p7445
g8
ssS'888'
p7446
(dp7447
Vnothing
p7448
g31
sVone
p7449
g31
ssS'1340'
p7450
(dp7451
Vnothing
p7452
g31
sVdecor
p7453
g31
ssS'3149'
p7454
(dp7455
Vdish
p7456
g31
sVive
p7457
g31
sVtimes
p7458
g31
ssS'775'
p7459
(dp7460
Vdisappointment
p7461
g8
sVnight
p7462
g8
ssS'774'
p7463
(dp7464
Vbirthday
p7465
g4
sVexperience
p7466
g4
ssS'777'
p7467
(dp7468
Vfood
p7469
g4
sVsum
p7470
g4
sVappetizers
p7471
g4
sVfoods
p7472
g4
sVvariety
p7473
g4
ssS'776'
p7474
(dp7475
Vfood
p7476
g4
ssS'771'
p7477
(dp7478
Vhalf
p7479
g8
sVrestaurant
p7480
g8
sVlobby
p7481
g8
sVhour
p7482
g8
sVarea
p7483
g8
ssS'770'
p7484
(dp7485
Vproblem
p7486
g31
sVminutes
p7487
g31
sVwait
p7488
g31
ssS'773'
p7489
(dp7490
Vdinner
p7491
g31
ssS'772'
p7492
(dp7493
Vtables
p7494
g8
sVdiners
p7495
g31
sVreservations
p7496
g8
ssS'779'
p7497
(dp7498
Vsquare
p7499
g8
sVreservations
p7500
g8
sVlot
p7501
g8
sVtime
p7502
g8
sVreservation
p7503
g8
sVminutes
p7504
g8
sVstaff
p7505
g8
ssS'778'
p7506
(dp7507
Vservice
p7508
g4
ssS'419'
p7509
(dp7510
Vfriend
p7511
g31
sVnight
p7512
g31
ssS'77'
p7513
(dp7514
Vnothing
p7515
g4
sVthings
p7516
g4
sVyears
p7517
g4
sVservice
p7518
g4
sVstaff
p7519
g4
ssS'76'
p7520
(dp7521
Vreview
p7522
g31
ssS'2978'
p7523
(dp7524
Vfriends
p7525
g4
sVplace
p7526
g4
sVresponse
p7527
g4
ssS'2979'
p7528
(dp7529
Vfood
p7530
g8
ssS'72'
p7531
(dp7532
Vny
p7533
g4
sVplace
p7534
g4
sVrestaurants
p7535
g4
ssS'3058'
p7536
(dp7537
Vplace
p7538
g4
sVneighborhood
p7539
g4
ssS'3059'
p7540
(dp7541
Vcourses
p7542
g8
sVappetizers
p7543
g31
ssS'2972'
p7544
(dp7545
Vfirst
p7546
g4
ssS'3057'
p7547
(dp7548
sS'2970'
p7549
(dp7550
sS'2971'
p7551
(dp7552
sS'2976'
p7553
(dp7554
Vselection
p7555
g4
sVhouse
p7556
g4
sVprice
p7557
g4
sVvalue
p7558
g4
sVgigondas
p7559
g4
sVwine
p7560
g4
ssS'2977'
p7561
(dp7562
Vfood
p7563
g4
sVvibe
p7564
g4
sVbit
p7565
g4
sVarea
p7566
g4
ssS'3050'
p7567
(dp7568
Vtip
p7569
g8
ssS'3051'
p7570
(dp7571
Vplace
p7572
g8
ssS'1041'
p7573
(dp7574
Vrestaurant
p7575
g8
sVpeople
p7576
g8
ssS'1040'
p7577
(dp7578
Vfood
p7579
g4
sVfun
p7580
g4
sVnight
p7581
g4
ssS'1047'
p7582
(dp7583
sS'1046'
p7584
(dp7585
sS'1045'
p7586
(dp7587
Vspicy
p7588
g4
sVroll
p7589
g4
ssS'1044'
p7590
(dp7591
Vtime
p7592
g8
ssS'1049'
p7593
(dp7594
Vhome
p7595
g4
sVrolls
p7596
g4
ssS'1681'
p7597
(dp7598
Vservers
p7599
g4
ssS'1680'
p7600
(dp7601
Vminutes
p7602
g8
sVbar
p7603
g31
sVrestaurant
p7604
g31
ssS'1683'
p7605
(dp7606
Vfood
p7607
g4
sVservice
p7608
g4
ssS'1684'
p7609
(dp7610
Vgirls
p7611
g8
ssS'1687'
p7612
(dp7613
Vdish
p7614
g31
sVbeef
p7615
g31
ssS'1686'
p7616
(dp7617
Vdish
p7618
g8
sVlunch
p7619
g8
sVprice
p7620
g8
ssS'1689'
p7621
(dp7622
Vfood
p7623
g8
sVquality
p7624
g8
ssS'1688'
p7625
(dp7626
Vdish
p7627
g8
ssS'1269'
p7628
(dp7629
Vfood
p7630
g31
sVtime
p7631
g31
sVrestaurants
p7632
g31
ssS'2980'
p7633
(dp7634
sS'669'
p7635
(dp7636
sS'668'
p7637
(dp7638
Vtown
p7639
g4
sVshabu
p7640
g4
sVplaces
p7641
g4
sVrestaurants
p7642
g4
ssS'667'
p7643
(dp7644
Vprices
p7645
g31
sVline
p7646
g31
ssS'666'
p7647
(dp7648
Vfood
p7649
g4
sVservice
p7650
g4
ssS'665'
p7651
(dp7652
Vdrink
p7653
g31
sVbar
p7654
g31
sVtime
p7655
g31
sVwait
p7656
g31
ssS'664'
p7657
(dp7658
Vstaff
p7659
g4
ssS'663'
p7660
(dp7661
Vrice
p7662
g4
ssS'662'
p7663
(dp7664
Vdinner
p7665
g4
sVbeef
p7666
g4
ssS'661'
p7667
(dp7668
Vwait
p7669
g31
ssS'3022'
p7670
(dp7671
Vbit
p7672
g4
sVside
p7673
g4
sVrestaurant
p7674
g4
ssS'3021'
p7675
(dp7676
Vstaff
p7677
g4
ssS'3095'
p7678
(dp7679
Vpaneer
p7680
g31
ssS'2984'
p7681
(dp7682
Vdinner
p7683
g8
ssS'1913'
p7684
(dp7685
Voccasion
p7686
g31
sVtime
p7687
g31
ssS'3128'
p7688
(dp7689
Vweekends
p7690
g4
ssS'3129'
p7691
(dp7692
Vhostess
p7693
g8
sVpoint
p7694
g8
ssS'3122'
p7695
(dp7696
Veverything
p7697
g8
sVwaitress
p7698
g8
ssS'3123'
p7699
(dp7700
Vdessert
p7701
g31
sVchance
p7702
g31
sVbill
p7703
g31
sVorder
p7704
g31
sVwaitress
p7705
g31
ssS'3120'
p7706
(dp7707
Vfood
p7708
g4
ssS'3121'
p7709
(dp7710
Vstaff
p7711
g8
ssS'3126'
p7712
(dp7713
Vtime
p7714
g8
ssS'3127'
p7715
(dp7716
Vplace
p7717
g8
ssS'1469'
p7718
(dp7719
Vpizza
p7720
g4
ssS'1468'
p7721
(dp7722
Vfun
p7723
g4
sVrestaurant
p7724
g4
ssS'1465'
p7725
(dp7726
Vhouse
p7727
g31
sVclientele
p7728
g31
sVgroup
p7729
g31
sVservice
p7730
g31
ssS'1018'
p7731
(dp7732
Vfood
p7733
g8
sVservice
p7734
g8
ssS'1467'
p7735
(dp7736
Vtimes
p7737
g4
ssS'1916'
p7738
(dp7739
Vatmoshere
p7740
g4
ssS'1461'
p7741
(dp7742
Vneighborhood
p7743
g4
sVrestaurants
p7744
g4
ssS'1460'
p7745
(dp7746
Vdining
p7747
g4
sVdecor
p7748
g4
ssS'1462'
p7749
(dp7750
Vappetizers
p7751
g31
sVdishes
p7752
g31
ssS'1317'
p7753
(dp7754
Vprices
p7755
g8
ssS'1316'
p7756
(dp7757
Vfood
p7758
g31
sVneighborhood
p7759
g31
sVrestaurant
p7760
g31
ssS'1315'
p7761
(dp7762
Vnyc
p7763
g8
sVmoney
p7764
g8
sVvalue
p7765
g8
sVyears
p7766
g8
ssS'1314'
p7767
(dp7768
sS'1313'
p7769
(dp7770
Vweek
p7771
g4
sVdishes
p7772
g4
ssS'1312'
p7773
(dp7774
Vplace
p7775
g31
sVtime
p7776
g31
ssS'1311'
p7777
(dp7778
Vnothing
p7779
g8
ssS'1310'
p7780
(dp7781
sS'1319'
p7782
(dp7783
Vthing
p7784
g8
sVfact
p7785
g8
ssS'1318'
p7786
(dp7787
Vambience
p7788
g8
sVplace
p7789
g8
sVguests
p7790
g8
ssS'1010'
p7791
(dp7792
Vbill
p7793
g8
ssS'464'
p7794
(dp7795
Vfood
p7796
g4
sVchicken
p7797
g4
sVambiance
p7798
g4
sVeggplant
p7799
g4
sVdishes
p7800
g4
ssS'1011'
p7801
(dp7802
Vfood
p7803
g4
sVstreet
p7804
g4
ssS'318'
p7805
(dp7806
Vatmosphere
p7807
g4
sVscene
p7808
g4
sVway
p7809
g4
ssS'313'
p7810
(dp7811
Vvalue
p7812
g4
ssS'3441'
p7813
(dp7814
Vprice
p7815
g8
sVsandwich
p7816
g8
sVlobster
p7817
g8
ssS'317'
p7818
(dp7819
Vmanhattan
p7820
g4
ssS'316'
p7821
(dp7822
Vglass
p7823
g31
sVbeer
p7824
g31
sVpoint
p7825
g31
sVdeal
p7826
g31
sVwine
p7827
g31
ssS'315'
p7828
(dp7829
Vmenu
p7830
g31
sVoysters
p7831
g31
sVrest
p7832
g31
ssS'864'
p7833
(dp7834
Vfood
p7835
g8
sVportions
p7836
g8
ssS'867'
p7837
(dp7838
sS'1618'
p7839
(dp7840
Vhouse
p7841
g4
sVdinner
p7842
g4
sVdrink
p7843
g4
sVcannoli
p7844
g4
sVdesserts
p7845
g4
ssS'866'
p7846
(dp7847
Vearth
p7848
g4
sVstaff
p7849
g4
ssS'2025'
p7850
(dp7851
Vdrink
p7852
g31
ssS'2754'
p7853
(dp7854
Vvisit
p7855
g8
sVprice
p7856
g8
sVquality
p7857
g8
sVfish
p7858
g8
ssS'1335'
p7859
(dp7860
Vfood
p7861
g8
sVwaiter
p7862
g8
sVlack
p7863
g8
sVservice
p7864
g8
ssS'1030'
p7865
(dp7866
Vwaitresses
p7867
g31
sVservice
p7868
g31
ssS'1334'
p7869
(dp7870
Vtime
p7871
g8
ssS'2752'
p7872
(dp7873
Vwest
p7874
g4
sVsushi
p7875
g4
sVneighborhood
p7876
g4
sVrestaurants
p7877
g31
sVvillage
p7878
g4
ssS'1331'
p7879
(dp7880
Vreservation
p7881
g8
ssS'2698'
p7882
(dp7883
Vreservation
p7884
g4
sVservice
p7885
g4
sVtime
p7886
g4
ssS'446'
p7887
(dp7888
Vnyc
p7889
g4
ssS'2692'
p7890
(dp7891
Vfood
p7892
g4
sVambience
p7893
g4
sVsuperb
p7894
g4
sVstaff
p7895
g4
ssS'2461'
p7896
(dp7897
Vcuisine
p7898
g4
ssS'3610'
p7899
(dp7900
Vaddition
p7901
g4
sVstreet
p7902
g4
sVplace
p7903
g4
sVwomen
p7904
g4
ssS'3611'
p7905
(dp7906
Vfamilies
p7907
g4
ssS'2299'
p7908
(dp7909
Vfolks
p7910
g4
sVcity
p7911
g4
ssS'3613'
p7912
(dp7913
Vdoor
p7914
g31
sVrestaurant
p7915
g31
ssS'3617'
p7916
(dp7917
Vaddition
p7918
g4
sVneighborhood
p7919
g4
ssS'2293'
p7920
(dp7921
Vcity
p7922
g8
sVrestaurants
p7923
g8
ssS'3619'
p7924
(dp7925
Vyears
p7926
g4
sVarea
p7927
g4
ssS'2290'
p7928
(dp7929
Vfood
p7930
g4
sVny
p7931
g4
ssS'2297'
p7932
(dp7933
Vmanhattan
p7934
g4
sVpizza
p7935
g4
ssS'2296'
p7936
(dp7937
Vjus
p7938
g8
ssS'2295'
p7939
(dp7940
Vplace
p7941
g4
sVpizza
p7942
g4
ssS'2294'
p7943
(dp7944
Vway
p7945
g4
sVdishes
p7946
g4
sVappetizer
p7947
g4
ssS'2569'
p7948
(dp7949
Vreviews
p7950
g4
ssS'2568'
p7951
(dp7952
sS'2560'
p7953
(dp7954
Vplace
p7955
g8
sVstrip
p7956
g8
ssS'2563'
p7957
(dp7958
Vitem
p7959
g4
sVneighborhood
p7960
g4
sVoatmeal
p7961
g4
ssS'1615'
p7962
(dp7963
Vpart
p7964
g4
sVeveryone
p7965
g4
sVfamily
p7966
g4
ssS'2567'
p7967
(dp7968
Vquality
p7969
g4
sVvalue
p7970
g4
sVingredients
p7971
g4
ssS'403'
p7972
(dp7973
Vrating
p7974
g31
sVnight
p7975
g31
ssS'908'
p7976
(dp7977
Vfood
p7978
g4
sVnyc
p7979
g4
sVvalues
p7980
g4
ssS'2369'
p7981
(dp7982
sS'2367'
p7983
(dp7984
Vdisappointment
p7985
g8
sVrestaurant
p7986
g8
ssS'2366'
p7987
(dp7988
sS'2365'
p7989
(dp7990
Vdessert
p7991
g8
sVsomeone
p7992
g8
ssS'2364'
p7993
(dp7994
Vwait
p7995
g4
sVplace
p7996
g4
sVstaff
p7997
g4
ssS'2363'
p7998
(dp7999
Vfish
p8000
g8
ssS'2361'
p8001
(dp8002
Vfood
p8003
g31
sVbirthday
p8004
g31
ssS'2360'
p8005
(dp8006
Vnyc
p8007
g4
sVgroup
p8008
g4
ssS'2587'
p8009
(dp8010
Vreview
p8011
g4
ssS'2586'
p8012
(dp8013
Vplace
p8014
g8
ssS'2585'
p8015
(dp8016
Vdelivery
p8017
g4
sVservice
p8018
g4
ssS'2584'
p8019
(dp8020
Vchoice
p8021
g4
ssS'2582'
p8022
(dp8023
Vreservations
p8024
g4
sVstuff
p8025
g4
ssS'2581'
p8026
(dp8027
Vrestaurant
p8028
g4
ssS'2580'
p8029
(dp8030
Vfood
p8031
g4
sVambience
p8032
g4
sVservice
p8033
g4
ssS'1612'
p8034
(dp8035
sS'402'
p8036
(dp8037
Vsaturday
p8038
g31
sVnight
p8039
g31
ssS'2589'
p8040
(dp8041
Vmushroom
p8042
g8
sVrest
p8043
g8
sVpizza
p8044
g8
ssS'2588'
p8045
(dp8046
Vtables
p8047
g8
sVrestaurant
p8048
g8
sVtimes
p8049
g8
sVorder
p8050
g8
sVwaitress
p8051
g8
sVfirst
p8052
g8
ssS'1861'
p8053
(dp8054
Vhusband
p8055
g4
ssS'1860'
p8056
(dp8057
Vevening
p8058
g31
ssS'1865'
p8059
(dp8060
Vdinner
p8061
g31
sVwine
p8062
g31
ssS'1867'
p8063
(dp8064
Vcourses
p8065
g8
sVdessert
p8066
g8
sVchocolate
p8067
g4
sVwine
p8068
g4
ssS'1866'
p8069
(dp8070
Vsake
p8071
g4
sVdessert
p8072
g4
sVchocolate
p8073
g4
sVpinot
p8074
g4
sVtuna
p8075
g4
sVwine
p8076
g4
ssS'1869'
p8077
(dp8078
Vmenu
p8079
g4
sVshow
p8080
g4
ssS'1868'
p8081
(dp8082
Vsalmon
p8083
g4
sVhusband
p8084
g4
ssS'964'
p8085
(dp8086
Vwait
p8087
g4
sVstaff
p8088
g4
ssS'965'
p8089
(dp8090
sS'966'
p8091
(dp8092
Vtaste
p8093
g4
sVprices
p8094
g4
sVquality
p8095
g4
ssS'967'
p8096
(dp8097
Vfood
p8098
g4
sVplace
p8099
g4
sVpeople
p8100
g4
ssS'960'
p8101
(dp8102
Vbit
p8103
g4
sVmeal
p8104
g4
sVsomething
p8105
g4
sVrestaurant
p8106
g4
ssS'961'
p8107
(dp8108
Vfoodie
p8109
g4
sVmine
p8110
g4
sVfriend
p8111
g4
sVrestaurant
p8112
g4
ssS'962'
p8113
(dp8114
Veveryone
p8115
g4
sVfriends
p8116
g4
ssS'1613'
p8117
(dp8118
sS'968'
p8119
(dp8120
Vtown
p8121
g4
sVclassics
p8122
g4
sVspot
p8123
g4
sVlot
p8124
g4
sVplaces
p8125
g4
ssS'969'
p8126
(dp8127
Vlight
p8128
g4
sVrolls
p8129
g4
sVplaces
p8130
g4
sVsummer
p8131
g4
ssS'2109'
p8132
(dp8133
Vatmosphere
p8134
g8
sVservice
p8135
g8
sVarea
p8136
g8
sVaverage
p8137
g8
sVsushi
p8138
g8
sVeverything
p8139
g8
sVechoes
p8140
g8
sVwait
p8141
g8
sVkitchen
p8142
g8
ssS'2108'
p8143
(dp8144
sS'2103'
p8145
(dp8146
Vtable
p8147
g4
ssS'2102'
p8148
(dp8149
Vsum
p8150
g31
sVchinatown
p8151
g31
sVrest
p8152
g31
sVstandards
p8153
g31
ssS'2101'
p8154
(dp8155
Vbuns
p8156
g8
sVmeat
p8157
g8
ssS'2100'
p8158
(dp8159
Vreviews
p8160
g8
ssS'2107'
p8161
(dp8162
Vsushi
p8163
g31
sVst
p8164
g31
sVtimes
p8165
g31
ssS'2105'
p8166
(dp8167
Vtips
p8168
g8
ssS'2104'
p8169
(dp8170
Vtables
p8171
g31
sVatmosphere
p8172
g31
sVchinatown
p8173
g31
sVsum
p8174
g31
sVwait
p8175
g31
ssS'2639'
p8176
(dp8177
Vcrispy
p8178
g4
sVsalmon
p8179
g4
sVroom
p8180
g4
ssS'2638'
p8181
(dp8182
Vdumplings
p8183
g4
sVmenu
p8184
g4
sVmeal
p8185
g4
ssS'635'
p8186
(dp8187
Vnew
p8188
g8
sVyork
p8189
g8
sVpoint
p8190
g8
ssS'2635'
p8191
(dp8192
Vog
p8193
g4
ssS'2634'
p8194
(dp8195
sS'2637'
p8196
(dp8197
Vmeal
p8198
g4
ssS'2636'
p8199
(dp8200
Vnight
p8201
g4
ssS'2631'
p8202
(dp8203
Vdate
p8204
g4
sVdinners
p8205
g4
sVgroups
p8206
g4
sVhusband
p8207
g4
ssS'2630'
p8208
(dp8209
Vchance
p8210
g4
sVfriends
p8211
g4
ssS'3438'
p8212
(dp8213
Vambience
p8214
g4
sVdate
p8215
g4
sVgroup
p8216
g4
sVservice
p8217
g4
ssS'3439'
p8218
(dp8219
Vprices
p8220
g8
sVfallback
p8221
g8
sVrestaurant
p8222
g8
ssS'878'
p8223
(dp8224
Vmeal
p8225
g4
sVmontparnasse
p8226
g4
ssS'3093'
p8227
(dp8228
sS'876'
p8229
(dp8230
Vpm
p8231
g4
ssS'3431'
p8232
(dp8233
sS'874'
p8234
(dp8235
Vtomato
p8236
g4
sVmenu
p8237
g4
sVsteak
p8238
g4
sVsoup
p8239
g4
ssS'3433'
p8240
(dp8241
Vdate
p8242
g4
sVplace
p8243
g4
sVspot
p8244
g4
ssS'3434'
p8245
(dp8246
Vdessert
p8247
g4
sVpudding
p8248
g4
ssS'3435'
p8249
(dp8250
Vseafood
p8251
g4
sVrestaurant
p8252
g4
ssS'870'
p8253
(dp8254
Vfood
p8255
g4
sVprices
p8256
g4
ssS'3437'
p8257
(dp8258
Vsandwich
p8259
g4
sVlobster
p8260
g4
sVshrimp
p8261
g4
ssS'2741'
p8262
(dp8263
Vpasta
p8264
g4
sVportion
p8265
g4
sVservice
p8266
g4
sVbeef
p8267
g4
ssS'2036'
p8268
(dp8269
Vtaste
p8270
g8
sVdish
p8271
g8
sVproblem
p8272
g8
sVdishes
p8273
g8
ssS'2035'
p8274
(dp8275
Vfood
p8276
g8
sVpeople
p8277
g8
sVportions
p8278
g8
sVwaiters
p8279
g8
sVdrinks
p8280
g8
ssS'2742'
p8281
(dp8282
Vmartini
p8283
g4
ssS'2033'
p8284
(dp8285
Vfare
p8286
g4
sVcheese
p8287
g4
sVwine
p8288
g4
ssS'2747'
p8289
(dp8290
Vtuna
p8291
g4
sVappetizer
p8292
g4
ssS'2030'
p8293
(dp8294
Vcheese
p8295
g4
sVfood
p8296
g4
sVserver
p8297
g4
sVtable
p8298
g4
sVwine
p8299
g4
sVpairings
p8300
g4
ssS'9'
p8301
(dp8302
Vwaitress
p8303
g8
ssS'2748'
p8304
(dp8305
Vthing
p8306
g4
sVservice
p8307
g4
sVrestaurant
p8308
g4
ssS'2039'
p8309
(dp8310
Vrice
p8311
g8
ssS'2038'
p8312
(dp8313
Vfood
p8314
g8
ssS'891'
p8315
(dp8316
Vfood
p8317
g31
sVnothing
p8318
g8
sVservice
p8319
g8
ssS'892'
p8320
(dp8321
Vmeal
p8322
g31
ssS'894'
p8323
(dp8324
Vprix
p8325
g31
sVrestaurant
p8326
g31
ssS'895'
p8327
(dp8328
Vsomething
p8329
g4
ssS'896'
p8330
(dp8331
Vbeer
p8332
g4
ssS'897'
p8333
(dp8334
Vdinner
p8335
g31
sVwife
p8336
g31
ssS'898'
p8337
(dp8338
Vthing
p8339
g8
sVbar
p8340
g8
sVwife
p8341
g8
ssS'899'
p8342
(dp8343
Vfood
p8344
g31
sVservice
p8345
g31
ssS'646'
p8346
(dp8347
Vnothing
p8348
g31
ssS'3651'
p8349
(dp8350
Vchance
p8351
g4
ssS'783'
p8352
(dp8353
sS'1968'
p8354
(dp8355
Vdinner
p8356
g31
sVday
p8357
g31
ssS'1969'
p8358
(dp8359
Vselection
p8360
g4
sVambiance
p8361
g4
sVservice
p8362
g4
sVwine
p8363
g4
ssS'3544'
p8364
(dp8365
Vambience
p8366
g4
sVdate
p8367
g4
sVplace
p8368
g4
ssS'3545'
p8369
(dp8370
Vothers
p8371
g31
sVtime
p8372
g8
ssS'3546'
p8373
(dp8374
Vcurry
p8375
g4
sVrestaurant
p8376
g4
ssS'3547'
p8377
(dp8378
Vfood
p8379
g4
sVvalue
p8380
g4
ssS'3541'
p8381
(dp8382
Vdinner
p8383
g31
ssS'3542'
p8384
(dp8385
Vpractice
p8386
g31
sVmistake
p8387
g31
sVrestaurants
p8388
g31
ssS'3543'
p8389
(dp8390
Vfood
p8391
g31
sVtastes
p8392
g31
sVrestaurant
p8393
g31
ssS'3235'
p8394
(dp8395
Vchef
p8396
g4
sVcouple
p8397
g4
sVstaff
p8398
g4
ssS'1964'
p8399
(dp8400
Vdrinks
p8401
g31
sVappetizer
p8402
g31
ssS'422'
p8403
(dp8404
Vplace
p8405
g4
ssS'1965'
p8406
(dp8407
Vnite
p8408
g8
sVrestaurant
p8409
g8
ssS'3238'
p8410
(dp8411
Vsaturday
p8412
g4
sVnight
p8413
g4
ssS'3069'
p8414
(dp8415
sS'2965'
p8416
(dp8417
Vtable
p8418
g4
sVgroup
p8419
g4
ssS'2964'
p8420
(dp8421
Vfood
p8422
g4
sVfeat
p8423
g4
sVarea
p8424
g4
ssS'2967'
p8425
(dp8426
Vfood
p8427
g31
sVarea
p8428
g31
sVrestaurants
p8429
g31
sVkilo
p8430
g31
sVrestaurant
p8431
g31
ssS'2966'
p8432
(dp8433
sS'2961'
p8434
(dp8435
Vcuisine
p8436
g4
sVportions
p8437
g4
ssS'2960'
p8438
(dp8439
Vmenu
p8440
g4
ssS'2963'
p8441
(dp8442
Vglass
p8443
g4
sVaccompaniment
p8444
g4
sVwine
p8445
g4
ssS'2962'
p8446
(dp8447
Vcheese
p8448
g4
sVsalad
p8449
g4
sVmussels
p8450
g4
sVchoices
p8451
g4
sVworld
p8452
g4
sVsteak
p8453
g4
ssS'1780'
p8454
(dp8455
Vfood
p8456
g8
sVmenu
p8457
g8
sVultra
p8458
g4
sVwork
p8459
g8
sVeverything
p8460
g8
ssS'1781'
p8461
(dp8462
sS'760'
p8463
(dp8464
Vfusion
p8465
g4
sVplaces
p8466
g4
ssS'1783'
p8467
(dp8468
sS'2969'
p8469
(dp8470
Vbill
p8471
g31
ssS'767'
p8472
(dp8473
Vfood
p8474
g8
sVcity
p8475
g8
sVamount
p8476
g8
sVrestaurants
p8477
g8
sVtime
p8478
g8
ssS'764'
p8479
(dp8480
Vdish
p8481
g8
sVchicken
p8482
g8
ssS'765'
p8483
(dp8484
Vprice
p8485
g8
sVsushi
p8486
g31
sVanything
p8487
g31
ssS'3049'
p8488
(dp8489
Vfood
p8490
g8
sVportions
p8491
g8
ssS'3048'
p8492
(dp8493
Vtable
p8494
g8
sVnoodles
p8495
g8
sVdishes
p8496
g8
ssS'3041'
p8497
(dp8498
Vdinner
p8499
g31
sVtimes
p8500
g31
sVrestaurant
p8501
g31
ssS'3040'
p8502
(dp8503
Vmenu
p8504
g4
ssS'3043'
p8505
(dp8506
Vspecials
p8507
g4
sVdinner
p8508
g4
ssS'3042'
p8509
(dp8510
Vfood
p8511
g4
sVminutes
p8512
g4
sVmeal
p8513
g4
ssS'3045'
p8514
(dp8515
sS'3044'
p8516
(dp8517
Vgarlic
p8518
g31
sVchicken
p8519
g31
sVsauce
p8520
g31
sVbean
p8521
g31
ssS'3047'
p8522
(dp8523
Vplace
p8524
g8
sVstaff
p8525
g8
ssS'3046'
p8526
(dp8527
Vposts
p8528
g31
sVplace
p8529
g31
ssS'1078'
p8530
(dp8531
Vcombinations
p8532
g4
sVbatter
p8533
g4
ssS'1077'
p8534
(dp8535
Vnyc
p8536
g4
ssS'1074'
p8537
(dp8538
Vtaste
p8539
g31
sVny
p8540
g31
sVdosa
p8541
g31
sVplace
p8542
g31
ssS'1070'
p8543
(dp8544
Vline
p8545
g31
ssS'1071'
p8546
(dp8547
Vspot
p8548
g4
ssS'1678'
p8549
(dp8550
Vmoney
p8551
g8
ssS'1679'
p8552
(dp8553
Vhours
p8554
g31
ssS'3030'
p8555
(dp8556
sS'1674'
p8557
(dp8558
Vanniversery
p8559
g8
sVnight
p8560
g4
ssS'1675'
p8561
(dp8562
Vfood
p8563
g8
sVquality
p8564
g8
ssS'1676'
p8565
(dp8566
Vatmosphere
p8567
g31
sVplaces
p8568
g31
ssS'1677'
p8569
(dp8570
Vstaff
p8571
g4
sVwait
p8572
g4
ssS'1670'
p8573
(dp8574
Vreservations
p8575
g31
sVwait
p8576
g31
ssS'1671'
p8577
(dp8578
Vbar
p8579
g31
sVdrink
p8580
g31
sVminutes
p8581
g31
sVreservation
p8582
g31
ssS'1672'
p8583
(dp8584
Vfood
p8585
g4
ssS'1673'
p8586
(dp8587
Vselection
p8588
g4
sVwine
p8589
g4
ssS'1094'
p8590
(dp8591
Vfood
p8592
g4
ssS'1095'
p8593
(dp8594
Vfood
p8595
g4
sVplace
p8596
g4
sVjazz
p8597
g4
sVquality
p8598
g4
sVrestaurant
p8599
g4
ssS'1096'
p8600
(dp8601
Vdate
p8602
g4
sVambiance
p8603
g4
sVspot
p8604
g4
sVscene
p8605
g4
sVnight
p8606
g4
ssS'1097'
p8607
(dp8608
Vanyone
p8609
g4
sVcuisine
p8610
g4
sVspot
p8611
g4
sVprices
p8612
g4
ssS'678'
p8613
(dp8614
Vcourse
p8615
g4
sVnight
p8616
g4
sVmeal
p8617
g4
sVplate
p8618
g4
sVeverything
p8619
g4
ssS'679'
p8620
(dp8621
sS'1092'
p8622
(dp8623
Vbasis
p8624
g4
sVfriends
p8625
g4
sVnight
p8626
g4
ssS'1534'
p8627
(dp8628
Vnosh
p8629
g4
sVmoney
p8630
g4
sVsandwich
p8631
g4
ssS'674'
p8632
(dp8633
Vfun
p8634
g4
sVgroup
p8635
g4
sVexperience
p8636
g4
ssS'675'
p8637
(dp8638
Vselection
p8639
g4
sVexperience
p8640
g4
sVpeople
p8641
g4
ssS'676'
p8642
(dp8643
Vnothing
p8644
g4
sVflavors
p8645
g4
ssS'677'
p8646
(dp8647
sS'1098'
p8648
(dp8649
Vtimes
p8650
g8
ssS'1099'
p8651
(dp8652
Vdinner
p8653
g31
ssS'672'
p8654
(dp8655
Vingredients
p8656
g31
ssS'673'
p8657
(dp8658
Vbroth
p8659
g4
sVnoodles
p8660
g4
ssS'3135'
p8661
(dp8662
Vkind
p8663
g4
sVorder
p8664
g4
ssS'3134'
p8665
(dp8666
Vfood
p8667
g8
sVjob
p8668
g4
sVenglish
p8669
g8
sVpeople
p8670
g8
ssS'3137'
p8671
(dp8672
Vtable
p8673
g4
ssS'3136'
p8674
(dp8675
Vstaff
p8676
g31
ssS'3131'
p8677
(dp8678
sS'3130'
p8679
(dp8680
Vfood
p8681
g8
sVoily
p8682
g8
ssS'3133'
p8683
(dp8684
Vrestaurant
p8685
g4
ssS'3139'
p8686
(dp8687
Vlife
p8688
g31
sVsum
p8689
g31
sVchinatown
p8690
g31
sVglass
p8691
g31
sVpart
p8692
g31
sVcreatures
p8693
g31
sVrestaurants
p8694
g31
ssS'3138'
p8695
(dp8696
Vfish
p8697
g4
ssS'1533'
p8698
(dp8699
Vspot
p8700
g4
sVpastrami
p8701
g4
ssS'1622'
p8702
(dp8703
Vportions
p8704
g4
sVservers
p8705
g4
ssS'1418'
p8706
(dp8707
Vbill
p8708
g31
ssS'1419'
p8709
(dp8710
Vthali
p8711
g8
ssS'1410'
p8712
(dp8713
Vvalue
p8714
g4
ssS'1411'
p8715
(dp8716
Vfood
p8717
g4
ssS'1412'
p8718
(dp8719
Vdishes
p8720
g4
ssS'1413'
p8721
(dp8722
Vcity
p8723
g4
sVsandwich
p8724
g4
sVlunch
p8725
g4
ssS'1414'
p8726
(dp8727
sS'1415'
p8728
(dp8729
Vfood
p8730
g8
sVservice
p8731
g8
ssS'1416'
p8732
(dp8733
Vprices
p8734
g8
sVripoff
p8735
g8
sVarea
p8736
g8
ssS'1417'
p8737
(dp8738
Vtimes
p8739
g31
ssS'1322'
p8740
(dp8741
Vchicken
p8742
g4
ssS'1323'
p8743
(dp8744
Vmusic
p8745
g4
sVrestaurants
p8746
g4
ssS'1320'
p8747
(dp8748
Vnothing
p8749
g8
sVamma
p8750
g8
sVsales
p8751
g8
ssS'1532'
p8752
(dp8753
Vdining
p8754
g4
sVexperience
p8755
g8
ssS'1326'
p8756
(dp8757
Vfood
p8758
g4
ssS'1327'
p8759
(dp8760
Vways
p8761
g4
sVmenu
p8762
g4
sVseafood
p8763
g4
sVdishes
p8764
g4
sVvariety
p8765
g4
ssS'1324'
p8766
(dp8767
sS'1325'
p8768
(dp8769
Vbirthday
p8770
g4
sVmeal
p8771
g4
sVnight
p8772
g4
ssS'1328'
p8773
(dp8774
Vthing
p8775
g4
sVbirthday
p8776
g4
ssS'1329'
p8777
(dp8778
Vreservations
p8779
g8
ssS'5'
p8780
(dp8781
Vplace
p8782
g8
ssS'1531'
p8783
(dp8784
sS'1917'
p8785
(dp8786
Vdish
p8787
g4
sVfood
p8788
g4
sVportions
p8789
g4
sVtasting
p8790
g4
ssS'3618'
p8791
(dp8792
Vside
p8793
g8
sVrestaurant
p8794
g8
ssS'1254'
p8795
(dp8796
Vtea
p8797
g4
sVthai
p8798
g4
ssS'1527'
p8799
(dp8800
Vfriends
p8801
g4
ssS'1250'
p8802
(dp8803
Vpad
p8804
g31
sVchicken
p8805
g31
sVcurry
p8806
g31
sVfriend
p8807
g31
ssS'1528'
p8808
(dp8809
Vfood
p8810
g4
sVnosh
p8811
g4
sVneighborhood
p8812
g4
ssS'308'
p8813
(dp8814
Vfish
p8815
g31
sVseafood
p8816
g31
sVreview
p8817
g31
ssS'309'
p8818
(dp8819
Vbar
p8820
g4
sVservice
p8821
g4
sVstaff
p8822
g4
ssS'300'
p8823
(dp8824
Vsushi
p8825
g4
sVpresentation
p8826
g4
sVrolls
p8827
g4
sVfriend
p8828
g4
ssS'301'
p8829
(dp8830
Vinsde
p8831
g4
sVtable
p8832
g4
sVsun
p8833
g4
sVwait
p8834
g31
ssS'302'
p8835
(dp8836
Vplace
p8837
g4
sVrestaurant
p8838
g4
ssS'303'
p8839
(dp8840
Vlunch
p8841
g31
sVdinner
p8842
g31
sVtimes
p8843
g31
ssS'304'
p8844
(dp8845
Veverything
p8846
g4
sVfish
p8847
g4
sVway
p8848
g4
ssS'305'
p8849
(dp8850
Vsushi
p8851
g4
ssS'306'
p8852
(dp8853
Vdessert
p8854
g4
ssS'307'
p8855
(dp8856
Vtimes
p8857
g4
sVplace
p8858
g4
sVrestaurant
p8859
g4
ssS'1792'
p8860
(dp8861
Vstaff
p8862
g8
sVfriends
p8863
g8
sVtime
p8864
g8
ssS'1626'
p8865
(dp8866
Vholiday
p8867
g4
sVtime
p8868
g4
ssS'75'
p8869
(dp8870
sS'2399'
p8871
(dp8872
Vlunch
p8873
g4
sVportions
p8874
g4
sVappetizer
p8875
g31
ssS'71'
p8876
(dp8877
Vservice
p8878
g4
sVarea
p8879
g4
sVdining
p8880
g4
sVplace
p8881
g4
sVpizza
p8882
g4
sVwine
p8883
g4
ssS'70'
p8884
(dp8885
Vtime
p8886
g4
sVplace
p8887
g4
sVnight
p8888
g4
ssS'3056'
p8889
(dp8890
Vfood
p8891
g4
sVambience
p8892
g4
sVtrip
p8893
g4
sVworld
p8894
g4
ssS'989'
p8895
(dp8896
Vservice
p8897
g4
ssS'2973'
p8898
(dp8899
Vfood
p8900
g4
sVservice
p8901
g4
ssS'1447'
p8902
(dp8903
Vmeal
p8904
g8
ssS'3052'
p8905
(dp8906
Vbistro
p8907
g8
sVpath
p8908
g31
ssS'3412'
p8909
(dp8910
Vambience
p8911
g4
sVtime
p8912
g4
sVplace
p8913
g4
sVfriend
p8914
g4
sVstaff
p8915
g4
ssS'3053'
p8916
(dp8917
Vflair
p8918
g4
sVrestaurant
p8919
g4
ssS'2974'
p8920
(dp8921
Vtable
p8922
g4
sVsteak
p8923
g4
sVbet
p8924
g4
ssS'2975'
p8925
(dp8926
Vpart
p8927
g4
sVkitchen
p8928
g4
sVrestaurant
p8929
g4
ssS'3603'
p8930
(dp8931
Vlot
p8932
g31
sVpizza
p8933
g31
ssS'3602'
p8934
(dp8935
sS'3601'
p8936
(dp8937
Vnyc
p8938
g4
sVhands
p8939
g8
sVplaces
p8940
g8
sVpizza
p8941
g8
ssS'3600'
p8942
(dp8943
Vcheese
p8944
g8
ssS'3607'
p8945
(dp8946
Vnight
p8947
g31
ssS'3606'
p8948
(dp8949
Vpizza
p8950
g4
ssS'3605'
p8951
(dp8952
Vdecor
p8953
g4
sVselection
p8954
g4
sVservice
p8955
g4
sVwines
p8956
g4
sVfun
p8957
g4
sVfine
p8958
g4
ssS'3604'
p8959
(dp8960
Vwaltzes
p8961
g4
ssS'3609'
p8962
(dp8963
sS'3608'
p8964
(dp8965
Vpizzas
p8966
g4
sVinconsistency
p8967
g4
sVway
p8968
g4
ssS'3413'
p8969
(dp8970
Vstaff
p8971
g4
sVrestaurant
p8972
g4
ssS'2479'
p8973
(dp8974
Vweek
p8975
g4
sVbar
p8976
g4
sVservice
p8977
g4
sVrestaurant
p8978
g4
sVmenu
p8979
g4
sVbread
p8980
g4
ssS'2478'
p8981
(dp8982
Vdishes
p8983
g8
ssS'470'
p8984
(dp8985
sS'2990'
p8986
(dp8987
Vsteak
p8988
g8
sVpoivre
p8989
g8
ssS'2359'
p8990
(dp8991
Vbit
p8992
g8
sVbill
p8993
g8
sVexperience
p8994
g8
ssS'2350'
p8995
(dp8996
Vtuna
p8997
g4
sVboyfriend
p8998
g4
ssS'2356'
p8999
(dp9000
Vclams
p9001
g4
sVeating
p9002
g4
sVkick
p9003
g4
ssS'2355'
p9004
(dp9005
Vsalad
p9006
g4
ssS'2991'
p9007
(dp9008
Vsteak
p9009
g8
sVsauce
p9010
g8
ssS'1899'
p9011
(dp9012
Vpastis
p9013
g4
ssS'1894'
p9014
(dp9015
Vbistro
p9016
g4
sVatmosphere
p9017
g4
sVplace
p9018
g4
sVdishes
p9019
g4
sVwine
p9020
g4
ssS'1890'
p9021
(dp9022
Vvibe
p9023
g4
sVatmosphere
p9024
g4
ssS'1891'
p9025
(dp9026
Vfood
p9027
g4
sVsoup
p9028
g4
ssS'1893'
p9029
(dp9030
Vfries
p9031
g4
ssS'2136'
p9032
(dp9033
Vaccompaniment
p9034
g4
sVquiet
p9035
g4
ssS'2137'
p9036
(dp9037
Vchicken
p9038
g4
sVcheeseburger
p9039
g4
sVservice
p9040
g4
ssS'2134'
p9041
(dp9042
Vkind
p9043
g4
sVbusiness
p9044
g4
ssS'2135'
p9045
(dp9046
Vsunday
p9047
g4
sVway
p9048
g4
sVfriend
p9049
g4
sVrestaurant
p9050
g4
ssS'2132'
p9051
(dp9052
Vfood
p9053
g4
sVcity
p9054
g4
sVservice
p9055
g4
sVdrinks
p9056
g4
ssS'2133'
p9057
(dp9058
Vmeal
p9059
g31
sVround
p9060
g31
sVdrinks
p9061
g31
ssS'2130'
p9062
(dp9063
Vnew
p9064
g4
sVyork
p9065
g4
ssS'2131'
p9066
(dp9067
Veveryone
p9068
g4
sVfamily
p9069
g4
ssS'951'
p9070
(dp9071
Vwaiter
p9072
g8
sVminutes
p9073
g8
sVorder
p9074
g8
sVdrinks
p9075
g31
ssS'950'
p9076
(dp9077
sS'953'
p9078
(dp9079
Vfood
p9080
g8
sVservice
p9081
g8
sVrestaurants
p9082
g8
ssS'952'
p9083
(dp9084
sS'955'
p9085
(dp9086
sS'954'
p9087
(dp9088
Vdinner
p9089
g31
sVrestaurant
p9090
g31
ssS'2138'
p9091
(dp9092
Vexperiences
p9093
g4
sVdistrict
p9094
g4
ssS'2139'
p9095
(dp9096
Voasis
p9097
g4
sVtimes
p9098
g4
ssS'2648'
p9099
(dp9100
Vfood
p9101
g4
sVportion
p9102
g4
ssS'2649'
p9103
(dp9104
Vdinner
p9105
g31
sVplace
p9106
g4
sVbusiness
p9107
g4
sVrestaurant
p9108
g31
ssS'2640'
p9109
(dp9110
Vsake
p9111
g31
sVsaturday
p9112
g31
ssS'2641'
p9113
(dp9114
Vbistro
p9115
g4
sVtrip
p9116
g4
ssS'2642'
p9117
(dp9118
Vfood
p9119
g4
sVmenu
p9120
g4
sVquality
p9121
g4
sVspecials
p9122
g4
ssS'2643'
p9123
(dp9124
Vcalamari
p9125
g4
sVdisaster
p9126
g4
sVsalad
p9127
g4
sVrestaurants
p9128
g4
ssS'2644'
p9129
(dp9130
Vsalmon
p9131
g4
ssS'2645'
p9132
(dp9133
Vplaces
p9134
g4
sVshrimp
p9135
g4
sVdish
p9136
g4
sVthai
p9137
g4
sVnoodles
p9138
g4
sVcurry
p9139
g4
ssS'2646'
p9140
(dp9141
Vhouse
p9142
g4
sVbeer
p9143
g4
sVvarities
p9144
g4
sVwine
p9145
g31
ssS'2647'
p9146
(dp9147
Vcigar
p9148
g4
sVbar
p9149
g4
sVstaff
p9150
g4
ssS'3429'
p9151
(dp9152
Vexperience
p9153
g4
sVnight
p9154
g4
ssS'3428'
p9155
(dp9156
sS'3423'
p9157
(dp9158
Vfantastic
p9159
g4
sVsandwich
p9160
g4
sVlobster
p9161
g4
ssS'3422'
p9162
(dp9163
Vcity
p9164
g4
sVtrip
p9165
g4
ssS'3421'
p9166
(dp9167
Vdowntown
p9168
g31
sVlunch
p9169
g31
sVdinner
p9170
g31
ssS'3420'
p9171
(dp9172
Vchef
p9173
g4
sVcuisine
p9174
g4
sVlife
p9175
g4
sVdishes
p9176
g4
sVrestaurant
p9177
g4
ssS'3426'
p9178
(dp9179
Vreservation
p9180
g31
sVpeople
p9181
g4
ssS'3425'
p9182
(dp9183
Vsauce
p9184
g4
sVappetizer
p9185
g4
ssS'3424'
p9186
(dp9187
Vportion
p9188
g4
sVfries
p9189
g4
sVhusband
p9190
g4
ssS'2002'
p9191
(dp9192
Vdining
p9193
g4
sVprice
p9194
g4
sVexperience
p9195
g4
sVrestaurant
p9196
g4
ssS'2003'
p9197
(dp9198
Vdinner
p9199
g8
sVtime
p9200
g8
ssS'2000'
p9201
(dp9202
Vexperience
p9203
g4
sVpeople
p9204
g4
ssS'2001'
p9205
(dp9206
Vdinner
p9207
g8
sVwine
p9208
g8
sVbottle
p9209
g8
sVdrinks
p9210
g8
ssS'2006'
p9211
(dp9212
Vservice
p9213
g4
ssS'2007'
p9214
(dp9215
sS'2004'
p9216
(dp9217
Vdining
p9218
g31
sVoccasion
p9219
g31
ssS'2005'
p9220
(dp9221
Veverything
p9222
g4
sVrestaurant
p9223
g4
ssS'2008'
p9224
(dp9225
Vtouch
p9226
g4
sVparty
p9227
g4
sVmeal
p9228
g4
ssS'2009'
p9229
(dp9230
Vvisit
p9231
g8
ssS'2034'
p9232
(dp9233
Vwork
p9234
g8
sVplace
p9235
g8
sVorder
p9236
g8
ssS'1544'
p9237
(dp9238
Vplace
p9239
g4
ssS'1268'
p9240
(dp9241
Vwater
p9242
g8
sVtofu
p9243
g8
sVcurry
p9244
g8
ssS'3026'
p9245
(dp9246
Vsake
p9247
g4
sVdecor
p9248
g4
sVwood
p9249
g4
sVpremium
p9250
g4
sVservice
p9251
g4
ssS'3557'
p9252
(dp9253
Vfood
p9254
g4
sVneighboors
p9255
g4
sVshoulders
p9256
g4
sVquality
p9257
g4
ssS'3556'
p9258
(dp9259
sS'3555'
p9260
(dp9261
Vfriends
p9262
g4
sVfoods
p9263
g4
sVplace
p9264
g4
ssS'3554'
p9265
(dp9266
Vnaan
p9267
g31
ssS'3553'
p9268
(dp9269
Vtables
p9270
g8
ssS'3551'
p9271
(dp9272
Vcareful
p9273
g31
sVspice
p9274
g31
ssS'3558'
p9275
(dp9276
Vdishes
p9277
g4
ssS'919'
p9278
(dp9279
Vfamily
p9280
g31
ssS'2997'
p9281
(dp9282
Vdelicious
p9283
g4
ssS'918'
p9284
(dp9285
sS'2910'
p9286
(dp9287
Vny
p9288
g4
sVplace
p9289
g4
sVyears
p9290
g4
ssS'2911'
p9291
(dp9292
Vfood
p9293
g4
sVmenu
p9294
g4
sVsetting
p9295
g4
sVservice
p9296
g4
ssS'2912'
p9297
(dp9298
Vlamb
p9299
g4
sVdishes
p9300
g4
sVshrimp
p9301
g4
sVpistachio
p9302
g4
sVbiscuits
p9303
g4
sVcream
p9304
g4
ssS'1798'
p9305
(dp9306
Vtable
p9307
g8
sVkitchen
p9308
g8
sVcorridor
p9309
g8
sVtime
p9310
g8
ssS'2914'
p9311
(dp9312
Vprune
p9313
g31
ssS'2915'
p9314
(dp9315
Vservice
p9316
g31
sVfood
p9317
g31
sVambiance
p9318
g31
sVreviews
p9319
g31
sVstaff
p9320
g31
sVwait
p9321
g31
ssS'719'
p9322
(dp9323
Vappetizers
p9324
g4
sVdrinks
p9325
g4
sVanything
p9326
g4
sVtime
p9327
g4
ssS'718'
p9328
(dp9329
Vplace
p9330
g4
sVspot
p9331
g4
ssS'1793'
p9332
(dp9333
Vcheck
p9334
g31
sVhour
p9335
g31
sVdrinks
p9336
g31
ssS'2919'
p9337
(dp9338
Vreviewer
p9339
g4
ssS'1791'
p9340
(dp9341
Vreview
p9342
g4
ssS'714'
p9343
(dp9344
sS'1797'
p9345
(dp9346
Vpink
p9347
g4
sVplace
p9348
g8
sVservice
p9349
g8
ssS'712'
p9350
(dp9351
Vdate
p9352
g8
sVanything
p9353
g8
sVservice
p9354
g8
ssS'711'
p9355
(dp9356
Vamount
p9357
g4
sVpeople
p9358
g4
ssS'710'
p9359
(dp9360
Vfood
p9361
g31
ssS'716'
p9362
(dp9363
sS'660'
p9364
(dp9365
Vtimes
p9366
g31
ssS'917'
p9367
(dp9368
Vservice
p9369
g4
ssS'1069'
p9370
(dp9371
Vworld
p9372
g4
ssS'1068'
p9373
(dp9374
Vdiet
p9375
g8
ssS'2179'
p9376
(dp9377
Vfriends
p9378
g4
sVyears
p9379
g4
ssS'1061'
p9380
(dp9381
Vservice
p9382
g4
ssS'1060'
p9383
(dp9384
Vbit
p9385
g4
sVtoppings
p9386
g4
ssS'1063'
p9387
(dp9388
sS'1062'
p9389
(dp9390
Vbagel
p9391
g8
sVdrawback
p9392
g8
ssS'1065'
p9393
(dp9394
Vfood
p9395
g4
sVnothing
p9396
g4
sVprice
p9397
g4
sVfancy
p9398
g4
ssS'1064'
p9399
(dp9400
sS'1067'
p9401
(dp9402
Vbagel
p9403
g8
ssS'1066'
p9404
(dp9405
Vfood
p9406
g31
sVapetizers
p9407
g31
ssS'1669'
p9408
(dp9409
Vsomeone
p9410
g31
sVplace
p9411
g31
ssS'1668'
p9412
(dp9413
Vcuisine
p9414
g4
ssS'1667'
p9415
(dp9416
Vfood
p9417
g31
sVambience
p9418
g31
sVyorkers
p9419
g31
sVappreciation
p9420
g31
sVpeople
p9421
g31
ssS'1666'
p9422
(dp9423
Vfood
p9424
g8
sVvisit
p9425
g8
sVwait
p9426
g8
ssS'1665'
p9427
(dp9428
Vway
p9429
g8
sVdrinks
p9430
g8
ssS'1664'
p9431
(dp9432
Vfood
p9433
g31
sVservice
p9434
g8
ssS'1663'
p9435
(dp9436
Vreservation
p9437
g31
sVwife
p9438
g31
sVtable
p9439
g31
ssS'1662'
p9440
(dp9441
Vsushi
p9442
g31
ssS'1661'
p9443
(dp9444
sS'1660'
p9445
(dp9446
Vfood
p9447
g31
sVthing
p9448
g31
ssS'1087'
p9449
(dp9450
Vplanet
p9451
g8
sVplace
p9452
g8
ssS'1086'
p9453
(dp9454
sS'593'
p9455
(dp9456
Vnew
p9457
g8
sVyork
p9458
g8
sVdeal
p9459
g8
ssS'592'
p9460
(dp9461
Vtime
p9462
g4
ssS'595'
p9463
(dp9464
Vparts
p9465
g4
ssS'594'
p9466
(dp9467
Vambience
p9468
g31
sVfood
p9469
g31
sVthing
p9470
g31
ssS'597'
p9471
(dp9472
Vplace
p9473
g4
ssS'596'
p9474
(dp9475
Vnothing
p9476
g31
sVrestaurant
p9477
g4
ssS'599'
p9478
(dp9479
Vfood
p9480
g4
ssS'598'
p9481
(dp9482
Vfood
p9483
g4
sVatmosphere
p9484
g4
sVservice
p9485
g4
ssS'1089'
p9486
(dp9487
Vsandwiches
p9488
g8
sVway
p9489
g8
ssS'1088'
p9490
(dp9491
sS'3140'
p9492
(dp9493
Vprices
p9494
g4
sVsum
p9495
g4
ssS'3141'
p9496
(dp9497
Vfood
p9498
g4
sVservice
p9499
g4
sVtimes
p9500
g4
ssS'3142'
p9501
(dp9502
Videa
p9503
g8
ssS'3144'
p9504
(dp9505
Vtable
p9506
g8
sVgroup
p9507
g8
sVservice
p9508
g8
ssS'3145'
p9509
(dp9510
Vdim
p9511
g31
sVsum
p9512
g31
ssS'3146'
p9513
(dp9514
Vreviews
p9515
g8
sVdim
p9516
g8
sVsum
p9517
g8
sVplace
p9518
g8
sVdinner
p9519
g8
ssS'3147'
p9520
(dp9521
Vrestaurant
p9522
g4
ssS'3148'
p9523
(dp9524
Vrice
p9525
g31
sVcart
p9526
g31
ssS'2825'
p9527
(dp9528
sS'2826'
p9529
(dp9530
Vavenue
p9531
g4
ssS'2827'
p9532
(dp9533
Vfood
p9534
g8
sVambience
p9535
g8
sVaverage
p9536
g8
sVservice
p9537
g8
ssS'2822'
p9538
(dp9539
Vfish
p9540
g4
sVguests
p9541
g4
sVsalad
p9542
g4
sVpizza
p9543
g4
ssS'2823'
p9544
(dp9545
Vfood
p9546
g4
sVambience
p9547
g4
sVservice
p9548
g4
ssS'3384'
p9549
(dp9550
sS'3382'
p9551
(dp9552
Vflavors
p9553
g4
sVmenu
p9554
g4
ssS'3383'
p9555
(dp9556
Vhouse
p9557
g4
sVwine
p9558
g4
ssS'3380'
p9559
(dp9560
Vprices
p9561
g4
sVnothing
p9562
g31
sVportions
p9563
g4
ssS'3381'
p9564
(dp9565
Vplate
p9566
g4
sVfact
p9567
g4
sVpeople
p9568
g4
ssS'3388'
p9569
(dp9570
Vway
p9571
g8
ssS'713'
p9572
(dp9573
Vmoney
p9574
g8
sVservice
p9575
g8
ssS'1409'
p9576
(dp9577
Vlunch
p9578
g31
sVcouple
p9579
g31
sVneighborhood
p9580
g31
sVtimes
p9581
g31
ssS'1408'
p9582
(dp9583
Vrestaurant
p9584
g4
ssS'1403'
p9585
(dp9586
Vcity
p9587
g4
sVrestaurant
p9588
g4
ssS'1402'
p9589
(dp9590
Vfood
p9591
g4
sVexpert
p9592
g4
ssS'1401'
p9593
(dp9594
Vthumbs
p9595
g8
ssS'1400'
p9596
(dp9597
Vplace
p9598
g4
ssS'1407'
p9599
(dp9600
Vseats
p9601
g8
ssS'1404'
p9602
(dp9603
Vprices
p9604
g4
sVamazin
p9605
g4
ssS'1546'
p9606
(dp9607
Vfood
p9608
g31
sVdeli
p9609
g31
sVpeople
p9610
g31
ssS'449'
p9611
(dp9612
Vgarlic
p9613
g4
sVpizza
p9614
g4
ssS'448'
p9615
(dp9616
Vcrust
p9617
g8
sVpies
p9618
g8
ssS'1339'
p9619
(dp9620
Vlunch
p9621
g31
sVweekday
p9622
g31
ssS'1338'
p9623
(dp9624
Vfood
p9625
g4
sVline
p9626
g8
sVservice
p9627
g8
ssS'1491'
p9628
(dp9629
Vcrust
p9630
g4
sVsauce
p9631
g4
ssS'693'
p9632
(dp9633
Veverything
p9634
g4
sVdecor
p9635
g4
sVservice
p9636
g4
sVcool
p9637
g4
ssS'443'
p9638
(dp9639
Vnyc
p9640
g4
sVtastes
p9641
g4
sVpizza
p9642
g4
sVtoppings
p9643
g4
sVbread
p9644
g4
ssS'442'
p9645
(dp9646
Vproblem
p9647
g4
ssS'441'
p9648
(dp9649
Vservice
p9650
g8
ssS'440'
p9651
(dp9652
Vrestaurants
p9653
g4
ssS'447'
p9654
(dp9655
Vplace
p9656
g4
sVpizza
p9657
g4
ssS'1330'
p9658
(dp9659
Vhour
p9660
g8
ssS'445'
p9661
(dp9662
sS'444'
p9663
(dp9664
Vparmigana
p9665
g4
ssS'1545'
p9666
(dp9667
Vlot
p9668
g8
ssS'696'
p9669
(dp9670
Vfood
p9671
g4
sVsaul
p9672
g4
sVtimes
p9673
g4
ssS'1631'
p9674
(dp9675
Vlist
p9676
g4
sVmeal
p9677
g4
sVwine
p9678
g4
ssS'697'
p9679
(dp9680
Vstreet
p9681
g4
sVrestaurant
p9682
g4
ssS'1933'
p9683
(dp9684
Vdinner
p9685
g31
sVbirthday
p9686
g31
ssS'39'
p9687
(dp9688
Vorder
p9689
g31
sVwaitress
p9690
g31
ssS'38'
p9691
(dp9692
Vboths
p9693
g8
sVtable
p9694
g8
sVparty
p9695
g8
ssS'1540'
p9696
(dp9697
Vtuna
p9698
g4
sVminutes
p9699
g4
ssS'1932'
p9700
(dp9701
Vnight
p9702
g4
sVexperience
p9703
g4
sVrestaurant
p9704
g4
ssS'30'
p9705
(dp9706
Vvisit
p9707
g8
sVbartender
p9708
g8
ssS'37'
p9709
(dp9710
Vbar
p9711
g4
sVstaff
p9712
g4
ssS'36'
p9713
(dp9714
Vdining
p9715
g8
sVexperience
p9716
g8
ssS'35'
p9717
(dp9718
sS'34'
p9719
(dp9720
Vbar
p9721
g31
sVbartender
p9722
g31
sVpeople
p9723
g31
ssS'1537'
p9724
(dp9725
Vexperience
p9726
g4
sVrestaurant
p9727
g4
ssS'1240'
p9728
(dp9729
Vcook
p9730
g4
ssS'1535'
p9731
(dp9732
Vfood
p9733
g4
sVcounter
p9734
g8
sVorder
p9735
g8
sVbusiness
p9736
g4
ssS'1242'
p9737
(dp9738
Vrice
p9739
g4
ssS'645'
p9740
(dp9741
sS'1244'
p9742
(dp9743
Vthai
p9744
g31
sVdrink
p9745
g31
sVfriends
p9746
g31
ssS'647'
p9747
(dp9748
Vfood
p9749
g4
sVdesserts
p9750
g4
sVwow
p9751
g4
sVcourse
p9752
g4
ssS'1530'
p9753
(dp9754
Vdining
p9755
g31
sVarea
p9756
g8
ssS'649'
p9757
(dp9758
Vummmmm
p9759
g4
sVlife
p9760
g4
sVlobster
p9761
g4
sVtime
p9762
g4
sVplace
p9763
g4
sVmeal
p9764
g4
sVhusband
p9765
g4
ssS'648'
p9766
(dp9767
Vmoney
p9768
g4
sVmeal
p9769
g4
ssS'3098'
p9770
(dp9771
Vdrinks
p9772
g4
ssS'1539'
p9773
(dp9774
Vmenu
p9775
g31
sVsection
p9776
g31
sVdogs
p9777
g31
ssS'1538'
p9778
(dp9779
Vcheese
p9780
g31
sVtuna
p9781
g31
sVsandwich
p9782
g31
ssS'339'
p9783
(dp9784
Vsushi
p9785
g8
ssS'338'
p9786
(dp9787
Vwater
p9788
g31
sVsoup
p9789
g31
sVsauce
p9790
g31
ssS'335'
p9791
(dp9792
Vsmile
p9793
g4
sVmanager
p9794
g4
sVpart
p9795
g4
sVexperience
p9796
g4
sVwoman
p9797
g4
ssS'334'
p9798
(dp9799
Vfood
p9800
g4
sVservice
p9801
g4
ssS'337'
p9802
(dp9803
Vfood
p9804
g8
sVexcuse
p9805
g8
ssS'336'
p9806
(dp9807
Vrestaurant
p9808
g4
ssS'331'
p9809
(dp9810
Vupper
p9811
g8
sVfriend
p9812
g4
sVrestaurant
p9813
g8
ssS'330'
p9814
(dp9815
sS'333'
p9816
(dp9817
Vboy
p9818
g8
ssS'332'
p9819
(dp9820
Vnyc
p9821
g8
sVsushi
p9822
g8
sVrestaurant
p9823
g8
ssS'2061'
p9824
(dp9825
sS'1633'
p9826
(dp9827
Vrao
p9828
g4
sVrestaurant
p9829
g4
ssS'543'
p9830
(dp9831
Vino
p9832
g31
sVtrip
p9833
g31
sVpoint
p9834
g31
ssS'1901'
p9835
(dp9836
Vvibe
p9837
g4
sVpeople
p9838
g4
ssS'3467'
p9839
(dp9840
Vfood
p9841
g4
ssS'653'
p9842
(dp9843
Visland
p9844
g4
sVmanhattan
p9845
g4
sVrestaurant
p9846
g4
ssS'3464'
p9847
(dp9848
Vreviews
p9849
g8
sVplaces
p9850
g8
sVpeople
p9851
g8
ssS'1085'
p9852
(dp9853
Vtrust
p9854
g8
sVtime
p9855
g8
ssS'8'
p9856
(dp9857
Veverything
p9858
g8
sVthing
p9859
g8
sVservice
p9860
g8
sVpeople
p9861
g8
ssS'3463'
p9862
(dp9863
Vfood
p9864
g31
sVatmosphere
p9865
g31
ssS'1496'
p9866
(dp9867
Vservice
p9868
g4
ssS'842'
p9869
(dp9870
Vprices
p9871
g8
sVplace
p9872
g8
sVservice
p9873
g8
ssS'1466'
p9874
(dp9875
Vunion
p9876
g8
sVconversation
p9877
g8
sVattorney
p9878
g8
sVside
p9879
g8
ssS'841'
p9880
(dp9881
Vnothing
p9882
g31
ssS'840'
p9883
(dp9884
Vfood
p9885
g31
sVfish
p9886
g4
ssS'3375'
p9887
(dp9888
Vweek
p9889
g4
sVparty
p9890
g31
ssS'2854'
p9891
(dp9892
Vdining
p9893
g4
sVservice
p9894
g4
ssS'3638'
p9895
(dp9896
Vspecials
p9897
g4
sVcheese
p9898
g4
sVpelligrino
p9899
g4
sVlunch
p9900
g4
sVpizza
p9901
g4
ssS'3639'
p9902
(dp9903
Vhouse
p9904
g4
sVsalad
p9905
g4
ssS'3636'
p9906
(dp9907
Vfood
p9908
g31
sVny
p9909
g31
sVway
p9910
g31
ssS'3637'
p9911
(dp9912
Vplace
p9913
g4
sVblock
p9914
g4
sVpeople
p9915
g4
ssS'3634'
p9916
(dp9917
Vanyone
p9918
g4
sVdinner
p9919
g4
sVfamily
p9920
g4
ssS'3635'
p9921
(dp9922
Vdining
p9923
g4
sVexperience
p9924
g4
ssS'3632'
p9925
(dp9926
Vkitchen
p9927
g4
ssS'3633'
p9928
(dp9929
Vservice
p9930
g4
sVfamily
p9931
g4
ssS'3630'
p9932
(dp9933
sS'3631'
p9934
(dp9935
Vstyles
p9936
g4
sVplace
p9937
g4
sVpizza
p9938
g4
ssS'849'
p9939
(dp9940
Vevening
p9941
g31
ssS'848'
p9942
(dp9943
Vexperience
p9944
g4
ssS'2347'
p9945
(dp9946
Vive
p9947
g4
sVspot
p9948
g4
sVtimes
p9949
g4
ssS'2341'
p9950
(dp9951
Vreservation
p9952
g4
sVtime
p9953
g4
ssS'2349'
p9954
(dp9955
Vsalad
p9956
g4
sVshrimp
p9957
g4
ssS'2348'
p9958
(dp9959
Vfun
p9960
g4
sVreservations
p9961
g4
sVdinner
p9962
g4
sVscenery
p9963
g4
sVschool
p9964
g4
ssS'2469'
p9965
(dp9966
Vglass
p9967
g4
sVeverything
p9968
g4
ssS'2987'
p9969
(dp9970
Vfood
p9971
g4
sVplate
p9972
g4
sVatmosphere
p9973
g4
ssS'2067'
p9974
(dp9975
Vdecor
p9976
g4
sVservice
p9977
g8
ssS'3708'
p9978
(dp9979
Vnyc
p9980
g4
ssS'3709'
p9981
(dp9982
Vshrimp
p9983
g4
sVwife
p9984
g4
ssS'1889'
p9985
(dp9986
sS'1888'
p9987
(dp9988
Vny
p9989
g31
sVplace
p9990
g8
sVdays
p9991
g8
sVboyfriend
p9992
g8
ssS'1887'
p9993
(dp9994
Vtables
p9995
g4
sVdinner
p9996
g4
sVplace
p9997
g4
ssS'3703'
p9998
(dp9999
Vcheese
p10000
g31
ssS'3700'
p10001
(dp10002
Vplace
p10003
g4
sVpeople
p10004
g4
ssS'1884'
p10005
(dp10006
Vmenu
p10007
g31
sVsteak
p10008
g31
sVselections
p10009
g4
ssS'3706'
p10010
(dp10011
Vnight
p10012
g4
ssS'3707'
p10013
(dp10014
Vportion
p10015
g4
sVpastrami
p10016
g4
ssS'3704'
p10017
(dp10018
sS'3705'
p10019
(dp10020
Vplace
p10021
g4
ssS'2121'
p10022
(dp10023
Vindoor
p10024
g4
ssS'2120'
p10025
(dp10026
Vseating
p10027
g4
sVlocation
p10028
g4
ssS'2123'
p10029
(dp10030
Vfeeling
p10031
g4
sVnobu
p10032
g4
sVdeal
p10033
g4
ssS'2122'
p10034
(dp10035
Vportion
p10036
g4
sVsushi
p10037
g4
sVsizes
p10038
g4
ssS'2125'
p10039
(dp10040
Vsushi
p10041
g4
sVlargest
p10042
g4
ssS'2124'
p10043
(dp10044
Vstaff
p10045
g4
ssS'948'
p10046
(dp10047
sS'949'
p10048
(dp10049
Vwaiter
p10050
g31
sVdate
p10051
g31
sVtea
p10052
g31
sVwine
p10053
g31
ssS'946'
p10054
(dp10055
Vdesserts
p10056
g31
sVdrinks
p10057
g31
ssS'2128'
p10058
(dp10059
Vsushi
p10060
g4
sVvalue
p10061
g4
sVservice
p10062
g4
ssS'944'
p10063
(dp10064
Vfriend
p10065
g31
ssS'1457'
p10066
(dp10067
Vprimi
p10068
g4
sVportions
p10069
g4
sVwife
p10070
g4
ssS'942'
p10071
(dp10072
Vprices
p10073
g4
ssS'943'
p10074
(dp10075
Vchoices
p10076
g4
sVwine
p10077
g4
ssS'940'
p10078
(dp10079
Vparis
p10080
g4
ssS'941'
p10081
(dp10082
Vservice
p10083
g4
ssS'3038'
p10084
(dp10085
Vtaste
p10086
g4
ssS'2564'
p10087
(dp10088
Vfamily
p10089
g4
sVnight
p10090
g4
ssS'1594'
p10091
(dp10092
Vfood
p10093
g4
ssS'642'
p10094
(dp10095
sS'2653'
p10096
(dp10097
Vprices
p10098
g8
sVmenu
p10099
g8
sVportion
p10100
g8
sVquality
p10101
g8
sVbit
p10102
g8
ssS'2652'
p10103
(dp10104
Vsunglasses
p10105
g8
sVspot
p10106
g8
sVrestaurant
p10107
g8
ssS'2651'
p10108
(dp10109
Vpast
p10110
g31
sVdinner
p10111
g31
sVplace
p10112
g31
ssS'2650'
p10113
(dp10114
Vdining
p10115
g4
sVplace
p10116
g4
sVfamily
p10117
g4
ssS'2657'
p10118
(dp10119
Vreservations
p10120
g8
sVmemorial
p10121
g8
sVweekend
p10122
g8
sVday
p10123
g8
ssS'2656'
p10124
(dp10125
Vplace
p10126
g4
ssS'2655'
p10127
(dp10128
Vsalad
p10129
g8
ssS'2654'
p10130
(dp10131
sS'133'
p10132
(dp10133
Vthings
p10134
g31
sVatmosphere
p10135
g31
sVwaiters
p10136
g31
ssS'132'
p10137
(dp10138
Vfood
p10139
g4
sVprice
p10140
g4
sVservice
p10141
g4
ssS'3414'
p10142
(dp10143
Vfood
p10144
g4
sVcity
p10145
g4
ssS'3415'
p10146
(dp10147
sS'137'
p10148
(dp10149
Vplace
p10150
g4
ssS'136'
p10151
(dp10152
Vtakeout
p10153
g4
sVquality
p10154
g4
ssS'3410'
p10155
(dp10156
Vappetizers
p10157
g4
sVshrimp
p10158
g4
ssS'134'
p10159
(dp10160
Vfood
p10161
g4
ssS'1931'
p10162
(dp10163
Vwaiter
p10164
g4
ssS'139'
p10165
(dp10166
Vfood
p10167
g4
sVservice
p10168
g4
ssS'138'
p10169
(dp10170
Vprosperity
p10171
g8
sVtranslation
p10172
g8
sVwong
p10173
g4
sVplace
p10174
g8
ssS'3418'
p10175
(dp10176
Vnumber
p10177
g4
sVdishes
p10178
g4
sVchoices
p10179
g4
ssS'3419'
p10180
(dp10181
Vcuisine
p10182
g31
sVindian
p10183
g31
ssS'2019'
p10184
(dp10185
Vspicy
p10186
g8
sVfish
p10187
g8
sVpieces
p10188
g8
sVhalf
p10189
g8
sVeater
p10190
g8
sVboyfriend
p10191
g8
ssS'2018'
p10192
(dp10193
Vappetizer
p10194
g31
ssS'2015'
p10195
(dp10196
Vartisanal
p10197
g4
sVdinner
p10198
g4
sVexperience
p10199
g4
sVboyfriend
p10200
g4
ssS'2017'
p10201
(dp10202
Vhuge
p10203
g4
sVportions
p10204
g4
ssS'2016'
p10205
(dp10206
Vcheese
p10207
g31
sVfondue
p10208
g31
ssS'2011'
p10209
(dp10210
Vmenu
p10211
g8
sVchoices
p10212
g8
sVcourse
p10213
g8
sVrestaurants
p10214
g8
ssS'2010'
p10215
(dp10216
Vweek
p10217
g31
sVdinner
p10218
g31
sVnight
p10219
g31
sVrestaurant
p10220
g31
ssS'2012'
p10221
(dp10222
Vfood
p10223
g4
sVconversation
p10224
g4
sVtable
p10225
g4
ssS'183'
p10226
(dp10227
Vday
p10228
g31
sVservice
p10229
g31
ssS'3562'
p10230
(dp10231
Vevening
p10232
g4
sVencounter
p10233
g4
sVfriend
p10234
g4
ssS'3563'
p10235
(dp10236
Vfood
p10237
g31
sVeast
p10238
g31
sVstreet
p10239
g31
sVblock
p10240
g31
sVrestaurants
p10241
g31
ssS'3561'
p10242
(dp10243
Veateries
p10244
g4
sVyears
p10245
g4
sVtaj
p10246
g4
sVblock
p10247
g4
sVrestaurants
p10248
g4
ssS'3566'
p10249
(dp10250
Vline
p10251
g4
ssS'3567'
p10252
(dp10253
Vline
p10254
g31
ssS'3564'
p10255
(dp10256
Vdeals
p10257
g4
sVline
p10258
g31
sVestablishment
p10259
g4
ssS'3565'
p10260
(dp10261
Vwindows
p10262
g8
sVstreet
p10263
g8
sVseats
p10264
g8
ssS'1590'
p10265
(dp10266
Vtime
p10267
g4
ssS'2903'
p10268
(dp10269
Vfood
p10270
g4
sVtimes
p10271
g4
ssS'2902'
p10272
(dp10273
Vfood
p10274
g4
sVdining
p10275
g4
ssS'2901'
p10276
(dp10277
Vcity
p10278
g4
sVatmosphere
p10279
g4
sVrestaurant
p10280
g4
sVfood
p10281
g4
sVyork
p10282
g4
sVnew
p10283
g4
ssS'2900'
p10284
(dp10285
Vdessert
p10286
g4
sVbeverages
p10287
g4
ssS'2907'
p10288
(dp10289
Vtable
p10290
g4
sVproblem
p10291
g4
sVservice
p10292
g4
ssS'709'
p10293
(dp10294
Vfood
p10295
g4
sVprices
p10296
g4
ssS'2905'
p10297
(dp10298
Vlist
p10299
g31
sVorder
p10300
g31
sVwine
p10301
g31
ssS'3035'
p10302
(dp10303
Vtaste
p10304
g4
sVrestaurant
p10305
g4
ssS'704'
p10306
(dp10307
Vprices
p10308
g4
sVthai
p10309
g4
sVpad
p10310
g4
ssS'705'
p10311
(dp10312
Vfood
p10313
g4
sVnot
p10314
g4
sVportions
p10315
g4
ssS'2909'
p10316
(dp10317
Vdessert
p10318
g8
ssS'2908'
p10319
(dp10320
Vreservations
p10321
g31
ssS'700'
p10322
(dp10323
Vprice
p10324
g4
sVmanhattan
p10325
g4
ssS'701'
p10326
(dp10327
Vthai
p10328
g4
ssS'702'
p10329
(dp10330
Vfood
p10331
g4
sVatmosphere
p10332
g4
sVdrinks
p10333
g4
ssS'703'
p10334
(dp10335
Vbit
p10336
g8
sVrestaurant
p10337
g8
sVgroup
p10338
g8
sVtimes
p10339
g8
ssS'89'
p10340
(dp10341
Vfood
p10342
g4
sVrestaurants
p10343
g4
sVlist
p10344
g4
sVservice
p10345
g4
sVwine
p10346
g4
ssS'1593'
p10347
(dp10348
Vfamily
p10349
g4
sVtime
p10350
g4
ssS'82'
p10351
(dp10352
Vambience
p10353
g4
sVfires
p10354
g4
sVwine
p10355
g4
ssS'83'
p10356
(dp10357
Vprices
p10358
g4
ssS'80'
p10359
(dp10360
Vplace
p10361
g4
ssS'81'
p10362
(dp10363
Vwork
p10364
g8
ssS'87'
p10365
(dp10366
Vreviews
p10367
g4
sVrestaurant
p10368
g4
ssS'84'
p10369
(dp10370
Vdate
p10371
g8
ssS'85'
p10372
(dp10373
Vchocolate
p10374
g4
ssS'1743'
p10375
(dp10376
Vcheese
p10377
g4
sVmozzarella
p10378
g4
sVpizzaria
p10379
g4
sVpizza
p10380
g4
ssS'1659'
p10381
(dp10382
Vnigiri
p10383
g31
ssS'1652'
p10384
(dp10385
Vprices
p10386
g4
sVatmosphere
p10387
g4
sVplace
p10388
g4
sVservice
p10389
g4
ssS'1653'
p10390
(dp10391
sS'1650'
p10392
(dp10393
Vdraw
p10394
g4
sVsushi
p10395
g4
ssS'1651'
p10396
(dp10397
Vcatch
p10398
g4
sVplate
p10399
g4
sVpig
p10400
g4
ssS'1656'
p10401
(dp10402
Vtuna
p10403
g4
sVspicy
p10404
g4
sVsalmon
p10405
g4
ssS'1654'
p10406
(dp10407
Vnew
p10408
g4
ssS'1655'
p10409
(dp10410
Vsushi
p10411
g4
sVplace
p10412
g4
ssS'586'
p10413
(dp10414
Vrao
p10415
g4
ssS'3214'
p10416
(dp10417
Vlocations
p10418
g4
ssS'584'
p10419
(dp10420
Vnyc
p10421
g4
sVatmosphere
p10422
g4
sVservice
p10423
g4
ssS'585'
p10424
(dp10425
Vtable
p10426
g8
sVluck
p10427
g8
ssS'582'
p10428
(dp10429
Vyears
p10430
g4
sVtimes
p10431
g4
ssS'583'
p10432
(dp10433
sS'580'
p10434
(dp10435
Vcake
p10436
g4
sVchocolate
p10437
g4
ssS'581'
p10438
(dp10439
sS'3216'
p10440
(dp10441
Vfish
p10442
g8
sVrice
p10443
g8
ssS'588'
p10444
(dp10445
Vfood
p10446
g4
sVexperience
p10447
g4
sVservice
p10448
g4
ssS'589'
p10449
(dp10450
Vscene
p10451
g4
ssS'3150'
p10452
(dp10453
Vfood
p10454
g31
sVnothing
p10455
g31
ssS'3157'
p10456
(dp10457
Vbagel
p10458
g4
sVcheese
p10459
g4
sVcream
p10460
g4
sVwheat
p10461
g4
sVeverything
p10462
g4
ssS'3156'
p10463
(dp10464
Vtables
p10465
g8
ssS'3155'
p10466
(dp10467
Vweekends
p10468
g8
sVservice
p10469
g8
ssS'3154'
p10470
(dp10471
Vbagel
p10472
g4
ssS'1982'
p10473
(dp10474
sS'2835'
p10475
(dp10476
Vgroup
p10477
g8
sVplace
p10478
g8
sVservice
p10479
g8
ssS'2834'
p10480
(dp10481
sS'2833'
p10482
(dp10483
Vsummer
p10484
g4
sVpatio
p10485
g4
ssS'2832'
p10486
(dp10487
Vfood
p10488
g4
sVfilling
p10489
g4
sVservice
p10490
g4
ssS'2831'
p10491
(dp10492
Voutside
p10493
g4
sVdining
p10494
g4
sVceiling
p10495
g4
sVroom
p10496
g4
sVworld
p10497
g4
ssS'2830'
p10498
(dp10499
sS'1436'
p10500
(dp10501
Vmenu
p10502
g4
sVfish
p10503
g4
sVspicy
p10504
g4
sVbean
p10505
g4
sVchicken
p10506
g4
ssS'1437'
p10507
(dp10508
Vspicy
p10509
g31
ssS'3393'
p10510
(dp10511
Vfood
p10512
g8
sVnyc
p10513
g8
sVthai
p10514
g8
sVplaces
p10515
g8
sVpeople
p10516
g8
ssS'1435'
p10517
(dp10518
Vlamb
p10519
g4
sVfood
p10520
g4
sVfish
p10521
g4
sVchicken
p10522
g4
sVquality
p10523
g4
sVprice
p10524
g4
ssS'1432'
p10525
(dp10526
Vnyc
p10527
g4
sVgrand
p10528
g4
sVrestaurant
p10529
g4
ssS'1433'
p10530
(dp10531
Vchef
p10532
g31
sVsichuan
p10533
g31
sVchinatown
p10534
g31
ssS'1430'
p10535
(dp10536
Vfood
p10537
g31
sVchinatown
p10538
g31
sVplace
p10539
g31
sVvalue
p10540
g31
sVrestaurants
p10541
g31
ssS'3396'
p10542
(dp10543
Veverything
p10544
g4
ssS'418'
p10545
(dp10546
Vfood
p10547
g8
sVminutes
p10548
g8
ssS'3213'
p10549
(dp10550
Vluxury
p10551
g8
ssS'1438'
p10552
(dp10553
Vfood
p10554
g8
sVsauce
p10555
g8
sVplace
p10556
g8
ssS'1439'
p10557
(dp10558
Vfood
p10559
g8
sVmenu
p10560
g8
sVamerican
p10561
g8
sVchinese
p10562
g8
ssS'1349'
p10563
(dp10564
Vfun
p10565
g4
sVevening
p10566
g4
sVfriends
p10567
g4
ssS'458'
p10568
(dp10569
Vfamily
p10570
g4
sVrestaurant
p10571
g4
ssS'459'
p10572
(dp10573
Veverything
p10574
g4
sVingredients
p10575
g4
ssS'450'
p10576
(dp10577
Vtender
p10578
g4
ssS'451'
p10579
(dp10580
Vslice
p10581
g4
sVmeal
p10582
g4
ssS'452'
p10583
(dp10584
Vwaiters
p10585
g31
ssS'1343'
p10586
(dp10587
Vfish
p10588
g4
sVoil
p10589
g4
ssS'454'
p10590
(dp10591
Vfavorite
p10592
g4
ssS'1345'
p10593
(dp10594
Vseasoning
p10595
g8
sVsauce
p10596
g8
sVtexture
p10597
g8
ssS'1346'
p10598
(dp10599
Vlunch
p10600
g4
sVdinner
p10601
g31
sVingredients
p10602
g4
ssS'457'
p10603
(dp10604
Vdinner
p10605
g31
ssS'3702'
p10606
(dp10607
Vcheese
p10608
g8
sVexistant
p10609
g8
ssS'1082'
p10610
(dp10611
Vchalk
p10612
g31
sVmenu
p10613
g31
sVsounds
p10614
g31
ssS'1885'
p10615
(dp10616
Vfood
p10617
g4
ssS'766'
p10618
(dp10619
Vsum
p10620
g4
ssS'517'
p10621
(dp10622
Vmenu
p10623
g4
sVwine
p10624
g4
ssS'3701'
p10625
(dp10626
Vomelletes
p10627
g8
sVvariety
p10628
g8
ssS'3368'
p10629
(dp10630
Vmint
p10631
g8
ssS'1883'
p10632
(dp10633
sS'832'
p10634
(dp10635
Vfood
p10636
g8
sVgrand
p10637
g8
ssS'1882'
p10638
(dp10639
Vgroup
p10640
g31
sVkinda
p10641
g8
ssS'656'
p10642
(dp10643
Vanyone
p10644
g4
ssS'657'
p10645
(dp10646
Vwait
p10647
g4
ssS'654'
p10648
(dp10649
Vrestaurant
p10650
g4
sVbest
p10651
g4
sVarea
p10652
g4
ssS'655'
p10653
(dp10654
Vtaste
p10655
g4
sVfood
p10656
g4
sVrestaurant
p10657
g4
sVyears
p10658
g4
ssS'652'
p10659
(dp10660
Vmoney
p10661
g31
ssS'3088'
p10662
(dp10663
Vcosmopolitan
p10664
g4
sVtime
p10665
g4
ssS'650'
p10666
(dp10667
Vqueens
p10668
g4
sVrestaurants
p10669
g4
ssS'651'
p10670
(dp10671
Vscampi
p10672
g4
sVantipasti
p10673
g4
sVshrimp
p10674
g4
ssS'3085'
p10675
(dp10676
Vbar
p10677
g4
sVplace
p10678
g4
sVjoints
p10679
g4
ssS'3084'
p10680
(dp10681
Vfood
p10682
g4
sVchaat
p10683
g4
sVappetizers
p10684
g4
sVbombay
p10685
g4
ssS'3087'
p10686
(dp10687
Vthing
p10688
g8
sVpeople
p10689
g8
sVyork
p10690
g8
sVnew
p10691
g8
sVdrinks
p10692
g8
ssS'3086'
p10693
(dp10694
Vplace
p10695
g8
sVlot
p10696
g8
sVdrinks
p10697
g4
ssS'3081'
p10698
(dp10699
Vlamb
p10700
g4
sVanything
p10701
g4
sVshrimp
p10702
g4
ssS'3080'
p10703
(dp10704
Vfood
p10705
g4
sVflavoring
p10706
g4
ssS'3083'
p10707
(dp10708
Vfood
p10709
g4
sVwait
p10710
g4
sVstaff
p10711
g4
ssS'3082'
p10712
(dp10713
Vchance
p10714
g4
sVrestaurant
p10715
g31
ssS'1886'
p10716
(dp10717
Vservice
p10718
g31
ssS'314'
p10719
(dp10720
Vcity
p10721
g4
sVquality
p10722
g4
sVoysters
p10723
g4
sVhour
p10724
g4
ssS'1992'
p10725
(dp10726
Veverything
p10727
g4
sViron
p10728
g4
sVtable
p10729
g4
ssS'2127'
p10730
(dp10731
Vterrific
p10732
g4
sVmenu
p10733
g4
sVrolls
p10734
g4
sVdishes
p10735
g4
ssS'2126'
p10736
(dp10737
Vprices
p10738
g4
sVservice
p10739
g4
ssS'2129'
p10740
(dp10741
Vsushi
p10742
g4
ssS'947'
p10743
(dp10744
Vchat
p10745
g4
ssS'945'
p10746
(dp10747
Vchairs
p10748
g4
sVtables
p10749
g4
sVservice
p10750
g4
ssS'54'
p10751
(dp10752
Vday
p10753
g4
sVway
p10754
g4
ssS'188'
p10755
(dp10756
Vservice
p10757
g8
sVfood
p10758
g8
sVpart
p10759
g8
sVlot
p10760
g8
sVtime
p10761
g8
sVquality
p10762
g8
ssS'1081'
p10763
(dp10764
Vcomplaint
p10765
g8
sVcost
p10766
g8
sVmeal
p10767
g8
ssS'322'
p10768
(dp10769
sS'323'
p10770
(dp10771
Vspecials
p10772
g8
sVmenu
p10773
g8
sVoutside
p10774
g8
sVsea
p10775
g8
ssS'3597'
p10776
(dp10777
Vweek
p10778
g31
sVreviews
p10779
g31
sVrestaurant
p10780
g31
ssS'327'
p10781
(dp10782
Vneed
p10783
g4
sVwork
p10784
g4
sVpeople
p10785
g4
sVidea
p10786
g8
sVrestaurant
p10787
g4
ssS'324'
p10788
(dp10789
Vspecials
p10790
g31
sVquestions
p10791
g31
ssS'328'
p10792
(dp10793
Vfish
p10794
g31
sVplace
p10795
g31
sVday
p10796
g31
sVtrip
p10797
g31
ssS'329'
p10798
(dp10799
Vprice
p10800
g4
sVoysters
p10801
g4
sVservice
p10802
g4
ssS'3629'
p10803
(dp10804
Vpizza
p10805
g4
ssS'3628'
p10806
(dp10807
Vtrip
p10808
g31
ssS'3621'
p10809
(dp10810
Vfood
p10811
g4
sVbalance
p10812
g4
sVdiamond
p10813
g4
sVhomemade
p10814
g4
ssS'564'
p10815
(dp10816
Vtable
p10817
g8
ssS'3623'
p10818
(dp10819
Vny
p10820
g31
sVplaces
p10821
g4
ssS'3622'
p10822
(dp10823
sS'3625'
p10824
(dp10825
Vfood
p10826
g4
sVpeople
p10827
g4
ssS'3624'
p10828
(dp10829
sS'3627'
p10830
(dp10831
Vneighborhood
p10832
g4
ssS'3626'
p10833
(dp10834
Vnyc
p10835
g4
sVpizza
p10836
g4
sVplace
p10837
g8
sVcharts
p10838
g4
sVpeople
p10839
g4
ssS'1881'
p10840
(dp10841
sS'2330'
p10842
(dp10843
Vfamily
p10844
g31
ssS'3070'
p10845
(dp10846
sS'2332'
p10847
(dp10848
Vfood
p10849
g4
sVprices
p10850
g4
ssS'2333'
p10851
(dp10852
Vdakshin
p10853
g4
sVside
p10854
g4
sVrestaurant
p10855
g4
ssS'2334'
p10856
(dp10857
Vprices
p10858
g31
sVmenu
p10859
g31
sVdinner
p10860
g31
ssS'2335'
p10861
(dp10862
Vprices
p10863
g4
sVchicken
p10864
g4
sVmarsala
p10865
g4
ssS'2336'
p10866
(dp10867
Vmanagement
p10868
g4
sVambiance
p10869
g4
ssS'2337'
p10870
(dp10871
Vlunch
p10872
g4
sVfixe
p10873
g4
ssS'2338'
p10874
(dp10875
sS'1341'
p10876
(dp10877
Vservice
p10878
g4
ssS'3072'
p10879
(dp10880
Vservice
p10881
g31
ssS'2537'
p10882
(dp10883
Vfood
p10884
g8
sVengine
p10885
g8
sVambiance
p10886
g8
ssS'3073'
p10887
(dp10888
Vfood
p10889
g4
sVworld
p10890
g4
ssS'1880'
p10891
(dp10892
Vstreet
p10893
g4
sVplace
p10894
g4
sVexperience
p10895
g4
sVpeople
p10896
g4
ssS'1591'
p10897
(dp10898
sS'2959'
p10899
(dp10900
Vsummer
p10901
g4
sVseating
p10902
g4
sVgarden
p10903
g4
ssS'3710'
p10904
(dp10905
Vdeli
p10906
g4
sVprice
p10907
g4
ssS'3077'
p10908
(dp10909
Vsurprise
p10910
g4
ssS'3078'
p10911
(dp10912
sS'3079'
p10913
(dp10914
Vnyc
p10915
g4
sVplace
p10916
g4
sVrestaurants
p10917
g31
ssS'2488'
p10918
(dp10919
Vbar
p10920
g31
sVbread
p10921
g4
sVgroup
p10922
g4
sVsaturday
p10923
g4
sVnight
p10924
g4
ssS'2486'
p10925
(dp10926
Vconversation
p10927
g8
ssS'2487'
p10928
(dp10929
Vlexington
p10930
g4
sVmeal
p10931
g4
sVdishes
p10932
g4
sVrestaurants
p10933
g4
ssS'2484'
p10934
(dp10935
Vweek
p10936
g4
sVvisit
p10937
g4
sVchristmas
p10938
g4
ssS'2485'
p10939
(dp10940
Vdish
p10941
g8
sVmenu
p10942
g8
sVflavor
p10943
g8
sVrice
p10944
g8
sVportions
p10945
g8
ssS'2482'
p10946
(dp10947
Vchicken
p10948
g4
ssS'2483'
p10949
(dp10950
Vprix
p10951
g8
sVfixe
p10952
g8
sVmeal
p10953
g8
ssS'3252'
p10954
(dp10955
sS'2248'
p10956
(dp10957
Vrecommendation
p10958
g4
ssS'2249'
p10959
(dp10960
Vfood
p10961
g8
sVfan
p10962
g8
sVeast
p10963
g8
sVquality
p10964
g8
sVvillage
p10965
g8
ssS'2244'
p10966
(dp10967
Vthai
p10968
g4
sVnoodles
p10969
g4
sVchicken
p10970
g4
sVshrimp
p10971
g4
ssS'2245'
p10972
(dp10973
Vservice
p10974
g8
ssS'2246'
p10975
(dp10976
Vsuan
p10977
g4
ssS'2247'
p10978
(dp10979
Voutside
p10980
g4
sVfeature
p10981
g4
ssS'2240'
p10982
(dp10983
Vfood
p10984
g4
sVsauce
p10985
g4
sVservice
p10986
g4
ssS'2241'
p10987
(dp10988
Vstop
p10989
g4
sVneighborhood
p10990
g4
ssS'2242'
p10991
(dp10992
Vplace
p10993
g8
sVfriends
p10994
g4
ssS'2243'
p10995
(dp10996
Vsuan
p10997
g4
sVstudents
p10998
g4
sVcollege
p10999
g4
sVlocation
p11000
g4
sVprices
p11001
g4
sVfact
p11002
g4
ssS'2464'
p11003
(dp11004
Vaffordable
p11005
g4
sVspecial
p11006
g4
ssS'994'
p11007
(dp11008
Vprices
p11009
g4
ssS'2466'
p11010
(dp11011
Vplace
p11012
g31
sVnight
p11013
g31
ssS'2467'
p11014
(dp11015
Vfood
p11016
g4
sVwine
p11017
g4
ssS'2460'
p11018
(dp11019
Vrestaurant
p11020
g4
ssS'990'
p11021
(dp11022
sS'993'
p11023
(dp11024
Vsetting
p11025
g4
ssS'2463'
p11026
(dp11027
Vmodern
p11028
g4
sVcozy
p11029
g4
ssS'999'
p11030
(dp11031
Vstreet
p11032
g8
ssS'998'
p11033
(dp11034
Vlawns
p11035
g4
sVrestaurant
p11036
g4
ssS'120'
p11037
(dp11038
Vworld
p11039
g4
sVschool
p11040
g4
ssS'121'
p11041
(dp11042
sS'122'
p11043
(dp11044
sS'123'
p11045
(dp11046
sS'3405'
p11047
(dp11048
Vfood
p11049
g4
sVtouch
p11050
g4
ssS'3404'
p11051
(dp11052
Vfood
p11053
g4
sVplace
p11054
g4
ssS'126'
p11055
(dp11056
Vseating
p11057
g31
sVpeople
p11058
g31
ssS'127'
p11059
(dp11060
Vnoodle
p11061
g4
sVdishes
p11062
g4
ssS'3409'
p11063
(dp11064
Vcuisine
p11065
g4
sVplace
p11066
g4
sVnight
p11067
g4
ssS'3408'
p11068
(dp11069
Vrestaurants
p11070
g31
ssS'1020'
p11071
(dp11072
sS'3379'
p11073
(dp11074
Vfood
p11075
g4
sVupper
p11076
g4
sVsquare
p11077
g4
sVplace
p11078
g4
sVmanhattan
p11079
g4
ssS'3417'
p11080
(dp11081
Vmenu
p11082
g4
sVtiffin
p11083
g4
sVfurniture
p11084
g4
sVrestaurant
p11085
g4
ssS'1921'
p11086
(dp11087
Vfood
p11088
g4
sVheights
p11089
g4
sVstaff
p11090
g4
ssS'3378'
p11091
(dp11092
Vwaiter
p11093
g8
sVlook
p11094
g8
ssS'131'
p11095
(dp11096
Vwong
p11097
g4
sVestablishment
p11098
g4
ssS'2068'
p11099
(dp11100
Vplace
p11101
g4
ssS'2069'
p11102
(dp11103
sS'2798'
p11104
(dp11105
sS'2799'
p11106
(dp11107
Vprices
p11108
g4
ssS'1187'
p11109
(dp11110
sS'2060'
p11111
(dp11112
Vjersey
p11113
g4
sVplaces
p11114
g4
ssS'2793'
p11115
(dp11116
Vnothing
p11117
g8
ssS'2062'
p11118
(dp11119
Vlunch
p11120
g4
sVtamarind
p11121
g4
ssS'2791'
p11122
(dp11123
Vpasta
p11124
g8
sVseafood
p11125
g8
sVspecial
p11126
g8
ssS'2064'
p11127
(dp11128
Vvegetable
p11129
g4
ssS'2797'
p11130
(dp11131
Vfood
p11132
g4
sVcomfort
p11133
g4
sVplace
p11134
g4
ssS'2066'
p11135
(dp11136
Vdishes
p11137
g8
sVselections
p11138
g4
ssS'2795'
p11139
(dp11140
Vrange
p11141
g8
ssS'1185'
p11142
(dp11143
Vlunch
p11144
g4
sVdinner
p11145
g4
sVplace
p11146
g4
ssS'135'
p11147
(dp11148
Vprice
p11149
g31
sVrice
p11150
g31
sVnoodles
p11151
g31
sVdishes
p11152
g31
ssS'1182'
p11153
(dp11154
Vdumplings
p11155
g4
sVfood
p11156
g4
sVprice
p11157
g4
ssS'3411'
p11158
(dp11159
Veverything
p11160
g4
sVfriend
p11161
g4
ssS'1183'
p11162
(dp11163
Vsoup
p11164
g4
ssS'3371'
p11165
(dp11166
Vpasta
p11167
g4
sVnew
p11168
g4
sVpizza
p11169
g4
sVyork
p11170
g4
sVrestaurants
p11171
g4
ssS'1181'
p11172
(dp11173
Vkind
p11174
g31
sVdoor
p11175
g31
sVfood
p11176
g31
sVplace
p11177
g31
sVline
p11178
g31
sVboyfriend
p11179
g31
ssS'3579'
p11180
(dp11181
Vpiece
p11182
g4
sVpastries
p11183
g4
ssS'3578'
p11184
(dp11185
Vfood
p11186
g8
sVplace
p11187
g8
sVservice
p11188
g8
sVpeople
p11189
g8
ssS'3575'
p11190
(dp11191
Vwaiter
p11192
g31
sVcouple
p11193
g31
sVdoor
p11194
g31
ssS'3574'
p11195
(dp11196
Vtable
p11197
g4
sVtotal
p11198
g4
sVhour
p11199
g8
ssS'3577'
p11200
(dp11201
sS'3576'
p11202
(dp11203
Vfriends
p11204
g4
ssS'3571'
p11205
(dp11206
Vfood
p11207
g31
sVvow
p11208
g8
sVservice
p11209
g8
ssS'3570'
p11210
(dp11211
Vtip
p11212
g31
sVpeople
p11213
g31
ssS'3573'
p11214
(dp11215
Vpeople
p11216
g8
ssS'3572'
p11217
(dp11218
Vwaiter
p11219
g8
sVmoney
p11220
g8
sVguys
p11221
g8
ssS'2666'
p11222
(dp11223
Vprice
p11224
g8
sVexperience
p11225
g8
ssS'2667'
p11226
(dp11227
Vdessert
p11228
g8
sVservice
p11229
g8
ssS'2664'
p11230
(dp11231
Vpractice
p11232
g8
ssS'2665'
p11233
(dp11234
Vplace
p11235
g8
ssS'2662'
p11236
(dp11237
sS'2663'
p11238
(dp11239
Vweek
p11240
g4
sVreservation
p11241
g4
sVplace
p11242
g4
sVnyc
p11243
g4
ssS'722'
p11244
(dp11245
Vambience
p11246
g4
ssS'2668'
p11247
(dp11248
Vwaiter
p11249
g8
sVwater
p11250
g31
ssS'2669'
p11251
(dp11252
Vchance
p11253
g31
sVvisit
p11254
g31
ssS'3668'
p11255
(dp11256
Vchicken
p11257
g4
sVpresentation
p11258
g4
ssS'2938'
p11259
(dp11260
Vtable
p11261
g4
sVdoor
p11262
g4
sVservice
p11263
g4
sVserver
p11264
g4
ssS'2939'
p11265
(dp11266
Vfood
p11267
g4
sVquality
p11268
g4
sVrestaurants
p11269
g4
ssS'2936'
p11270
(dp11271
Vtaste
p11272
g8
sVright
p11273
g8
sVscents
p11274
g8
ssS'2937'
p11275
(dp11276
Vreservation
p11277
g31
sVnight
p11278
g31
ssS'2934'
p11279
(dp11280
sS'2935'
p11281
(dp11282
Vplace
p11283
g4
sVside
p11284
g4
sVnight
p11285
g4
ssS'2932'
p11286
(dp11287
Vwaiter
p11288
g8
sVspecials
p11289
g8
ssS'2933'
p11290
(dp11291
Vspecials
p11292
g31
sVdecision
p11293
g31
ssS'2930'
p11294
(dp11295
Vreservation
p11296
g31
sVcouple
p11297
g31
sVplace
p11298
g31
sVexpectations
p11299
g31
sVoccasion
p11300
g31
ssS'2931'
p11301
(dp11302
Vfood
p11303
g4
sVbit
p11304
g4
ssS'3595'
p11305
(dp11306
Vfood
p11307
g8
ssS'1645'
p11308
(dp11309
Vsushi
p11310
g4
sVquality
p11311
g4
sVplaces
p11312
g4
sVfriend
p11313
g4
ssS'1644'
p11314
(dp11315
Vdeal
p11316
g4
ssS'1647'
p11317
(dp11318
Vweek
p11319
g4
sVeverything
p11320
g4
ssS'1646'
p11321
(dp11322
Vspicy
p11323
g4
sVrolls
p11324
g4
sVfried
p11325
g4
ssS'1641'
p11326
(dp11327
Vtown
p11328
g4
sVtuna
p11329
g4
sVspicy
p11330
g4
sVeveryone
p11331
g4
sVrolls
p11332
g4
ssS'1640'
p11333
(dp11334
Vhours
p11335
g4
ssS'1643'
p11336
(dp11337
Vmenu
p11338
g8
sVrice
p11339
g8
sVavocado
p11340
g8
sVrolls
p11341
g8
ssS'1642'
p11342
(dp11343
Vproblem
p11344
g4
sVstaff
p11345
g4
sVyears
p11346
g4
ssS'1649'
p11347
(dp11348
Vcuisine
p11349
g4
sVsushi
p11350
g4
sVplace
p11351
g4
sVmenu
p11352
g4
ssS'1648'
p11353
(dp11354
Vrestuarant
p11355
g4
ssS'1742'
p11356
(dp11357
Vblock
p11358
g4
ssS'729'
p11359
(dp11360
Vprices
p11361
g31
sVatmosphere
p11362
g31
ssS'579'
p11363
(dp11364
Vpasta
p11365
g4
sVdish
p11366
g4
ssS'604'
p11367
(dp11368
Vbeer
p11369
g4
sVselection
p11370
g4
ssS'573'
p11371
(dp11372
Vservice
p11373
g4
sVwine
p11374
g4
ssS'572'
p11375
(dp11376
Vravioli
p11377
g4
ssS'571'
p11378
(dp11379
Vbirthday
p11380
g4
sVtime
p11381
g4
ssS'570'
p11382
(dp11383
sS'576'
p11384
(dp11385
Vfriend
p11386
g31
ssS'575'
p11387
(dp11388
Vparty
p11389
g8
sVnoise
p11390
g8
ssS'574'
p11391
(dp11392
Vprices
p11393
g31
ssS'2808'
p11394
(dp11395
Vfood
p11396
g4
sVspecials
p11397
g4
sVwaitstaff
p11398
g4
ssS'2809'
p11399
(dp11400
Vplace
p11401
g4
ssS'3168'
p11402
(dp11403
Vbagel
p11404
g31
sVcorner
p11405
g31
sVway
p11406
g31
ssS'3169'
p11407
(dp11408
Vbagel
p11409
g31
sVplace
p11410
g31
ssS'2802'
p11411
(dp11412
Vdinner
p11413
g4
ssS'2803'
p11414
(dp11415
Vyokocho
p11416
g4
ssS'2800'
p11417
(dp11418
sS'2801'
p11419
(dp11420
Vsake
p11421
g4
sVportion
p11422
g4
sVstyle
p11423
g4
sVdishes
p11424
g4
ssS'2806'
p11425
(dp11426
Varea
p11427
g8
sVplace
p11428
g8
sVtristate
p11429
g8
sVyears
p11430
g31
ssS'2807'
p11431
(dp11432
Vplace
p11433
g4
ssS'2804'
p11434
(dp11435
Vnyc
p11436
g4
sVfried
p11437
g4
sVskewers
p11438
g4
ssS'3161'
p11439
(dp11440
Vtaste
p11441
g4
sVbagels
p11442
g4
sVtexture
p11443
g4
ssS'1421'
p11444
(dp11445
Vrestaurant
p11446
g4
ssS'2154'
p11447
(dp11448
Vbagels
p11449
g4
ssS'1997'
p11450
(dp11451
Vhome
p11452
g4
ssS'1425'
p11453
(dp11454
Vcity
p11455
g4
sVhot
p11456
g4
sVpeople
p11457
g4
ssS'3369'
p11458
(dp11459
Vwilliamsburg
p11460
g4
sVspot
p11461
g4
ssS'1426'
p11462
(dp11463
sS'1429'
p11464
(dp11465
Vfood
p11466
g8
sVflavor
p11467
g8
sVsauce
p11468
g8
ssS'1428'
p11469
(dp11470
Vreviews
p11471
g31
sVlunch
p11472
g31
ssS'3366'
p11473
(dp11474
Vfood
p11475
g4
sVpastas
p11476
g4
sVpizza
p11477
g4
ssS'3367'
p11478
(dp11479
Vowner
p11480
g4
sVvibe
p11481
g4
sVbest
p11482
g4
sVservice
p11483
g4
ssS'3360'
p11484
(dp11485
Vcreation
p11486
g8
sVchoices
p11487
g8
ssS'2404'
p11488
(dp11489
Vplayfull
p11490
g4
sVplace
p11491
g4
ssS'3362'
p11492
(dp11493
Vowner
p11494
g4
sVpart
p11495
g4
sVfamily
p11496
g4
ssS'3363'
p11497
(dp11498
Vmonth
p11499
g4
ssS'731'
p11500
(dp11501
Vtaste
p11502
g4
sVexperience
p11503
g4
sVsalad
p11504
g4
ssS'730'
p11505
(dp11506
Vfood
p11507
g4
ssS'733'
p11508
(dp11509
Vtown
p11510
g4
sVlunch
p11511
g4
sVpart
p11512
g4
sVplace
p11513
g4
sVvalue
p11514
g4
ssS'2157'
p11515
(dp11516
Vny
p11517
g31
sVbagels
p11518
g31
ssS'737'
p11519
(dp11520
Vmoney
p11521
g8
sVtime
p11522
g8
sVrestaurant
p11523
g8
ssS'736'
p11524
(dp11525
Vfood
p11526
g4
sVstop
p11527
g4
sVplace
p11528
g4
ssS'739'
p11529
(dp11530
Vfood
p11531
g8
sVwaiter
p11532
g8
sVmeal
p11533
g8
sVwine
p11534
g8
ssS'738'
p11535
(dp11536
Vfood
p11537
g8
sVexperience
p11538
g8
sVservice
p11539
g8
ssS'2151'
p11540
(dp11541
Vhome
p11542
g4
ssS'1358'
p11543
(dp11544
Vspring
p11545
g4
sVprice
p11546
g4
sVnoodles
p11547
g4
sVrolls
p11548
g4
ssS'469'
p11549
(dp11550
Vreviews
p11551
g4
sVhusband
p11552
g4
ssS'468'
p11553
(dp11554
Vplace
p11555
g4
sVkind
p11556
g4
sVneighborhood
p11557
g4
sVrestaurant
p11558
g4
ssS'1353'
p11559
(dp11560
Vfood
p11561
g4
sVbit
p11562
g8
sVnolita
p11563
g4
sVthai
p11564
g8
sVservice
p11565
g8
ssS'1352'
p11566
(dp11567
Vchef
p11568
g4
sVhats
p11569
g4
ssS'467'
p11570
(dp11571
Vtown
p11572
g4
sVrestaurant
p11573
g4
ssS'466'
p11574
(dp11575
Vdishes
p11576
g4
sVmix
p11577
g4
sVpiping
p11578
g4
sVbit
p11579
g4
sVsalads
p11580
g4
sVkitchen
p11581
g4
ssS'461'
p11582
(dp11583
Vmeal
p11584
g4
sVstaff
p11585
g4
ssS'1356'
p11586
(dp11587
Vmodeling
p11588
g8
ssS'1355'
p11589
(dp11590
Vdrinks
p11591
g8
ssS'608'
p11592
(dp11593
Vyears
p11594
g4
ssS'1273'
p11595
(dp11596
Vtastes
p11597
g4
sVfact
p11598
g4
sVpizza
p11599
g4
ssS'937'
p11600
(dp11601
Vfood
p11602
g8
sVprices
p11603
g8
sVquality
p11604
g8
sVservice
p11605
g8
ssS'936'
p11606
(dp11607
Vglasses
p11608
g8
ssS'1519'
p11609
(dp11610
Vbar
p11611
g31
sVstaff
p11612
g4
ssS'1518'
p11613
(dp11614
Vbartender
p11615
g4
sVfood
p11616
g4
sVplace
p11617
g4
sVbar
p11618
g4
sVsteak
p11619
g4
sVdrinks
p11620
g4
ssS'1514'
p11621
(dp11622
Vhome
p11623
g4
sVbar
p11624
g4
sVworld
p11625
g4
sVthings
p11626
g4
ssS'1517'
p11627
(dp11628
Varea
p11629
g8
sVevening
p11630
g8
sVplace
p11631
g8
sVtime
p11632
g8
ssS'934'
p11633
(dp11634
Vlamb
p11635
g8
ssS'1274'
p11636
(dp11637
Vslice
p11638
g4
ssS'1510'
p11639
(dp11640
Vdeal
p11641
g4
ssS'1004'
p11642
(dp11643
Vcity
p11644
g4
sVtrip
p11645
g4
ssS'3184'
p11646
(dp11647
Vfood
p11648
g4
sVthai
p11649
g4
ssS'3185'
p11650
(dp11651
Vlocation
p11652
g4
sVmeal
p11653
g4
sVtime
p11654
g4
ssS'3186'
p11655
(dp11656
Vstaff
p11657
g4
ssS'3187'
p11658
(dp11659
sS'3180'
p11660
(dp11661
Vmoney
p11662
g8
sVconcern
p11663
g8
ssS'3181'
p11664
(dp11665
sS'3182'
p11666
(dp11667
sS'3183'
p11668
(dp11669
Vcuisine
p11670
g31
sVtimes
p11671
g31
ssS'3188'
p11672
(dp11673
Vlunch
p11674
g31
ssS'3189'
p11675
(dp11676
Vfood
p11677
g31
sVambience
p11678
g31
sVlocation
p11679
g31
ssS'3397'
p11680
(dp11681
Vbit
p11682
g4
sVinwood
p11683
g31
ssS'355'
p11684
(dp11685
Vpizza
p11686
g31
ssS'353'
p11687
(dp11688
Vmargarita
p11689
g4
ssS'352'
p11690
(dp11691
Vpizza
p11692
g4
ssS'351'
p11693
(dp11694
Vroll
p11695
g4
ssS'350'
p11696
(dp11697
Vapppetizers
p11698
g4
ssS'359'
p11699
(dp11700
Vsort
p11701
g4
sVtable
p11702
g4
sVpizza
p11703
g4
ssS'3107'
p11704
(dp11705
Vtable
p11706
g8
ssS'3612'
p11707
(dp11708
Vhome
p11709
g4
ssS'2298'
p11710
(dp11711
Vstaff
p11712
g4
sVingredients
p11713
g4
ssS'2323'
p11714
(dp11715
Vlunch
p11716
g4
sVbuffet
p11717
g4
ssS'2322'
p11718
(dp11719
sS'2321'
p11720
(dp11721
Vconversation
p11722
g4
sVplace
p11723
g4
ssS'2320'
p11724
(dp11725
Vservice
p11726
g8
sVpeople
p11727
g8
ssS'2325'
p11728
(dp11729
Vselection
p11730
g31
sVdishes
p11731
g31
ssS'2324'
p11732
(dp11733
Vweekends
p11734
g4
ssS'2329'
p11735
(dp11736
Vowner
p11737
g4
ssS'2328'
p11738
(dp11739
Vfood
p11740
g4
sVservice
p11741
g4
ssS'289'
p11742
(dp11743
Vreview
p11744
g4
sVsunday
p11745
g4
sVexperience
p11746
g4
ssS'288'
p11747
(dp11748
Vneighborhood
p11749
g4
ssS'280'
p11750
(dp11751
Vfood
p11752
g4
sVservice
p11753
g4
ssS'282'
p11754
(dp11755
Vtable
p11756
g31
sVplace
p11757
g31
sVguests
p11758
g31
sVthing
p11759
g31
ssS'285'
p11760
(dp11761
Vportions
p11762
g8
sVsauces
p11763
g8
sVservice
p11764
g8
sVrestaurant
p11765
g8
ssS'284'
p11766
(dp11767
Vquality
p11768
g8
sVvalue
p11769
g8
ssS'287'
p11770
(dp11771
Vdish
p11772
g4
sVtuna
p11773
g4
ssS'1441'
p11774
(dp11775
Vimitation
p11776
g8
sVcouple
p11777
g8
sVseafood
p11778
g8
sVpot
p11779
g8
sVshrimp
p11780
g8
ssS'1440'
p11781
(dp11782
Vnothing
p11783
g8
sVsoup
p11784
g8
sVpepper
p11785
g8
ssS'263'
p11786
(dp11787
Vrestaurant
p11788
g4
ssS'262'
p11789
(dp11790
Vrestaurant
p11791
g4
ssS'261'
p11792
(dp11793
Vchoices
p11794
g4
ssS'260'
p11795
(dp11796
Vdish
p11797
g4
sVmignon
p11798
g4
ssS'267'
p11799
(dp11800
Vbeers
p11801
g4
sVbar
p11802
g4
ssS'266'
p11803
(dp11804
Vstaff
p11805
g4
ssS'265'
p11806
(dp11807
sS'264'
p11808
(dp11809
Vfood
p11810
g4
sVcombinations
p11811
g4
ssS'269'
p11812
(dp11813
Vfriends
p11814
g4
sVgem
p11815
g4
ssS'268'
p11816
(dp11817
Vrestaurants
p11818
g31
ssS'1562'
p11819
(dp11820
Vplace
p11821
g4
sVbargain
p11822
g4
ssS'2499'
p11823
(dp11824
sS'2498'
p11825
(dp11826
Vprice
p11827
g4
sVneighborhood
p11828
g4
sVmeal
p11829
g4
ssS'2491'
p11830
(dp11831
Vfood
p11832
g4
sVservice
p11833
g4
sVdrinks
p11834
g4
ssS'1296'
p11835
(dp11836
Vprices
p11837
g8
sVtime
p11838
g8
ssS'2493'
p11839
(dp11840
Vexperience
p11841
g4
ssS'2492'
p11842
(dp11843
Vlamb
p11844
g4
sVchicken
p11845
g4
sVsteak
p11846
g4
sVsandwhich
p11847
g4
ssS'2495'
p11848
(dp11849
Vfood
p11850
g4
sVpretension
p11851
g4
sVthai
p11852
g4
sVplace
p11853
g4
sVlot
p11854
g4
ssS'2494'
p11855
(dp11856
Vplace
p11857
g4
sVthai
p11858
g4
sVneighborhood
p11859
g4
ssS'2497'
p11860
(dp11861
Vthai
p11862
g4
sVpad
p11863
g4
ssS'2496'
p11864
(dp11865
Vmasaman
p11866
g4
sVflavor
p11867
g4
sVspicy
p11868
g4
ssS'2193'
p11869
(dp11870
Vthai
p11871
g8
ssS'1566'
p11872
(dp11873
Vfood
p11874
g4
ssS'2259'
p11875
(dp11876
Vsake
p11877
g31
sVdoor
p11878
g31
sVharu
p11879
g31
sVbar
p11880
g31
sVrestaurant
p11881
g31
ssS'2258'
p11882
(dp11883
sS'2257'
p11884
(dp11885
sS'2256'
p11886
(dp11887
Vsake
p11888
g4
sVsomething
p11889
g4
sVside
p11890
g4
ssS'2254'
p11891
(dp11892
Vhip
p11893
g4
sVseating
p11894
g4
sVcrowd
p11895
g4
ssS'2253'
p11896
(dp11897
Vcurry
p11898
g4
ssS'2252'
p11899
(dp11900
Vpalates
p11901
g4
ssS'2251'
p11902
(dp11903
Vcuisine
p11904
g4
sVeastsider
p11905
g4
ssS'2250'
p11906
(dp11907
sS'2477'
p11908
(dp11909
Vdinner
p11910
g31
ssS'988'
p11911
(dp11912
Vfood
p11913
g4
ssS'3224'
p11914
(dp11915
Vmenu
p11916
g8
sVeverything
p11917
g8
ssS'2473'
p11918
(dp11919
sS'2472'
p11920
(dp11921
sS'2471'
p11922
(dp11923
Vthing
p11924
g8
sVprice
p11925
g8
sVwaitress
p11926
g8
sVglass
p11927
g8
ssS'982'
p11928
(dp11929
Vmenu
p11930
g4
sVchicken
p11931
g4
sVgrass
p11932
g4
sVkicker
p11933
g4
sVbeef
p11934
g4
ssS'983'
p11935
(dp11936
Vlunch
p11937
g4
sVdinner
p11938
g4
sVfilling
p11939
g4
ssS'980'
p11940
(dp11941
sS'981'
p11942
(dp11943
Vdecor
p11944
g8
sVstaff
p11945
g8
sVlack
p11946
g8
sVrestaurants
p11947
g8
sVmeals
p11948
g8
sVwait
p11949
g8
ssS'986'
p11950
(dp11951
Vgermain
p11952
g31
sVsabbath
p11953
g31
sVsongs
p11954
g31
ssS'987'
p11955
(dp11956
Vpark
p11957
g4
ssS'984'
p11958
(dp11959
Vcubes
p11960
g4
sVnha
p11961
g4
sVbeef
p11962
g4
sVtimes
p11963
g4
ssS'985'
p11964
(dp11965
Vselection
p11966
g31
sVmusic
p11967
g31
sVattention
p11968
g31
ssS'115'
p11969
(dp11970
sS'1790'
p11971
(dp11972
Vnew
p11973
g8
sVyork
p11974
g8
sVrestaurant
p11975
g8
ssS'116'
p11976
(dp11977
Vfood
p11978
g4
sVprices
p11979
g4
sVsecret
p11980
g4
sVyears
p11981
g4
sVwine
p11982
g4
ssS'110'
p11983
(dp11984
Vwines
p11985
g31
sVlist
p11986
g4
sVwine
p11987
g31
ssS'119'
p11988
(dp11989
Vsecret
p11990
g4
sVroom
p11991
g4
ssS'3432'
p11992
(dp11993
Vbill
p11994
g31
sVappetizer
p11995
g31
ssS'2785'
p11996
(dp11997
Vstaff
p11998
g4
ssS'2784'
p11999
(dp12000
Vcity
p12001
g4
sVpastas
p12002
g4
sVlasagna
p12003
g4
ssS'2787'
p12004
(dp12005
Vappetizer
p12006
g4
ssS'2786'
p12007
(dp12008
Vdate
p12009
g31
sVlunch
p12010
g31
sVplace
p12011
g31
ssS'2781'
p12012
(dp12013
Vpasta
p12014
g4
ssS'2780'
p12015
(dp12016
Vhost
p12017
g31
ssS'2783'
p12018
(dp12019
Vlunch
p12020
g31
sVdinner
p12021
g31
sVplace
p12022
g4
ssS'2782'
p12023
(dp12024
Vfood
p12025
g4
sVdinners
p12026
g4
sVaverage
p12027
g4
ssS'2789'
p12028
(dp12029
Veveryone
p12030
g4
sVfriend
p12031
g4
ssS'2788'
p12032
(dp12033
sS'2079'
p12034
(dp12035
Vfood
p12036
g4
sVplace
p12037
g4
sVstaff
p12038
g4
ssS'2078'
p12039
(dp12040
Vlunch
p12041
g31
sVtime
p12042
g31
sVrestaurant
p12043
g31
ssS'2072'
p12044
(dp12045
sS'2071'
p12046
(dp12047
sS'2070'
p12048
(dp12049
Vfood
p12050
g4
ssS'2077'
p12051
(dp12052
Vbreads
p12053
g4
ssS'2076'
p12054
(dp12055
Vlamb
p12056
g4
sVspicy
p12057
g4
sVprice
p12058
g4
sVvalue
p12059
g4
sVappetizer
p12060
g4
sVworld
p12061
g4
sVshrimp
p12062
g4
sVvindaloo
p12063
g4
ssS'2075'
p12064
(dp12065
Vreviews
p12066
g4
sVtimes
p12067
g4
ssS'1388'
p12068
(dp12069
Vsecret
p12070
g4
sVmonths
p12071
g4
sVplace
p12072
g4
ssS'1796'
p12073
(dp12074
Vguys
p12075
g4
ssS'3508'
p12076
(dp12077
Vlist
p12078
g4
sVwine
p12079
g4
ssS'3504'
p12080
(dp12081
Vchef
p12082
g31
sVhome
p12083
g4
sVeating
p12084
g31
ssS'3505'
p12085
(dp12086
Vbrick
p12087
g4
sVneapolitan
p12088
g4
sVpizza
p12089
g4
ssS'3506'
p12090
(dp12091
Vcuisine
p12092
g31
sVvisit
p12093
g4
sVneapolitan
p12094
g4
sVsalvatore
p12095
g4
sVyears
p12096
g4
ssS'3507'
p12097
(dp12098
Vatmosphere
p12099
g4
sVwife
p12100
g4
ssS'2671'
p12101
(dp12102
Vmusic
p12103
g4
sVkind
p12104
g4
sVgroup
p12105
g4
sVroofdeck
p12106
g4
ssS'2670'
p12107
(dp12108
Vwent
p12109
g31
ssS'2673'
p12110
(dp12111
sS'2672'
p12112
(dp12113
Vdrink
p12114
g31
ssS'2675'
p12115
(dp12116
sS'2674'
p12117
(dp12118
Vyear
p12119
g4
sVplace
p12120
g4
sVroof
p12121
g4
sVnight
p12122
g4
ssS'2677'
p12123
(dp12124
Vhalf
p12125
g8
sVbar
p12126
g31
sVrestaurant
p12127
g8
ssS'2676'
p12128
(dp12129
Vwest
p12130
g4
sVsetting
p12131
g4
sVside
p12132
g4
sVdinner
p12133
g4
sVstreet
p12134
g4
sVnyc
p12135
g4
sVpo
p12136
g4
ssS'2929'
p12137
(dp12138
sS'2928'
p12139
(dp12140
Vnothing
p12141
g8
sVproblem
p12142
g4
sVprune
p12143
g8
ssS'2921'
p12144
(dp12145
Vfood
p12146
g8
ssS'2920'
p12147
(dp12148
sS'2923'
p12149
(dp12150
Vambiance
p12151
g8
ssS'2922'
p12152
(dp12153
Vprices
p12154
g8
sVresturant
p12155
g8
ssS'2925'
p12156
(dp12157
Vmenu
p12158
g8
ssS'2924'
p12159
(dp12160
Vfood
p12161
g8
sVpepper
p12162
g8
sVsalad
p12163
g8
ssS'2927'
p12164
(dp12165
Vdecor
p12166
g4
sVeast
p12167
g4
sVplace
p12168
g4
sVkind
p12169
g4
sVvillage
p12170
g4
ssS'2926'
p12171
(dp12172
Vbranzino
p12173
g8
ssS'708'
p12174
(dp12175
Vinterior
p12176
g4
sVplace
p12177
g4
ssS'2906'
p12178
(dp12179
Vbeer
p12180
g4
sVice
p12181
g4
ssS'1630'
p12182
(dp12183
Vpasta
p12184
g4
ssS'1987'
p12185
(dp12186
Vservice
p12187
g8
sVtaste
p12188
g8
sVambiance
p12189
g8
sVhand
p12190
g8
sVfood
p12191
g8
sVquality
p12192
g8
sVrestaurants
p12193
g8
ssS'1632'
p12194
(dp12195
Vhouse
p12196
g4
sVbill
p12197
g31
sVmeasures
p12198
g4
ssS'3217'
p12199
(dp12200
Vsushi
p12201
g8
ssS'1634'
p12202
(dp12203
Vfood
p12204
g4
sVmenu
p12205
g4
sVeating
p12206
g4
sVkitchen
p12207
g4
ssS'3211'
p12208
(dp12209
Vpeople
p12210
g8
sVwaiter
p12211
g8
sVreservations
p12212
g8
sVmanager
p12213
g8
sVbeers
p12214
g8
sVtable
p12215
g8
ssS'1980'
p12216
(dp12217
Vsteak
p12218
g4
ssS'1981'
p12219
(dp12220
Vsuits
p12221
g4
ssS'1638'
p12222
(dp12223
Vfood
p12224
g4
sVprices
p12225
g4
ssS'1639'
p12226
(dp12227
Vdesserts
p12228
g8
sVstreet
p12229
g8
sVlist
p12230
g8
sVwine
p12231
g8
ssS'2904'
p12232
(dp12233
Vlamb
p12234
g4
sVchicken
p12235
g4
sVbeef
p12236
g4
sVdishes
p12237
g4
ssS'3218'
p12238
(dp12239
sS'3219'
p12240
(dp12241
Vfood
p12242
g4
sVatmosphere
p12243
g4
sVfabulous
p12244
g4
sVservice
p12245
g4
ssS'1988'
p12246
(dp12247
Vrepeat
p12248
g8
sVwand
p12249
g8
ssS'1989'
p12250
(dp12251
Vdining
p12252
g31
sVvault
p12253
g31
sVdoor
p12254
g31
sVpeople
p12255
g31
ssS'706'
p12256
(dp12257
sS'568'
p12258
(dp12259
Vtable
p12260
g31
sVright
p12261
g31
ssS'569'
p12262
(dp12263
Vexperience
p12264
g8
ssS'2817'
p12265
(dp12266
Vbar
p12267
g4
ssS'2811'
p12268
(dp12269
Vtapas
p12270
g4
ssS'2810'
p12271
(dp12272
sS'2812'
p12273
(dp12274
Vowner
p12275
g31
sVstreet
p12276
g31
sVmarks
p12277
g31
ssS'560'
p12278
(dp12279
Vmenu
p12280
g4
sVdinner
p12281
g4
ssS'561'
p12282
(dp12283
Vmonth
p12284
g4
sVtimes
p12285
g4
ssS'562'
p12286
(dp12287
Vwaiter
p12288
g8
sVtable
p12289
g8
sVdinner
p12290
g8
sVedge
p12291
g8
ssS'563'
p12292
(dp12293
Vtable
p12294
g8
sVheads
p12295
g8
sVdiner
p12296
g8
sVstaff
p12297
g8
ssS'2819'
p12298
(dp12299
Vguests
p12300
g8
sVmorning
p12301
g8
ssS'565'
p12302
(dp12303
sS'566'
p12304
(dp12305
sS'567'
p12306
(dp12307
Vfood
p12308
g8
sVbrulee
p12309
g8
ssS'3178'
p12310
(dp12311
Vmsg
p12312
g8
sVplace
p12313
g8
ssS'3171'
p12314
(dp12315
Vavailable
p12316
g8
sVbig
p12317
g8
ssS'3170'
p12318
(dp12319
Vbagels
p12320
g4
sVspreads
p12321
g4
ssS'3173'
p12322
(dp12323
sS'3172'
p12324
(dp12325
Vbagel
p12326
g4
sVexperience
p12327
g4
ssS'3175'
p12328
(dp12329
Vanything
p12330
g31
sVservice
p12331
g31
ssS'3174'
p12332
(dp12333
Vservice
p12334
g4
ssS'3177'
p12335
(dp12336
Vreviews
p12337
g8
sVthai
p12338
g8
sVplace
p12339
g8
ssS'3176'
p12340
(dp12341
sS'659'
p12342
(dp12343
sS'1188'
p12344
(dp12345
Vfood
p12346
g4
sVok
p12347
g31
sVservice
p12348
g4
ssS'1189'
p12349
(dp12350
Vbucks
p12351
g8
ssS'3377'
p12352
(dp12353
Vbox
p12354
g4
sVwine
p12355
g4
ssS'3376'
p12356
(dp12357
Vorder
p12358
g4
sVduck
p12359
g4
ssS'1184'
p12360
(dp12361
Vdollars
p12362
g4
sVdeal
p12363
g4
ssS'3374'
p12364
(dp12365
Vplace
p12366
g4
ssS'3373'
p12367
(dp12368
Vfree
p12369
g4
sVwine
p12370
g4
ssS'3372'
p12371
(dp12372
Vtime
p12373
g4
ssS'1180'
p12374
(dp12375
Veveryone
p12376
g4
ssS'3370'
p12377
(dp12378
Vnyc
p12379
g4
sVpizza
p12380
g4
ssS'726'
p12381
(dp12382
Vthumbs
p12383
g8
ssS'727'
p12384
(dp12385
Vfood
p12386
g4
sVsushi
p12387
g4
ssS'1748'
p12388
(dp12389
Vservice
p12390
g4
sVpizza
p12391
g4
ssS'1749'
p12392
(dp12393
Vwait
p12394
g31
ssS'720'
p12395
(dp12396
Vplace
p12397
g4
ssS'721'
p12398
(dp12399
Vwarehouse
p12400
g4
sVstreet
p12401
g4
ssS'1745'
p12402
(dp12403
sS'1746'
p12404
(dp12405
Vlot
p12406
g8
ssS'1747'
p12407
(dp12408
Vpie
p12409
g4
sVbusiness
p12410
g4
sVstaff
p12411
g4
ssS'1740'
p12412
(dp12413
sS'1741'
p12414
(dp12415
sS'728'
p12416
(dp12417
Vmenu
p12418
g4
sVvariety
p12419
g4
ssS'1486'
p12420
(dp12421
Vslice
p12422
g4
sVvillage
p12423
g4
ssS'1164'
p12424
(dp12425
Vfood
p12426
g4
sVwait
p12427
g4
ssS'1165'
p12428
(dp12429
Vtrust
p12430
g31
ssS'1166'
p12431
(dp12432
Vplace
p12433
g8
ssS'1167'
p12434
(dp12435
Vthing
p12436
g4
sVsaturday
p12437
g4
sVdumpling
p12438
g4
ssS'1160'
p12439
(dp12440
Vlife
p12441
g4
sVlatin
p12442
g4
ssS'1161'
p12443
(dp12444
Vlady
p12445
g4
sVbar
p12446
g4
sVbartenders
p12447
g4
ssS'1162'
p12448
(dp12449
Vatmosphere
p12450
g4
sVmusic
p12451
g4
ssS'1163'
p12452
(dp12453
Vservice
p12454
g4
ssS'1623'
p12455
(dp12456
Vlist
p12457
g4
sVwine
p12458
g4
ssS'1168'
p12459
(dp12460
Vsoup
p12461
g31
sVrice
p12462
g31
sVpeople
p12463
g31
sVsubway
p12464
g31
sVtable
p12465
g31
ssS'1169'
p12466
(dp12467
Vdollar
p12468
g8
ssS'3092'
p12469
(dp12470
Vsalmon
p12471
g4
ssS'1489'
p12472
(dp12473
Vavenue
p12474
g4
ssS'1366'
p12475
(dp12476
Vstaff
p12477
g4
sVservice
p12478
g8
sVdrinks
p12479
g8
ssS'2913'
p12480
(dp12481
Vny
p12482
g31
sVplace
p12483
g4
sVgem
p12484
g4
ssS'1488'
p12485
(dp12486
Vplaces
p12487
g4
sVpizza
p12488
g4
ssS'1367'
p12489
(dp12490
sS'46'
p12491
(dp12492
Vfood
p12493
g4
sVcity
p12494
g4
sVaverage
p12495
g4
sVheartland
p12496
g4
sVmidtown
p12497
g4
ssS'47'
p12498
(dp12499
Vbeer
p12500
g4
sVplace
p12501
g4
ssS'44'
p12502
(dp12503
Vplace
p12504
g31
ssS'45'
p12505
(dp12506
Vbunch
p12507
g4
sVservice
p12508
g4
sVtimes
p12509
g4
ssS'42'
p12510
(dp12511
sS'43'
p12512
(dp12513
Vproximity
p12514
g4
sVtourists
p12515
g4
ssS'40'
p12516
(dp12517
Vfriends
p12518
g8
sVsalmon
p12519
g8
ssS'41'
p12520
(dp12521
Vfood
p12522
g8
sVservice
p12523
g8
ssS'1568'
p12524
(dp12525
Vyear
p12526
g4
ssS'1569'
p12527
(dp12528
Vexperience
p12529
g4
ssS'1298'
p12530
(dp12531
Vpizza
p12532
g4
ssS'1299'
p12533
(dp12534
Vny
p12535
g31
sVplaces
p12536
g4
ssS'1587'
p12537
(dp12538
Vplace
p12539
g4
sVdifferent
p12540
g4
sVfriends
p12541
g4
sVsomething
p12542
g4
ssS'1560'
p12543
(dp12544
sS'1293'
p12545
(dp12546
Vyuck
p12547
g8
ssS'1290'
p12548
(dp12549
sS'1563'
p12550
(dp12551
Vfood
p12552
g4
ssS'1564'
p12553
(dp12554
Vpeople
p12555
g4
ssS'1565'
p12556
(dp12557
Vmoney
p12558
g31
sVdecor
p12559
g31
ssS'1294'
p12560
(dp12561
Vvegetables
p12562
g8
ssS'1567'
p12563
(dp12564
Vfun
p12565
g4
sVplace
p12566
g8
sVlot
p12567
g8
ssS'1713'
p12568
(dp12569
Vfood
p12570
g4
sVcourse
p12571
g4
sVatmosphere
p12572
g4
sVbit
p12573
g4
sVpeople
p12574
g4
ssS'474'
p12575
(dp12576
Vfood
p12577
g4
sVmoney
p12578
g4
sVstreet
p12579
g4
sVbest
p12580
g4
sVservice
p12581
g4
ssS'796'
p12582
(dp12583
Vfood
p12584
g31
ssS'591'
p12585
(dp12586
Vreview
p12587
g8
ssS'475'
p12588
(dp12589
Vny
p12590
g4
sVexperience
p12591
g4
ssS'795'
p12592
(dp12593
sS'1789'
p12594
(dp12595
Vtown
p12596
g4
sVpart
p12597
g4
sVplace
p12598
g4
ssS'1716'
p12599
(dp12600
Vstrike
p12601
g4
sVplace
p12602
g4
ssS'1715'
p12603
(dp12604
Vmartinis
p12605
g4
ssS'590'
p12606
(dp12607
Vbar
p12608
g31
ssS'732'
p12609
(dp12610
Vburger
p12611
g4
ssS'1714'
p12612
(dp12613
Voil
p12614
g4
sVdishes
p12615
g4
sVjoints
p12616
g4
sVgarlic
p12617
g4
sVdish
p12618
g4
sVnyc
p12619
g4
sVsauce
p12620
g4
ssS'472'
p12621
(dp12622
Vdish
p12623
g8
sVmanager
p12624
g8
sVchicken
p12625
g8
ssS'473'
p12626
(dp12627
sS'3195'
p12628
(dp12629
Vcuisine
p12630
g4
ssS'3194'
p12631
(dp12632
Vfood
p12633
g31
sVperson
p12634
g31
sVthai
p12635
g31
sVfriend
p12636
g31
ssS'476'
p12637
(dp12638
Vway
p12639
g4
ssS'3192'
p12640
(dp12641
Vquantity
p12642
g4
ssS'3191'
p12643
(dp12644
Vcurry
p12645
g4
ssS'3190'
p12646
(dp12647
Vvegetarian
p12648
g4
sVpeople
p12649
g4
sVlot
p12650
g8
sVvariety
p12651
g4
ssS'479'
p12652
(dp12653
Vworld
p12654
g4
ssS'2916'
p12655
(dp12656
Vprice
p12657
g8
sVportions
p12658
g8
ssS'3199'
p12659
(dp12660
Vnothing
p12661
g31
sVpeople
p12662
g31
ssS'3198'
p12663
(dp12664
Vfish
p12665
g4
ss.