(dp0
S'217'
p1
(dp2
sS'762'
p3
(dp4
sS'3495'
p5
(dp6
sS'3049'
p7
(dp8
Vfood
p9
S'positive'
p10
sVlousy
p11
S'neutral'
p12
ssS'134'
p13
(dp14
Vfood
p15
g10
sVprepared
p16
g12
ssS'3041'
p17
(dp18
sS'339'
p19
(dp20
Vsushi
p21
S'negative'
p22
ssS'3045'
p23
(dp24
sS'3126'
p25
(dp26
Vone
p27
g12
ssS'1548'
p28
(dp29
Vfood
p30
g10
ssS'2152'
p31
(dp32
Vbagels
p33
g12
ssS'813'
p34
(dp35
Vpasta
p36
g10
sVappetizers
p37
g12
sVsteak
p38
g22
sV!!!
p39
g10
ssS'2912'
p40
(dp41
Vdishes
p42
g12
ssS'1159'
p43
(dp44
sS'2708'
p45
(dp46
sS'2707'
p47
(dp48
sS'3641'
p49
(dp50
sS'1656'
p51
(dp52
Vtuna
p53
g10
ssS'537'
p54
(dp55
sS'2141'
p56
(dp57
sS'1709'
p58
(dp59
Vfood
p60
g10
ssS'924'
p61
(dp62
V2
p63
g12
sVblocks
p64
g12
sVmeal
p65
g10
sVroom
p66
g10
ssS'3411'
p67
(dp68
sS'1124'
p69
(dp70
Vwaitress
p71
g22
ssS'193'
p72
(dp73
sS'3440'
p74
(dp75
Vprices
p76
g12
sVhigh
p77
g12
ssS'83'
p78
(dp79
sS'3471'
p80
(dp81
Vbeen
p82
g12
ssS'3575'
p83
(dp84
sS'3478'
p85
(dp86
sS'3020'
p87
(dp88
Vamazing
p89
g12
sVgoodness
p90
g10
ssS'2171'
p91
(dp92
sS'1401'
p93
(dp94
sS'2077'
p95
(dp96
sS'586'
p97
(dp98
sS'2769'
p99
(dp100
sS'2609'
p101
(dp102
sS'381'
p103
(dp104
VEverything
p105
g12
sVtasty
p106
g12
ssS'109'
p107
(dp108
Vsalads
p109
g12
ssS'3315'
p110
(dp111
Vevening
p112
g10
ssS'3018'
p113
(dp114
sS'2041'
p115
(dp116
Vthing
p117
g22
ssS'1380'
p118
(dp119
sS'2575'
p120
(dp121
Vbe
p122
g12
ssS'2673'
p123
(dp124
sS'1242'
p125
(dp126
Vrice
p127
g12
ssS'2164'
p128
(dp129
Vbit
p130
g12
ssS'2459'
p131
(dp132
sS'2591'
p133
(dp134
Vwilliamsburg
p135
g12
sVtime
p136
g12
ssS'628'
p137
(dp138
Vcool
p139
g12
sVserver
p140
g10
ssS'2451'
p141
(dp142
Vprices
p143
g12
ssS'1471'
p144
(dp145
Vlarge
p146
g12
sV$
p147
g12
ssS'179'
p148
(dp149
Vprompt
p150
g12
sVService
p151
g12
ssS'2806'
p152
(dp153
sS'3292'
p154
(dp155
Vnotch
p156
g22
sVService
p157
g12
ssS'2882'
p158
(dp159
Vrasamalai
p160
g12
sVlassi
p161
g10
sVexcellent
p162
g12
ssS'2202'
p163
(dp164
sS'3368'
p165
(dp166
sS'2205'
p167
(dp168
Vfood
p169
g10
sVplace
p170
g12
ssS'3081'
p171
(dp172
Vshrimp
p173
g12
ssS'2811'
p174
(dp175
sS'2186'
p176
(dp177
VIt
p178
g12
sVrestaurant
p179
g10
ssS'1593'
p180
(dp181
sS'3077'
p182
(dp183
sS'3170'
p184
(dp185
sS'2211'
p186
(dp187
Vsoup
p188
g22
ssS'3681'
p189
(dp190
Vfood
p191
g10
sVgreat
p192
g12
sVgood
p193
g12
sVdeal
p194
g10
ssS'3372'
p195
(dp196
sS'1180'
p197
(dp198
sS'3208'
p199
(dp200
VTokyo
p201
g12
sVNight
p202
g12
ssS'1455'
p203
(dp204
Vrestaurant
p205
g10
ssS'1105'
p206
(dp207
sS'2751'
p208
(dp209
Vgo
p210
g12
ssS'2105'
p211
(dp212
Vcake
p213
g10
ssS'882'
p214
(dp215
Vfood
p216
g12
sVambiance
p217
g10
ssS'742'
p218
(dp219
Vatmosphere
p220
g12
ssS'745'
p221
(dp222
Vvisit
p223
g10
ssS'746'
p224
(dp225
VI
p226
g12
sVmet
p227
g12
ssS'2630'
p228
(dp229
Vchance
p230
g10
ssS'2460'
p231
(dp232
sS'1057'
p233
(dp234
Vservice
p235
g12
ssS'3343'
p236
(dp237
Vfood
p238
g10
sVinconsistent
p239
g12
ssS'1194'
p240
(dp241
Vcouple
p242
g10
ssS'870'
p243
(dp244
Vfood
p245
g10
sVprices
p246
g12
sVgood
p247
g12
ssS'2740'
p248
(dp249
sS'1112'
p250
(dp251
sS'2507'
p252
(dp253
Vfood
p254
g10
sVgreat
p255
g12
ssS'1293'
p256
(dp257
Vcalzones
p258
g12
sVhorrific
p259
g12
ssS'3188'
p260
(dp261
Vlunch
p262
g10
ssS'1698'
p263
(dp264
sS'201'
p265
(dp266
Vfood
p267
g10
sVprice
p268
g10
sVgood
p269
g12
sVlist
p270
g10
sVwine
p271
g12
ssS'776'
p272
(dp273
Vfood
p274
g10
ssS'1273'
p275
(dp276
Vfact
p277
g10
ssS'1884'
p278
(dp279
Vmenu
p280
g10
ssS'3358'
p281
(dp282
sS'1609'
p283
(dp284
VService
p285
g12
ssS'3546'
p286
(dp287
sS'948'
p288
(dp289
Vit
p290
g12
sV24hrs
p291
g10
ssS'1579'
p292
(dp293
sS'1769'
p294
(dp295
s.