(dp0
S'217'
p1
(dp2
sS'762'
p3
(dp4
sS'3495'
p5
(dp6
sS'3049'
p7
(dp8
Vfood
p9
(dp10
Vfood
p11
S'positive'
p12
ssVlousy
p13
(dp14
g11
S'neutral'
p15
sssS'134'
p16
(dp17
Vfood
p18
(dp19
Vfood
p20
g12
ssVprepared
p21
(dp22
g20
g15
sVprice
p23
g15
sssS'3041'
p24
(dp25
sS'339'
p26
(dp27
Vsushi
p28
(dp29
Vfood
p30
S'negative'
p31
sssS'3045'
p32
(dp33
sS'3126'
p34
(dp35
Vone
p36
(dp37
Vfood
p38
g15
sssS'1548'
p39
(dp40
Vfood
p41
(dp42
Vfood
p43
g12
sssS'2152'
p44
(dp45
Vbagels
p46
(dp47
Vfood
p48
g15
sssS'813'
p49
(dp50
Vpasta
p51
(dp52
Vfood
p53
g12
ssVappetizers
p54
(dp55
g53
g15
ssVsteak
p56
(dp57
g53
g31
sssS'2912'
p58
(dp59
Vdishes
p60
(dp61
Vservice
p62
g15
sssS'1159'
p63
(dp64
sS'2708'
p65
(dp66
sS'2707'
p67
(dp68
sS'3641'
p69
(dp70
sS'1656'
p71
(dp72
Vtuna
p73
(dp74
Vfood
p75
g12
sssS'537'
p76
(dp77
sS'2141'
p78
(dp79
sS'1709'
p80
(dp81
Vfood
p82
(dp83
Vfood
p84
g12
sssS'924'
p85
(dp86
V2
p87
(dp88
Vfood
p89
g15
sVmilitary_service
p90
g15
ssVblocks
p91
(dp92
g89
g15
sVserve
p93
g15
sg90
g15
ssVmeal
p94
(dp95
g89
g12
ssVroom
p96
(dp97
g89
g12
sg90
g12
sssS'3411'
p98
(dp99
sS'1124'
p100
(dp101
Vwaitress
p102
(dp103
Vservice
p104
g31
sssS'193'
p105
(dp106
sS'3440'
p107
(dp108
Vprices
p109
(dp110
Vmonetary_value
p111
g15
ssVhigh
p112
(dp113
Vatmosphere
p114
g15
sg111
g15
sssS'83'
p115
(dp116
sS'3471'
p117
(dp118
Vbeen
p119
(dp120
Vprice
p121
g15
sssS'3575'
p122
(dp123
sS'3478'
p124
(dp125
sS'3020'
p126
(dp127
Vamazing
p128
(dp129
Vprice
p130
g15
ssVgoodness
p131
(dp132
g130
g12
sssS'2171'
p133
(dp134
sS'1401'
p135
(dp136
sS'2077'
p137
(dp138
sS'586'
p139
(dp140
sS'2769'
p141
(dp142
sS'2609'
p143
(dp144
sS'381'
p145
(dp146
Vtasty
p147
(dp148
Vfood
p149
g15
sssS'109'
p150
(dp151
Vsalads
p152
(dp153
Vfood
p154
g15
sssS'3315'
p155
(dp156
Vevening
p157
(dp158
Vfood
p159
g12
sssS'3018'
p160
(dp161
sS'2041'
p162
(dp163
Vthing
p164
(dp165
Vfood
p166
g31
sssS'1380'
p167
(dp168
sS'2575'
p169
(dp170
Vbe
p171
(dp172
Vfood
p173
g15
sssS'2673'
p174
(dp175
sS'1242'
p176
(dp177
Vrice
p178
(dp179
Vfood
p180
g15
sssS'2164'
p181
(dp182
Vbit
p183
(dp184
Vservice
p185
g15
sssS'2459'
p186
(dp187
sS'2591'
p188
(dp189
Vtime
p190
(dp191
Vatmosphere
p192
g15
sssS'628'
p193
(dp194
Vcool
p195
(dp196
Vatmosphere
p197
g15
sVservice
p198
g15
ssVserver
p199
(dp200
g198
g12
sssS'2451'
p201
(dp202
Vprices
p203
(dp204
Vmonetary_value
p205
g15
sssS'1471'
p206
(dp207
Vlarge
p208
(dp209
Vatmosphere
p210
g15
sssS'179'
p211
(dp212
Vprompt
p213
(dp214
Vservice
p215
g15
ssVService
p216
(dp217
g215
g15
sssS'2806'
p218
(dp219
sS'3292'
p220
(dp221
Vnotch
p222
(dp223
Vservice
p224
g31
ssVService
p225
(dp226
g224
g15
sssS'2882'
p227
(dp228
Vexcellent
p229
(dp230
Vfood
p231
g15
sssS'2202'
p232
(dp233
sS'3368'
p234
(dp235
sS'2205'
p236
(dp237
Vfood
p238
(dp239
Vfood
p240
g12
ssVplace
p241
(dp242
g240
g15
sVatmosphere
p243
g15
sssS'3081'
p244
(dp245
Vshrimp
p246
(dp247
Vfood
p248
g15
sssS'2811'
p249
(dp250
sS'2186'
p251
(dp252
VIt
p253
(dp254
Vfood
p255
g15
ssVrestaurant
p256
(dp257
g255
g12
sVservice
p258
g12
sssS'1593'
p259
(dp260
sS'3077'
p261
(dp262
sS'3170'
p263
(dp264
sS'2211'
p265
(dp266
Vsoup
p267
(dp268
Vfood
p269
g31
sssS'3681'
p270
(dp271
Vfood
p272
(dp273
Vfood
p274
g12
sVservice
p275
g12
ssVgreat
p276
(dp277
g275
g15
ssVgood
p278
(dp279
g274
g15
sVprice
p280
g15
sg275
g15
ssVdeal
p281
(dp282
g275
g12
sssS'3372'
p283
(dp284
sS'1180'
p285
(dp286
sS'3208'
p287
(dp288
VTokyo
p289
(dp290
Vfood
p291
g15
sVambiance
p292
g15
ssVNight
p293
(dp294
g291
g15
sssS'1455'
p295
(dp296
Vrestaurant
p297
(dp298
Vservice
p299
g12
sssS'1105'
p300
(dp301
sS'2751'
p302
(dp303
Vgo
p304
(dp305
Vservice
p306
g15
sssS'2105'
p307
(dp308
Vcake
p309
(dp310
Vfood
p311
g12
sssS'882'
p312
(dp313
Vfood
p314
(dp315
Vfood
p316
g15
sVatmosphere
p317
g15
ssVambiance
p318
(dp319
g317
g12
sssS'742'
p320
(dp321
Vatmosphere
p322
(dp323
Vatmosphere
p324
g15
sssS'745'
p325
(dp326
Vvisit
p327
(dp328
Vservice
p329
g12
sssS'746'
p330
(dp331
VI
p332
(dp333
Vfood
p334
g15
ssVmet
p335
(dp336
g334
g15
sVprice
p337
g15
sssS'2630'
p338
(dp339
Vchance
p340
(dp341
Vservice
p342
g12
sssS'2460'
p343
(dp344
sS'1057'
p345
(dp346
Vservice
p347
(dp348
Vservice
p349
g15
sssS'3343'
p350
(dp351
Vfood
p352
(dp353
Vfood
p354
g12
ssVinconsistent
p355
(dp356
g354
g15
sssS'1194'
p357
(dp358
Vcouple
p359
(dp360
Vserve
p361
g12
sssS'870'
p362
(dp363
Vfood
p364
(dp365
Vfood
p366
g12
ssVprices
p367
(dp368
g366
g15
sVprice
p369
g15
sVmonetary_value
p370
g15
ssVgood
p371
(dp372
g366
g15
sg369
g15
sssS'2740'
p373
(dp374
sS'1112'
p375
(dp376
sS'2507'
p377
(dp378
Vfood
p379
(dp380
Vfood
p381
g12
ssVgreat
p382
(dp383
g381
g15
sVservice
p384
g15
sssS'1293'
p385
(dp386
Vhorrific
p387
(dp388
Vfood
p389
g15
sssS'3188'
p390
(dp391
Vlunch
p392
(dp393
Vfood
p394
g12
sssS'1698'
p395
(dp396
sS'201'
p397
(dp398
Vfood
p399
(dp400
Vfood
p401
g12
ssVprice
p402
(dp403
g401
g12
sVprice
p404
g12
sVmonetary_value
p405
g12
ssVgood
p406
(dp407
g401
g15
sg404
g15
ssVlist
p408
(dp409
g401
g12
sg404
g12
sg405
g12
ssVwine
p410
(dp411
g401
g15
sg404
g15
sg405
g15
sssS'776'
p412
(dp413
Vfood
p414
(dp415
Vfood
p416
g12
sssS'1273'
p417
(dp418
Vfact
p419
(dp420
Vfood
p421
g12
sssS'1884'
p422
(dp423
Vmenu
p424
(dp425
Vfood
p426
g12
sssS'3358'
p427
(dp428
sS'1609'
p429
(dp430
VService
p431
(dp432
Vservice
p433
g15
sssS'3546'
p434
(dp435
sS'948'
p436
(dp437
Vit
p438
(dp439
Vfood
p440
g15
sssS'1579'
p441
(dp442
sS'1769'
p443
(dp444
s.