(dp0
S'217'
p1
(dp2
Vand
p3
(dp4
S'pos_tag'
p5
VCC
p6
ssVall
p7
(dp8
g5
VDT
p9
sVrcmod
p10
Vsay
p11
ssVis
p12
(dp13
g5
VVBZ
p14
sVccomp
p15
Vmagnificent
p16
sVnsubj
p17
Vall
p18
ssVmagnificent
p19
(dp20
g5
VJJ
p21
sVcop
p22
Vwas
p23
sVnsubj
p24
Vit
p25
sVmark
p26
Vthat
p27
ssVit
p28
(dp29
g5
VPRP
p30
ssVsay
p31
(dp32
g5
VVB
p33
sVaux
p34
Vcan
p35
sVnsubj
p36
VI
p37
ssVthere
p38
(dp39
g5
VRB
p40
ssV.
p41
(dp42
g5
g41
ssVto
p43
(dp44
g5
VTO
p45
ssVother
p46
(dp47
g5
VJJ
p48
ssVwas
p49
(dp50
g5
VVBD
p51
ssVthat
p52
(dp53
g5
VIN
p54
ssg37
(dp55
g5
VPRP
p56
ssVbirthday
p57
(dp58
g5
VNN
p59
sVposs
p60
Vmy
p61
ssVMy
p62
(dp63
g5
VPRP$
p64
ssVthe
p65
(dp66
g5
VDT
p67
ssVcelebrate
p68
(dp69
g5
VVB
p70
sVaux
p71
Vto
p72
sVdobj
p73
Vbirthday
p74
ssVboyfriend
p75
(dp76
g5
VNN
p77
sVconj_and
p78
g37
sVposs
p79
VMy
p80
ssVcan
p81
(dp82
g5
VMD
p83
ssVnight
p84
(dp85
g5
VNN
p86
sVdet
p87
Vthe
p88
sVamod
p89
Vother
p90
ssVwent
p91
(dp92
g5
VVBD
p93
sVxcomp
p94
Vcelebrate
p95
sVnsubj
p96
Vboyfriend
p97
sVadvmod
p98
Vthere
p99
sVconj_and
p100
Vis
p101
sVtmod
p102
Vnight
p103
ssVmy
p104
(dp105
g5
VPRP$
p106
sssS'762'
p107
(dp108
Va
p109
(dp110
g5
VDT
p111
ssV6
p112
(dp113
g5
VCD
p114
ssVwork
p115
(dp116
g5
VNN
p117
ssV's
p118
(dp119
g5
VPOS
p120
ssg37
(dp121
g5
VPRP
p122
ssVwith
p123
(dp124
g5
VIN
p125
ssVafter
p126
(dp127
g5
VIN
p128
ssg41
(dp129
g5
g41
ssVto
p130
(dp131
g5
VTO
p132
ssVof
p133
(dp134
g5
VIN
p135
ssVgroup
p136
(dp137
g5
VNN
p138
sVprep_of
p139
g112
sVdet
p140
g109
ssVwent
p141
(dp142
g5
VVBD
p143
sVprep_to
p144
VFoo
p145
sVprep_after
p146
Vwork
p147
sVprep_with
p148
Vgroup
p149
sVnsubj
p150
g37
ssVFoo
p151
(dp152
g5
VNNP
p153
sVpossessive
p154
V's
p155
sVnn
p156
VRuby
p157
ssVRuby
p158
(dp159
g5
VNNP
p160
sssS'3495'
p161
(dp162
Vdisappointed
p163
(dp164
g5
VJJ
p165
sVcop
p166
VWas
p167
sVadvmod
p168
Vsurprisingly
p169
ssVWas
p170
(dp171
g5
VVBD
p172
ssVsurprisingly
p173
(dp174
g5
VRB
p175
ssg41
(dp176
g5
g41
sssS'3049'
p177
(dp178
Vand
p179
(dp180
g5
VCC
p181
ssVthe
p182
(dp183
g5
VDT
p184
ssVportions
p185
(dp186
g5
VNNS
p187
sVdet
p188
Vthe
p189
ssVfood
p190
(dp191
g5
VNN
p192
sVdet
p193
VThe
p194
ssVsweet
p195
(dp196
g5
VJJ
p197
sVadvmod
p198
Vtoo
p199
ssV-
p200
(dp201
g5
V:
p202
ssVtiny
p203
(dp204
g5
VJJ
p205
sVdep
p206
Vportions
p207
ssg41
(dp208
g5
g41
ssVlousy
p209
(dp210
g5
VJJ
p211
sVcop
p212
Vwas
p213
sVconj_and
p214
Vtiny
p215
sVconj_or
p216
Vsalty
p217
sVnsubj
p218
Vfood
p219
ssVsalty
p220
(dp221
g5
VJJ
p222
sVadvmod
p223
Vtoo
p224
ssVtoo
p225
(dp226
g5
VRB
p227
ssVThe
p228
(dp229
g5
VDT
p230
ssVwas
p231
(dp232
g5
VVBD
p233
ssVor
p234
(dp235
g5
VCC
p236
sssS'3411'
p237
(dp238
VEven
p239
(dp240
g5
VRB
p241
ssVand
p242
(dp243
g5
VCC
p244
ssVgood
p245
(dp246
g5
VJJ
p247
sVconj_and
p248
Vtasty
p249
ssVeverything
p250
(dp251
g5
VNN
p252
sVamod
p253
Vgood
p254
ssVwas
p255
(dp256
g5
VVBD
p257
sVadvmod
p258
Vhow
p259
sVnsubj
p260
Veverything
p261
ssVcould
p262
(dp263
g5
VMD
p264
ssg41
(dp265
g5
g41
ssVn't
p266
(dp267
g5
VRB
p268
ssVhow
p269
(dp270
g5
VWRB
p271
ssVIndian
p272
(dp273
g5
VJJ
p274
ssVtasty
p275
(dp276
g5
VJJ
p277
ssVbelieve
p278
(dp279
g5
VVB
p280
sVnsubj
p281
Vfriend
p282
sVneg
p283
Vn't
p284
sVadvmod
p285
VEven
p286
sVccomp
p287
Vwas
p288
sVaux
p289
Vcould
p290
ssVmy
p291
(dp292
g5
VPRP$
p293
ssVfriend
p294
(dp295
g5
VNN
p296
sVposs
p297
Vmy
p298
sVamod
p299
VIndian
p300
sssS'3041'
p301
(dp302
VWe
p303
(dp304
g5
VPRP
p305
ssVordered
p306
(dp307
g5
VVBN
p308
sVaux
p309
Vhave
p310
sVdobj
p311
Vtimes
p312
sVnsubj
p313
Vwe
p314
ssVhave
p315
(dp316
g5
VVBP
p317
ssVfor
p318
(dp319
g5
VIN
p320
ssVrestaurant
p321
(dp322
g5
VNN
p323
sVdet
p324
Vthe
p325
ssVwe
p326
(dp327
g5
VPRP
p328
ssVmany
p329
(dp330
g5
VJJ
p331
ssV,
p332
(dp333
g5
g332
ssVbut
p334
(dp335
g5
VCC
p336
ssV've
p337
(dp338
g5
VVBP
p339
ssg41
(dp340
g5
g41
ssVonly
p341
(dp342
g5
VRB
p343
ssVeaten
p344
(dp345
g5
VVBN
p346
sVnsubj
p347
VWe
p348
sVconj_but
p349
Vordered
p350
sVadvmod
p351
Vonce
p352
sVprep_in
p353
Vrestaurant
p354
sVaux
p355
V've
p356
ssVin
p357
(dp358
g5
VIN
p359
ssVdinner
p360
(dp361
g5
VNN
p362
ssVthe
p363
(dp364
g5
VDT
p365
ssVtimes
p366
(dp367
g5
VNNS
p368
sVprep_for
p369
Vdinner
p370
sVquantmod
p371
Vmany
p372
ssVonce
p373
(dp374
g5
VRB
p375
sssS'339'
p376
(dp377
Vawful
p378
(dp379
g5
VJJ
p380
sVcop
p381
Vwas
p382
sVnsubj
p383
Vsushi
p384
ssV!
p385
(dp386
g5
g41
ssVThe
p387
(dp388
g5
VDT
p389
ssVsushi
p390
(dp391
g5
VNN
p392
sVdet
p393
VThe
p394
ssVwas
p395
(dp396
g5
VVBD
p397
sssS'3045'
p398
(dp399
VAll
p400
(dp401
g5
VDT
p402
ssVgood
p403
(dp404
g5
VJJ
p405
sVdep
p406
VAll
p407
sVadvmod
p408
Vpretty
p409
ssVpretty
p410
(dp411
g5
VRB
p412
ssg41
(dp413
g5
g41
sssS'3126'
p414
(dp415
Vand
p416
(dp417
g5
VCC
p418
ssg385
(dp419
g5
g41
ssVone
p420
(dp421
g5
VCD
p422
sVdet
p423
Vthis
p424
ssVthis
p425
(dp426
g5
VDT
p427
ssVskip
p428
(dp429
g5
VVB
p430
sVdobj
p431
Vone
p432
ssVyourself
p433
(dp434
g5
VPRP
p435
ssVtime
p436
(dp437
g5
VNN
p438
sVconj_and
p439
Vtrouble
p440
sVdet
p441
Vthe
p442
ssVthe
p443
(dp444
g5
VDT
p445
ssVSave
p446
(dp447
g5
VVB
p448
sVconj_and
p449
Vskip
p450
sVtmod
p451
Vtime
p452
sVdobj
p453
Vyourself
p454
ssVtrouble
p455
(dp456
g5
VNN
p457
sssS'1548'
p458
(dp459
Vand
p460
(dp461
g5
VCC
p462
ssVall
p463
(dp464
g5
VDT
p465
ssVwould
p466
(dp467
g5
VMD
p468
ssVto
p469
(dp470
g5
VTO
p471
ssVfood
p472
(dp473
g5
VNN
p474
sVdet
p475
VThe
p476
ssVis
p477
(dp478
g5
VVBZ
p479
ssVoverall
p480
(dp481
g5
VJJ
p482
ssVterrible
p483
(dp484
g5
VJJ
p485
sVcop
p486
Vis
p487
sVconj_and
p488
Voverall
p489
sVnsubj
p490
Vfood
p491
ssg332
(dp492
g5
g332
ssg37
(dp493
g5
VPRP
p494
ssVsay
p495
(dp496
g5
VVB
p497
sVaux
p498
Vto
p499
sVxcomp
p500
Vavoid
p501
ssVcosts
p502
(dp503
g5
VNNS
p504
sVdet
p505
Vall
p506
ssVat
p507
(dp508
g5
VIN
p509
ssVhave
p510
(dp511
g5
VVB
p512
sVaux
p513
Vwould
p514
sVnsubj
p515
g37
sVxcomp
p516
Vsay
p517
sVccomp
p518
Vterrible
p519
ssVThe
p520
(dp521
g5
VDT
p522
ssg41
(dp523
g5
g41
ssVavoid
p524
(dp525
g5
VVB
p526
sVprep_at
p527
Vcosts
p528
sssS'2152'
p529
(dp530
g41
(dp531
g5
g41
ssVThe
p532
(dp533
g5
VDT
p534
ssVfabulous
p535
(dp536
g5
VJJ
p537
sVcop
p538
Vare
p539
sVnsubj
p540
Vbagels
p541
ssVbagels
p542
(dp543
g5
VNNS
p544
sVdet
p545
VThe
p546
ssVare
p547
(dp548
g5
VVBP
p549
sssS'813'
p550
(dp551
Vand
p552
(dp553
g5
VCC
p554
ssVAll
p555
(dp556
g5
VPDT
p557
ssVwatering
p558
(dp559
g5
VNN
p560
sVcop
p561
Vwas
p562
sVnn
p563
Vmouth
p564
sVnsubj
p565
Vsteak
p566
ssV!!!
p567
(dp568
g5
VNN
p569
sVcop
p570
Vwas
p571
sVamod
p572
Vdelicious
p573
sVnsubj
p574
Vpasta
p575
ssVwas
p576
(dp577
g5
VVBD
p578
ssVappetizers
p579
(dp580
g5
VNNS
p581
sVdep
p582
VAll
p583
sVdet
p584
Vthe
p585
sVconj_and
p586
Vsalads
p587
ssg332
(dp588
g5
g332
ssVfabulous
p589
(dp590
g5
VJJ
p591
sVcop
p592
Vwere
p593
sVconj_and
p594
V!!!
p595
sVnsubj
p596
Vappetizers
p597
ssVmouth
p598
(dp599
g5
VNN
p600
ssVdelicious
p601
(dp602
g5
VJJ
p603
ssVwere
p604
(dp605
g5
VVBD
p606
ssVpasta
p607
(dp608
g5
VNN
p609
sVdet
p610
Vthe
p611
ssVthe
p612
(dp613
g5
VDT
p614
ssVsteak
p615
(dp616
g5
VNN
p617
sVdet
p618
Vthe
p619
ssVsalads
p620
(dp621
g5
VNNS
p622
sssS'2912'
p623
(dp624
Vand
p625
(dp626
g5
VCC
p627
ssVtasty
p628
(dp629
g5
VJJ
p630
sVcop
p631
Vwere
p632
sVnsubj
p633
Vdishes
p634
sVdep
p635
Vunique
p636
sVadvmod
p637
Vvery
p638
sVconj_and
p639
Vfresh
p640
sVprep_from
p641
Vsausages
p642
ssV've
p643
(dp644
g5
VVBP
p645
ssVbest
p646
(dp647
g5
VJJS
p648
sVdep
p649
Vthe
p650
sVrcmod
p651
Vhad
p652
sVconj_and
p653
Vfreshest
p654
ssVcream
p655
(dp656
g5
VNN
p657
sVdet
p658
Vthe
p659
sVnn
p660
Vice
p661
sVamod
p662
Vamazing
p663
ssVlamb
p664
(dp665
g5
VNN
p666
ssVfrom
p667
(dp668
g5
VIN
p669
ssVdishes
p670
(dp671
g5
VNNS
p672
sVdet
p673
VThe
p674
sVvmod
p675
Voffered
p676
ssVhad
p677
(dp678
g5
VVBN
p679
sVaux
p680
V've
p681
sVadvmod
p682
Vever
p683
sVnsubj
p684
g37
ssg332
(dp685
g5
g332
ssVice
p686
(dp687
g5
VNN
p688
ssg41
(dp689
g5
g41
ssVto
p690
(dp691
g5
VTO
p692
ssVamazing
p693
(dp694
g5
VJJ
p695
ssVfreshest
p696
(dp697
g5
VJJS
p698
ssV-LRB-
p699
(dp700
g5
V-LRB-
p701
ssVever
p702
(dp703
g5
VRB
p704
ssVvery
p705
(dp706
g5
VRB
p707
ssVoffered
p708
(dp709
g5
VVBN
p710
ssVsausages
p711
(dp712
g5
VNNS
p713
sVappos
p714
Vsardines
p715
sVdet
p716
Vthe
p717
sVnn
p718
Vlamb
p719
ssVsardines
p720
(dp721
g5
VNNS
p722
sVdep
p723
Vbest
p724
sVappos
p725
Vshrimp
p726
sVprep_with
p727
Vbiscuits
p728
ssVThe
p729
(dp730
g5
VDT
p731
ssVunique
p732
(dp733
g5
VJJ
p734
ssVwith
p735
(dp736
g5
VIN
p737
ssg37
(dp738
g5
VPRP
p739
ssV-RRB-
p740
(dp741
g5
V-RRB-
p742
ssVwhole
p743
(dp744
g5
VJJ
p745
ssVshrimp
p746
(dp747
g5
VNN
p748
sVprep_to
p749
Vcream
p750
sVamod
p751
Vwhole
p752
ssVlarge
p753
(dp754
g5
VJJ
p755
ssVpistachio
p756
(dp757
g5
VNN
p758
ssVwere
p759
(dp760
g5
VVBD
p761
ssVfresh
p762
(dp763
g5
VJJ
p764
ssVthe
p765
(dp766
g5
VDT
p767
ssVbiscuits
p768
(dp769
g5
VNNS
p770
sssS'2460'
p771
(dp772
VRESTAURANT
p773
(dp774
g5
VNNP
p775
sVnn
p776
VTHIS
p777
ssVTHIS
p778
(dp779
g5
VNNP
p780
ssg41
(dp781
g5
g41
ssVTRY
p782
(dp783
g5
VNNP
p784
ssVOU
p785
(dp786
g5
VNNP
p787
ssVMUST
p788
(dp789
g5
VNNP
p790
sssS'2708'
p791
(dp792
Vand
p793
(dp794
g5
VCC
p795
ssVfood
p796
(dp797
g5
VNN
p798
sVdet
p799
VThe
p800
ssVis
p801
(dp802
g5
VVBZ
p803
ssg332
(dp804
g5
g332
ssVpriced
p805
(dp806
g5
VVBN
p807
sVadvmod
p808
Vreasonably
p809
ssVdelicious
p810
(dp811
g5
VJJ
p812
sVconj_and
p813
Vpriced
p814
sVauxpass
p815
Vis
p816
sVnsubjpass
p817
Vfood
p818
sVamod
p819
Vfresh
p820
ssVfresh
p821
(dp822
g5
VJJ
p823
ssVThe
p824
(dp825
g5
VDT
p826
ssg41
(dp827
g5
g41
ssVreasonably
p828
(dp829
g5
VRB
p830
sssS'2707'
p831
(dp832
Vand
p833
(dp834
g5
VCC
p835
ssVleave
p836
(dp837
g5
VVB
p838
sVaux
p839
Vto
p840
ssVwo
p841
(dp842
g5
VMD
p843
ssVinside
p844
(dp845
g5
VRB
p846
ssg41
(dp847
g5
g41
ssVn't
p848
(dp849
g5
VRB
p850
ssVto
p851
(dp852
g5
VTO
p853
ssVwant
p854
(dp855
g5
VVB
p856
sVaux
p857
Vwo
p858
sVxcomp
p859
Vleave
p860
sVneg
p861
Vn't
p862
sVnsubj
p863
Vyou
p864
ssVGo
p865
(dp866
g5
VVB
p867
sVconj_and
p868
Vwant
p869
sVadvmod
p870
Vinside
p871
ssVyou
p872
(dp873
g5
VPRP
p874
sssS'3641'
p875
(dp876
Vthis
p877
(dp878
g5
VDT
p879
ssg41
(dp880
g5
g41
ssVgo
p881
(dp882
g5
VVB
p883
sVprep_with
p884
Vplace
p885
sVnsubj
p886
VYou
p887
sVneg
p888
Vnot
p889
sVacomp
p890
Vwrong
p891
sVaux
p892
Vcan
p893
ssVwrong
p894
(dp895
g5
VJJ
p896
ssVplace
p897
(dp898
g5
VNN
p899
sVdet
p900
Vthis
p901
ssVcan
p902
(dp903
g5
VMD
p904
ssVnot
p905
(dp906
g5
VRB
p907
ssVYou
p908
(dp909
g5
VPRP
p910
ssVwith
p911
(dp912
g5
VIN
p913
sssS'1709'
p914
(dp915
Vabout
p916
(dp917
g5
VRB
p918
ssVUnfortunately
p919
(dp920
g5
VRB
p921
ssVget
p922
(dp923
g5
VVB
p924
ssVfood
p925
(dp926
g5
VNN
p927
sVdet
p928
Vthe
p929
ssg332
(dp930
g5
g332
ssVup
p931
(dp932
g5
VRP
p933
ssVto
p934
(dp935
g5
VTO
p936
ssVsomething
p937
(dp938
g5
VNN
p939
sVcop
p940
Vwas
p941
sVnn
p942
VNOT
p943
sVvmod
p944
Vworked
p945
sVnsubj
p946
Vfood
p947
sVadvmod
p948
VUnfortunately
p949
ssVNOT
p950
(dp951
g5
VNNP
p952
ssVthe
p953
(dp954
g5
VDT
p955
ssg41
(dp956
g5
g41
ssVwas
p957
(dp958
g5
VVBD
p959
ssVworked
p960
(dp961
g5
VVBN
p962
sVaux
p963
Vto
p964
sVauxpass
p965
Vget
p966
sVadvmod
p967
Vabout
p968
sVprt
p969
Vup
p970
sssS'537'
p971
(dp972
g109
(dp973
g5
VDT
p974
ssVfavorite
p975
(dp976
g5
VNN
p977
sVdep
p978
VDefinitely
p979
sVdet
p980
g109
sVnn
p981
Vneighborhood
p982
ssVDefinitely
p983
(dp984
g5
VRB
p985
ssVneighborhood
p986
(dp987
g5
VNN
p988
ssg41
(dp989
g5
g41
sssS'2141'
p990
(dp991
Vfor
p992
(dp993
g5
VIN
p994
ssVdie
p995
(dp996
g5
VVB
p997
sVaux
p998
Vto
p999
sVprep
p1000
Vfor
p1001
ssVis
p1002
(dp1003
g5
VVBZ
p1004
sVxcomp
p1005
Vdie
p1006
sVnsubj
p1007
Vit
p1008
sVccomp
p1009
VTry
p1010
ssVcrunchy
p1011
(dp1012
g5
VJJ
p1013
ssVit
p1014
(dp1015
g5
VPRP
p1016
ssg332
(dp1017
g5
g332
ssVTry
p1018
(dp1019
g5
VVB
p1020
sVdobj
p1021
Vtuna
p1022
ssVto
p1023
(dp1024
g5
VTO
p1025
ssVthe
p1026
(dp1027
g5
VDT
p1028
ssg41
(dp1029
g5
g41
ssVtuna
p1030
(dp1031
g5
VNN
p1032
sVdet
p1033
Vthe
p1034
sVamod
p1035
Vcrunchy
p1036
sssS'924'
p1037
(dp1038
g109
(dp1039
g5
VDT
p1040
ssVbeautiful
p1041
(dp1042
g5
VJJ
p1043
ssVwe
p1044
(dp1045
g5
VPRP
p1046
ssVtheater
p1047
(dp1048
g5
VNN
p1049
sVdet
p1050
Vthe
p1051
ssVroom
p1052
(dp1053
g5
VNN
p1054
sVdet
p1055
g109
sVamod
p1056
Vbeautiful
p1057
ssVaway
p1058
(dp1059
g5
VRB
p1060
ssVhad
p1061
(dp1062
g5
VVBD
p1063
sVdobj
p1064
Vmeal
p1065
sVnsubj
p1066
Vwe
p1067
ssg41
(dp1068
g5
g41
ssV2
p1069
(dp1070
g5
VCD
p1071
ssVdelicious
p1072
(dp1073
g5
VJJ
p1074
ssVin
p1075
(dp1076
g5
VIN
p1077
ssVblocks
p1078
(dp1079
g5
VVBZ
p1080
sVprt
p1081
Vaway
p1082
sVccomp
p1083
Vhad
p1084
sVprep_with
p1085
Vtheater
p1086
sVnsubj
p1087
g1069
ssVthe
p1088
(dp1089
g5
VDT
p1090
ssVWith
p1091
(dp1092
g5
VIN
p1093
ssVmeal
p1094
(dp1095
g5
VNN
p1096
sVdet
p1097
g109
sVprep_in
p1098
Vroom
p1099
sVamod
p1100
Vdelicious
p1101
sssS'134'
p1102
(dp1103
Vand
p1104
(dp1105
g5
VCC
p1106
ssVfood
p1107
(dp1108
g5
VNN
p1109
sVdet
p1110
VThe
p1111
ssVis
p1112
(dp1113
g5
VVBZ
p1114
ssVquickly
p1115
(dp1116
g5
VRB
p1117
sVconj_and
p1118
Vefficiently
p1119
ssg41
(dp1120
g5
g41
ssVThe
p1121
(dp1122
g5
VDT
p1123
ssVprepared
p1124
(dp1125
g5
VJJ
p1126
sVcop
p1127
Vis
p1128
sVadvmod
p1129
Vquickly
p1130
sVnsubj
p1131
Vfood
p1132
ssVefficiently
p1133
(dp1134
g5
VRB
p1135
sssS'1124'
p1136
(dp1137
Vand
p1138
(dp1139
g5
VCC
p1140
ssVoverbearing
p1141
(dp1142
g5
VVBG
p1143
sVneg
p1144
Vnot
p1145
ssVsweet
p1146
(dp1147
g5
VJJ
p1148
sVcop
p1149
Vwas
p1150
sVconj_and
p1151
Vaccomodating
p1152
sVnsubj
p1153
Vwaitress
p1154
ssVaccomodating
p1155
(dp1156
g5
VVBG
p1157
sVdep
p1158
Voverbearing
p1159
ssg332
(dp1160
g5
g332
ssg41
(dp1161
g5
g41
ssVnot
p1162
(dp1163
g5
VRB
p1164
ssVOur
p1165
(dp1166
g5
VPRP$
p1167
ssVwas
p1168
(dp1169
g5
VVBD
p1170
ssVwaitress
p1171
(dp1172
g5
VNN
p1173
sVposs
p1174
VOur
p1175
sssS'193'
p1176
(dp1177
Vand
p1178
(dp1179
g5
VCC
p1180
ssVgreat
p1181
(dp1182
g5
VJJ
p1183
sVconj_and
p1184
Vpriced
p1185
sVauxpass
p1186
Vis
p1187
sVnsubjpass
p1188
Vfood
p1189
ssVfood
p1190
(dp1191
g5
VNN
p1192
sVdet
p1193
VThe
p1194
ssVreasonably
p1195
(dp1196
g5
VRB
p1197
ssVpriced
p1198
(dp1199
g5
VVBN
p1200
sVadvmod
p1201
Vreasonably
p1202
ssVThe
p1203
(dp1204
g5
VDT
p1205
ssg41
(dp1206
g5
g41
ssVis
p1207
(dp1208
g5
VVBZ
p1209
sssS'3440'
p1210
(dp1211
VEven
p1212
(dp1213
g5
VRB
p1214
ssVgood
p1215
(dp1216
g5
VJJ
p1217
ssVthough
p1218
(dp1219
g5
VIN
p1220
ssVseafood
p1221
(dp1222
g5
VNN
p1223
sVposs
p1224
Vits
p1225
sVamod
p1226
Vgood
p1227
ssg332
(dp1228
g5
g332
ssg41
(dp1229
g5
g41
ssVhigh
p1230
(dp1231
g5
VJJ
p1232
sVcop
p1233
Vare
p1234
sVadvmod
p1235
Vtoo
p1236
sVprep_though
p1237
Vseafood
p1238
sVnsubj
p1239
Vprices
p1240
ssVare
p1241
(dp1242
g5
VVBP
p1243
ssVprices
p1244
(dp1245
g5
VNNS
p1246
sVdet
p1247
Vthe
p1248
ssVthe
p1249
(dp1250
g5
VDT
p1251
ssVits
p1252
(dp1253
g5
VPRP$
p1254
ssVtoo
p1255
(dp1256
g5
VRB
p1257
sssS'83'
p1258
(dp1259
Vprices
p1260
(dp1261
g5
VNNS
p1262
sVamod
p1263
VReasonable
p1264
ssVReasonable
p1265
(dp1266
g5
VJJ
p1267
ssg41
(dp1268
g5
g41
sssS'3471'
p1269
(dp1270
Vand
p1271
(dp1272
g5
VCC
p1273
ssVagain
p1274
(dp1275
g5
VRB
p1276
ssVtwice
p1277
(dp1278
g5
VRB
p1279
ssg37
(dp1280
g5
VPRP
p1281
ssVnever
p1282
(dp1283
g5
VRB
p1284
ssVbeen
p1285
(dp1286
g5
VVBN
p1287
sVconj_and
p1288
Vgo
p1289
sVnsubj
p1290
g37
sVadvmod
p1291
Vtwice
p1292
sVprep_to
p1293
VJoya
p1294
sVaux
p1295
V've
p1296
ssV've
p1297
(dp1298
g5
VVBP
p1299
ssVwill
p1300
(dp1301
g5
VMD
p1302
ssVto
p1303
(dp1304
g5
VTO
p1305
ssg41
(dp1306
g5
g41
ssVgo
p1307
(dp1308
g5
VVB
p1309
sVaux
p1310
Vwill
p1311
sVadvmod
p1312
Vagain
p1313
sVneg
p1314
Vnever
p1315
sVnsubj
p1316
g37
ssVJoya
p1317
(dp1318
g5
VNNP
p1319
sssS'3575'
p1320
(dp1321
Vstanding
p1322
(dp1323
g5
VNN
p1324
sVprep_by
p1325
Vdoor
p1326
sVdet
p1327
Vthe
p1328
sVnn
p1329
Vcouple
p1330
ssg109
(dp1331
g5
VDT
p1332
ssVwe
p1333
(dp1334
g5
VPRP
p1335
ssVsaid
p1336
(dp1337
g5
VVBD
p1338
sVprep_to
p1339
Vwaiter
p1340
sVnsubj
p1341
Vstanding
p1342
sVadvcl
p1343
Vleaving
p1344
ssVdoor
p1345
(dp1346
g5
VNN
p1347
sVdet
p1348
Vthe
p1349
ssVwaiter
p1350
(dp1351
g5
VNN
p1352
sVdet
p1353
Vanother
p1354
ssVcouple
p1355
(dp1356
g5
VNN
p1357
ssVin
p1358
(dp1359
g5
VIN
p1360
ssg332
(dp1361
g5
g332
ssVleaving
p1362
(dp1363
g5
VVBG
p1364
sVaux
p1365
Vwere
p1366
sVnsubj
p1367
Vwe
p1368
sVmark
p1369
VAs
p1370
ssVto
p1371
(dp1372
g5
VTO
p1373
ssVAs
p1374
(dp1375
g5
VIN
p1376
ssV're
p1377
(dp1378
g5
VVBP
p1379
sVneg
p1380
Vnot
p1381
sVnsubj
p1382
Vwe
p1383
sVprep_in
p1384
Vhurry
p1385
sVccomp
p1386
Vsaid
p1387
ssVanother
p1388
(dp1389
g5
VDT
p1390
ssVwere
p1391
(dp1392
g5
VVBD
p1393
ssVnot
p1394
(dp1395
g5
VRB
p1396
ssVthe
p1397
(dp1398
g5
VDT
p1399
ssVhurry
p1400
(dp1401
g5
VNN
p1402
sVdet
p1403
g109
ssg41
(dp1404
g5
g41
ssVby
p1405
(dp1406
g5
VIN
p1407
sssS'3478'
p1408
(dp1409
Vand
p1410
(dp1411
g5
VCC
p1412
ssVeven
p1413
(dp1414
g5
VRB
p1415
ssV's
p1416
(dp1417
g5
VVBZ
p1418
ssVcrowded
p1419
(dp1420
g5
VJJ
p1421
sVcop
p1422
V's
p1423
sVnsubj
p1424
Vit
p1425
sVadvmod
p1426
Vso
p1427
sVccomp
p1428
Vtalk
p1429
sVconj_and
p1430
Vloud
p1431
ssVca
p1432
(dp1433
g5
VMD
p1434
ssVit
p1435
(dp1436
g5
VPRP
p1437
ssVnext
p1438
(dp1439
g5
VJJ
p1440
ssVn't
p1441
(dp1442
g5
VRB
p1443
ssVto
p1444
(dp1445
g5
VTO
p1446
ssVperson
p1447
(dp1448
g5
VNN
p1449
sVdet
p1450
Vthe
p1451
sVprep_next_to
p1452
Vyou
p1453
ssVso
p1454
(dp1455
g5
VRB
p1456
ssg41
(dp1457
g5
g41
ssVyou
p1458
(dp1459
g5
VPRP
p1460
ssVNow
p1461
(dp1462
g5
VRB
p1463
ssVloud
p1464
(dp1465
g5
VJJ
p1466
ssVthe
p1467
(dp1468
g5
VDT
p1469
ssVtalk
p1470
(dp1471
g5
VVB
p1472
sVnsubj
p1473
Vyou
p1474
sVneg
p1475
Vn't
p1476
sVadvmod
p1477
Veven
p1478
sVprep_to
p1479
Vperson
p1480
sVaux
p1481
Vca
p1482
sssS'3020'
p1483
(dp1484
Vfrom
p1485
(dp1486
g5
VIN
p1487
ssVto
p1488
(dp1489
g5
VTO
p1490
ssVabsolutely
p1491
(dp1492
g5
VRB
p1493
ssVwas
p1494
(dp1495
g5
VVBD
p1496
ssVfish
p1497
(dp1498
g5
VNN
p1499
sVprep_to
p1500
Vrice
p1501
sVdet
p1502
Vthe
p1503
ssg332
(dp1504
g5
g332
ssg41
(dp1505
g5
g41
ssVeverything
p1506
(dp1507
g5
VNN
p1508
sVprep_from
p1509
Vfish
p1510
ssVamazing
p1511
(dp1512
g5
VJJ
p1513
sVcop
p1514
Vwas
p1515
sVadvmod
p1516
Vabsolutely
p1517
sVnsubj
p1518
Vgoodness
p1519
ssVseaweed
p1520
(dp1521
g5
VNN
p1522
sVdet
p1523
Vthe
p1524
ssVgoodness
p1525
(dp1526
g5
VNN
p1527
sVappos
p1528
Veverything
p1529
sVposs
p1530
VMy
p1531
ssVthe
p1532
(dp1533
g5
VDT
p1534
ssVrice
p1535
(dp1536
g5
VNN
p1537
sVprep_to
p1538
Vseaweed
p1539
sVdet
p1540
Vthe
p1541
ssVMy
p1542
(dp1543
g5
VPRP$
p1544
sssS'2171'
p1545
(dp1546
Vfood
p1547
(dp1548
g5
VNN
p1549
ssVThe
p1550
(dp1551
g5
VDT
p1552
ssVoptions
p1553
(dp1554
g5
VNNS
p1555
sVdep
p1556
Vrule
p1557
sVdet
p1558
VThe
p1559
sVnn
p1560
Vfood
p1561
ssVrule
p1562
(dp1563
g5
VNN
p1564
ssg41
(dp1565
g5
g41
sssS'1401'
p1566
(dp1567
VA
p1568
(dp1569
g5
VDT
p1570
ssg385
(dp1571
g5
g41
ssVup
p1572
(dp1573
g5
VRB
p1574
sVnpadvmod
p1575
Vthumbs
p1576
ssVtwo
p1577
(dp1578
g5
VCD
p1579
ssVhearty
p1580
(dp1581
g5
VJJ
p1582
ssVthumbs
p1583
(dp1584
g5
VNNS
p1585
sVnum
p1586
Vtwo
p1587
sVdet
p1588
g1568
sVamod
p1589
Vhearty
p1590
sssS'2077'
p1591
(dp1592
Vgood
p1593
(dp1594
g5
VJJ
p1595
sVadvmod
p1596
Vvery
p1597
ssVvery
p1598
(dp1599
g5
VRB
p1600
ssVwell
p1601
(dp1602
g5
VRB
p1603
sVadvmod
p1604
Vas
p1605
ssg41
(dp1606
g5
g41
ssVas
p1607
(dp1608
g5
VRB
p1609
ssVbreads
p1610
(dp1611
g5
VNNS
p1612
sVamod
p1613
Vwell
p1614
sssS'586'
p1615
(dp1616
V's
p1617
(dp1618
g5
VPOS
p1619
ssVWed.
p1620
(dp1621
g5
VNNP
p1622
sVposs
p1623
VRao
p1624
sVamod
p1625
Vlast
p1626
ssg37
(dp1627
g5
VPRP
p1628
ssVRao
p1629
(dp1630
g5
VNNP
p1631
ssg41
(dp1632
g5
g41
ssVat
p1633
(dp1634
g5
VIN
p1635
ssVlast
p1636
(dp1637
g5
VJJ
p1638
ssVwas
p1639
(dp1640
g5
VVBD
p1641
sVprep_at
p1642
VWed.
p1643
sVnsubj
p1644
g37
sssS'2769'
p1645
(dp1646
g1568
(dp1647
g5
VDT
p1648
ssVdelight
p1649
(dp1650
g5
VNN
p1651
sVdet
p1652
g1568
sVnn
p1653
Vguaranteeed
p1654
ssVguaranteeed
p1655
(dp1656
g5
VNN
p1657
ssg385
(dp1658
g5
g41
sssS'2609'
p1659
(dp1660
Vand
p1661
(dp1662
g5
VCC
p1663
ssVagain
p1664
(dp1665
g5
VRB
p1666
sVadvmod
p1667
Vback
p1668
ssVwould
p1669
(dp1670
g5
VMD
p1671
ssg37
(dp1672
g5
VPRP
p1673
ssVOverall
p1674
(dp1675
g5
VJJ
p1676
ssVit
p1677
(dp1678
g5
VPRP
p1679
ssVback
p1680
(dp1681
g5
VRB
p1682
ssVrecommend
p1683
(dp1684
g5
VVB
p1685
sVconj_and
p1686
Vgo
p1687
sVnsubj
p1688
g37
sVadvmod
p1689
VOverall
p1690
sVdobj
p1691
Vit
p1692
sVaux
p1693
Vwould
p1694
ssVgo
p1695
(dp1696
g5
VVB
p1697
sVadvmod
p1698
Vagain
p1699
ssg41
(dp1700
g5
g41
sssS'381'
p1701
(dp1702
Vand
p1703
(dp1704
g5
VCC
p1705
ssVSala
p1706
(dp1707
g5
VNNP
p1708
ssVis
p1709
(dp1710
g5
VVBZ
p1711
ssVwell-portioned
p1712
(dp1713
g5
VJJ
p1714
ssg41
(dp1715
g5
g41
ssVEverything
p1716
(dp1717
g5
VNN
p1718
sVprep_at
p1719
VThai
p1720
ssVtasty
p1721
(dp1722
g5
VJJ
p1723
sVcop
p1724
Vis
p1725
sVconj_and
p1726
Vwell-portioned
p1727
sVnsubj
p1728
VEverything
p1729
ssVat
p1730
(dp1731
g5
VIN
p1732
ssVThai
p1733
(dp1734
g5
VNNP
p1735
sVnn
p1736
VSala
p1737
sssS'109'
p1738
(dp1739
Vand
p1740
(dp1741
g5
VCC
p1742
ssVhave
p1743
(dp1744
g5
VVBP
p1745
ssVextra
p1746
(dp1747
g5
VJJ
p1748
ssVas
p1749
(dp1750
g5
VIN
p1751
ssVare
p1752
(dp1753
g5
VVBP
p1754
ssVdelicious
p1755
(dp1756
g5
VJJ
p1757
ssVsalads
p1758
(dp1759
g5
VNNS
p1760
sVdet
p1761
Vthe
p1762
ssVreally
p1763
(dp1764
g5
VRB
p1765
ssVlamb
p1766
(dp1767
g5
VNN
p1768
sVdet
p1769
g109
ssVn't
p1770
(dp1771
g5
VRB
p1772
ssVlemon
p1773
(dp1774
g5
VJJ
p1775
sVconj_and
p1776
Voil
p1777
ssVdressed
p1778
(dp1779
g5
VVBN
p1780
sVprep_with
p1781
Vlemon
p1782
ssg332
(dp1783
g5
g332
ssg41
(dp1784
g5
g41
ssVnice
p1785
(dp1786
g5
VJJ
p1787
sVcop
p1788
Vare
p1789
sVnsubj
p1790
Vsalads
p1791
sVadvmod
p1792
Vreally
p1793
sVccomp
p1794
Vdressed
p1795
ssVoil
p1796
(dp1797
g5
VNN
p1798
sVnn
p1799
Volive
p1800
sVamod
p1801
Vextra
p1802
ssVthat
p1803
(dp1804
g5
VDT
p1805
ssg37
(dp1806
g5
VPRP
p1807
ssVolive
p1808
(dp1809
g5
VNN
p1810
ssVwith
p1811
(dp1812
g5
VIN
p1813
ssVeat
p1814
(dp1815
g5
VVB
p1816
sVaux
p1817
Vhave
p1818
sVccomp
p1819
Vchop
p1820
sVneg
p1821
Vn't
p1822
sVnsubj
p1823
g37
ssg109
(dp1824
g5
VDT
p1825
ssVchop
p1826
(dp1827
g5
VVB
p1828
sVprep_as
p1829
Vthat
p1830
sVnsubj
p1831
Vlamb
p1832
ssVvirgnin
p1833
(dp1834
g5
VNN
p1835
ssVthe
p1836
(dp1837
g5
VDT
p1838
sssS'3315'
p1839
(dp1840
Vand
p1841
(dp1842
g5
VCC
p1843
ssg109
(dp1844
g5
VDT
p1845
ssVgreat
p1846
(dp1847
g5
VJJ
p1848
ssVevening
p1849
(dp1850
g5
VNN
p1851
sVdet
p1852
g109
sVamod
p1853
Vgreat
p1854
ssVhave
p1855
(dp1856
g5
VVBP
p1857
sVxcomp
p1858
Vbeginning
p1859
sVnsubj
p1860
Vyou
p1861
ssVservice
p1862
(dp1863
g5
VNN
p1864
sVconj_and
p1865
Vfood
p1866
sVdet
p1867
Vthat
p1868
sVamod
p1869
Vgreat
p1870
ssVthat
p1871
(dp1872
g5
VDT
p1873
ssVfood
p1874
(dp1875
g5
VNN
p1876
sVamod
p1877
Vgreat
p1878
ssVof
p1879
(dp1880
g5
VIN
p1881
ssVprice
p1882
(dp1883
g5
VNN
p1884
sVdet
p1885
g109
sVamod
p1886
Vreasonable
p1887
ssVyourself
p1888
(dp1889
g5
VPRP
p1890
ssVto
p1891
(dp1892
g5
VTO
p1893
ssVAdd
p1894
(dp1895
g5
VVB
p1896
sVprep_to
p1897
Vservice
p1898
sVprep_at
p1899
Vprice
p1900
sVconj_and
p1901
Vhave
p1902
ssVat
p1903
(dp1904
g5
VIN
p1905
ssVreasonable
p1906
(dp1907
g5
VJJ
p1908
ssVyou
p1909
(dp1910
g5
VPRP
p1911
ssg41
(dp1912
g5
g41
ssVbeginning
p1913
(dp1914
g5
VNN
p1915
sVprep_of
p1916
Vevening
p1917
sVdet
p1918
Vthe
p1919
sVnsubj
p1920
Vyourself
p1921
ssVthe
p1922
(dp1923
g5
VDT
p1924
sssS'3018'
p1925
(dp1926
Veven
p1927
(dp1928
g5
VRB
p1929
ssVdo
p1930
(dp1931
g5
VVBP
p1932
ssVOh
p1933
(dp1934
g5
VUH
p1935
ssg332
(dp1936
g5
g332
ssVn't
p1937
(dp1938
g5
VRB
p1939
ssVme
p1940
(dp1941
g5
VPRP
p1942
ssg385
(dp1943
g5
g41
ssVlet
p1944
(dp1945
g5
VVB
p1946
sVnsubj
p1947
Vbills
p1948
sVdep
p1949
VOh
p1950
sVneg
p1951
Vn't
p1952
sVadvmod
p1953
Veven
p1954
sVccomp
p1955
Vstart
p1956
sVaux
p1957
Vdo
p1958
ssVhow
p1959
(dp1960
g5
VWRB
p1961
ssVwere
p1962
(dp1963
g5
VVBD
p1964
ssVthe
p1965
(dp1966
g5
VDT
p1967
ssVbills
p1968
(dp1969
g5
VNNS
p1970
sVrcmod
p1971
Vwere
p1972
sVdet
p1973
Vthe
p1974
ssVwith
p1975
(dp1976
g5
VIN
p1977
ssVstart
p1978
(dp1979
g5
VVB
p1980
sVprep_with
p1981
Vexpensive
p1982
sVnsubj
p1983
Vme
p1984
ssVexpensive
p1985
(dp1986
g5
VJJ
p1987
sVadvmod
p1988
Vhow
p1989
sssS'1656'
p1990
(dp1991
Vand
p1992
(dp1993
g5
VCC
p1994
ssVthe
p1995
(dp1996
g5
VDT
p1997
ssVwe
p1998
(dp1999
g5
VPRP
p2000
ssVspicy
p2001
(dp2002
g5
VNN
p2003
ssVhad
p2004
(dp2005
g5
VVBN
p2006
sVaux
p2007
V've
p2008
sVadvmod
p2009
Vever
p2010
sVnsubj
p2011
Vwe
p2012
ssVsalmon
p2013
(dp2014
g5
VNN
p2015
ssV've
p2016
(dp2017
g5
VVBP
p2018
ssVare
p2019
(dp2020
g5
VVBP
p2021
ssVThe
p2022
(dp2023
g5
VDT
p2024
ssg41
(dp2025
g5
g41
ssVever
p2026
(dp2027
g5
VRB
p2028
ssVtuna
p2029
(dp2030
g5
VNN
p2031
sVconj_and
p2032
Vsalmon
p2033
sVdet
p2034
VThe
p2035
sVnn
p2036
Vspicy
p2037
ssVbest
p2038
(dp2039
g5
VJJS
p2040
sVcop
p2041
Vare
p2042
sVrcmod
p2043
Vhad
p2044
sVdet
p2045
Vthe
p2046
sVnsubj
p2047
Vtuna
p2048
sssS'2041'
p2049
(dp2050
Vtasted
p2051
(dp2052
g5
VVBD
p2053
sVnsubj
p2054
g37
ssg37
(dp2055
g5
VPRP
p2056
ssVlambc
p2057
(dp2058
g5
VNN
p2059
sVcop
p2060
Vwere
p2061
sVrcmod
p2062
Vhops
p2063
sVdet
p2064
Vthe
p2065
sVnsubj
p2066
Vthing
p2067
ssg41
(dp2068
g5
g41
ssVthing
p2069
(dp2070
g5
VNN
p2071
sVrcmod
p2072
Vtasted
p2073
sVdet
p2074
VThe
p2075
sVamod
p2076
Vbest
p2077
ssVwere
p2078
(dp2079
g5
VVBD
p2080
ssVThe
p2081
(dp2082
g5
VDT
p2083
ssVhops
p2084
(dp2085
g5
VVBZ
p2086
ssVthe
p2087
(dp2088
g5
VDT
p2089
ssVbest
p2090
(dp2091
g5
VJJS
p2092
sssS'1380'
p2093
(dp2094
V!!!
p2095
(dp2096
g5
VIN
p2097
ssVDefinately
p2098
(dp2099
g5
VRB
p2100
ssVout
p2101
(dp2102
g5
VRP
p2103
ssVcheck
p2104
(dp2105
g5
VVB
p2106
sVprt
p2107
Vout
p2108
sVadvmod
p2109
VDefinately
p2110
sVprep
p2111
V!!!
p2112
sVdobj
p2113
Vit
p2114
ssVit
p2115
(dp2116
g5
VPRP
p2117
sssS'2575'
p2118
(dp2119
Vwill
p2120
(dp2121
g5
VMD
p2122
ssVbe
p2123
(dp2124
g5
VVB
p2125
sVaux
p2126
Vwill
p2127
sVadvmod
p2128
Vback
p2129
sVnsubj
p2130
VWe
p2131
ssVWe
p2132
(dp2133
g5
VPRP
p2134
ssVback
p2135
(dp2136
g5
VRB
p2137
ssg41
(dp2138
g5
g41
sssS'2673'
p2139
(dp2140
Vwould
p2141
(dp2142
g5
VMD
p2143
ssg37
(dp2144
g5
VPRP
p2145
ssVback
p2146
(dp2147
g5
VRB
p2148
ssg41
(dp2149
g5
g41
ssVtho
p2150
(dp2151
g5
VRB
p2152
ssVgo
p2153
(dp2154
g5
VVB
p2155
sVaux
p2156
Vwould
p2157
sVadvmod
p2158
Vtho
p2159
sVnsubj
p2160
g37
sssS'1242'
p2161
(dp2162
Vcoconut
p2163
(dp2164
g5
VNN
p2165
ssVgood
p2166
(dp2167
g5
VJJ
p2168
sVcc
p2169
VBut
p2170
sVcop
p2171
Vwas
p2172
sVnsubj
p2173
Vrice
p2174
ssVBut
p2175
(dp2176
g5
VCC
p2177
ssg41
(dp2178
g5
g41
ssVthe
p2179
(dp2180
g5
VDT
p2181
ssVrice
p2182
(dp2183
g5
VNN
p2184
sVdet
p2185
Vthe
p2186
sVnn
p2187
Vcoconut
p2188
ssVwas
p2189
(dp2190
g5
VVBD
p2191
sssS'2164'
p2192
(dp2193
VWe
p2194
(dp2195
g5
VPRP
p2196
ssVdissappointed
p2197
(dp2198
g5
VVBN
p2199
sVneg
p2200
Vnot
p2201
sVagent
p2202
Vgem
p2203
sVauxpass
p2204
Vwere
p2205
sVnsubjpass
p2206
VWe
p2207
sVprep_in
p2208
Vbit
p2209
ssVthis
p2210
(dp2211
g5
VDT
p2212
ssVwere
p2213
(dp2214
g5
VVBD
p2215
ssVlittle
p2216
(dp2217
g5
VJJ
p2218
ssVleast
p2219
(dp2220
g5
VJJS
p2221
ssVby
p2222
(dp2223
g5
VIN
p2224
ssVin
p2225
(dp2226
g5
VIN
p2227
ssVnot
p2228
(dp2229
g5
VRB
p2230
ssVthe
p2231
(dp2232
g5
VDT
p2233
ssg41
(dp2234
g5
g41
ssVbit
p2235
(dp2236
g5
VNN
p2237
sVdet
p2238
Vthe
p2239
sVamod
p2240
Vleast
p2241
ssVgem
p2242
(dp2243
g5
VNN
p2244
sVdet
p2245
Vthis
p2246
sVamod
p2247
Vlittle
p2248
sssS'2459'
p2249
(dp2250
V!!!
p2251
(dp2252
g5
VCD
p2253
ssVto
p2254
(dp2255
g5
VTO
p2256
ssg37
(dp2257
g5
VPRP
p2258
ssVback
p2259
(dp2260
g5
VRB
p2261
ssVkeep
p2262
(dp2263
g5
VVB
p2264
sVaux
p2265
Vto
p2266
sVxcomp
p2267
Vcoming
p2268
ssVreasons
p2269
(dp2270
g5
VNNS
p2271
sVadvmod
p2272
Venough
p2273
sVvmod
p2274
Vkeep
p2275
ssVenough
p2276
(dp2277
g5
VRB
p2278
ssVcoming
p2279
(dp2280
g5
VVBG
p2281
sVprt
p2282
Vback
p2283
sVdobj
p2284
V!!!
p2285
ssVgot
p2286
(dp2287
g5
VVBD
p2288
sVdobj
p2289
Vreasons
p2290
sVnsubj
p2291
g37
sssS'2591'
p2292
(dp2293
Vlast
p2294
(dp2295
g5
VJJ
p2296
ssVthis
p2297
(dp2298
g5
VDT
p2299
ssVis
p2300
(dp2301
g5
VVBZ
p2302
ssVwilliamsburg
p2303
(dp2304
g5
VNN
p2305
sVdet
p2306
Vthe
p2307
ssVAnyway
p2308
(dp2309
g5
VRB
p2310
ssg332
(dp2311
g5
g332
ssg37
(dp2312
g5
VPRP
p2313
ssVtime
p2314
(dp2315
g5
VNN
p2316
sVcop
p2317
Vis
p2318
sVnsubj
p2319
Vthis
p2320
sVrcmod
p2321
Vcross
p2322
sVadvmod
p2323
VAnyway
p2324
sVdet
p2325
Vthe
p2326
sVamod
p2327
Vlast
p2328
ssVcross
p2329
(dp2330
g5
VVBP
p2331
sVdobj
p2332
Vwilliamsburg
p2333
sVnsubj
p2334
g37
ssVthe
p2335
(dp2336
g5
VDT
p2337
ssg41
(dp2338
g5
g41
sssS'628'
p2339
(dp2340
Vand
p2341
(dp2342
g5
VCC
p2343
ssg109
(dp2344
g5
VDT
p2345
ssVfood
p2346
(dp2347
g5
VNN
p2348
sVconj_and
p2349
Vdrinks
p2350
sVprep_with
p2351
Vsmile
p2352
sVposs
p2353
Vour
p2354
sVnsubj
p2355
Vus
p2356
ssVwith
p2357
(dp2358
g5
VIN
p2359
ssVdrinks
p2360
(dp2361
g5
VNNS
p2362
ssVus
p2363
(dp2364
g5
VPRP
p2365
ssVserver
p2366
(dp2367
g5
VNN
p2368
sVdet
p2369
VThe
p2370
ssg41
(dp2371
g5
g41
ssVsmile
p2372
(dp2373
g5
VNN
p2374
sVdet
p2375
g109
ssVour
p2376
(dp2377
g5
VPRP$
p2378
ssVserved
p2379
(dp2380
g5
VVBD
p2381
sVxcomp
p2382
Vfood
p2383
ssVThe
p2384
(dp2385
g5
VDT
p2386
ssVcool
p2387
(dp2388
g5
VJJ
p2389
sVcop
p2390
Vwas
p2391
sVconj_and
p2392
Vserved
p2393
sVadvmod
p2394
Vreally
p2395
sVnsubj
p2396
Vserver
p2397
ssVwas
p2398
(dp2399
g5
VVBD
p2400
ssVreally
p2401
(dp2402
g5
VRB
p2403
sssS'2451'
p2404
(dp2405
Vprices
p2406
(dp2407
g5
VNNS
p2408
sVdet
p2409
VThe
p2410
ssVThe
p2411
(dp2412
g5
VDT
p2413
ssg41
(dp2414
g5
g41
ssVfantastic
p2415
(dp2416
g5
VJJ
p2417
sVcop
p2418
Vwere
p2419
sVnsubj
p2420
Vprices
p2421
ssVwere
p2422
(dp2423
g5
VVBD
p2424
sssS'1471'
p2425
(dp2426
g1568
(dp2427
g5
VDT
p2428
ssVand
p2429
(dp2430
g5
VCC
p2431
ssVabout
p2432
(dp2433
g5
VIN
p2434
ssV20
p2435
(dp2436
g5
VCD
p2437
ssV$
p2438
(dp2439
g5
g2438
sVcop
p2440
Vis
p2441
sVnsubj
p2442
Vlarge
p2443
sVdep
p2444
Veach
p2445
sVconj_and
p2446
Vare
p2447
sVnum
p2448
V3
p2449
ssVis
p2450
(dp2451
g5
VVBZ
p2452
ssg332
(dp2453
g5
g332
ssg41
(dp2454
g5
g41
ssVlarge
p2455
(dp2456
g5
VJJ
p2457
sVdet
p2458
g1568
ssg2449
(dp2459
g5
VCD
p2460
ssVtoppings
p2461
(dp2462
g5
VNNS
p2463
ssVare
p2464
(dp2465
g5
VVBP
p2466
sVprep_about
p2467
g2438
sVnsubj
p2468
Vtoppings
p2469
ssVeach
p2470
(dp2471
g5
VDT
p2472
sssS'179'
p2473
(dp2474
Vand
p2475
(dp2476
g5
VCC
p2477
ssVgreat
p2478
(dp2479
g5
VJJ
p2480
ssVprompt
p2481
(dp2482
g5
VJJ
p2483
sVcop
p2484
Vwas
p2485
sVconj_and
p2486
Vgreat
p2487
sVnsubj
p2488
VService
p2489
ssVService
p2490
(dp2491
g5
VNNP
p2492
ssg332
(dp2493
g5
g332
ssg41
(dp2494
g5
g41
ssVwas
p2495
(dp2496
g5
VVBD
p2497
ssVfriendly
p2498
(dp2499
g5
VJJ
p2500
sssS'2806'
p2501
(dp2502
Vjust
p2503
(dp2504
g5
VRB
p2505
ssVover
p2506
(dp2507
g5
VIN
p2508
ssVyears
p2509
(dp2510
g5
VNNS
p2511
sVnum
p2512
V8
p2513
ssVat
p2514
(dp2515
g5
VIN
p2516
ssVin
p2517
(dp2518
g5
VIN
p2519
ssVnative
p2520
(dp2521
g5
VJJ
p2522
sVdet
p2523
g109
sVamod
p2524
VJapanese
p2525
ssVTristate
p2526
(dp2527
g5
VNNP
p2528
ssVfor
p2529
(dp2530
g5
VIN
p2531
ssVarea
p2532
(dp2533
g5
VNN
p2534
sVprep_for
p2535
Vyears
p2536
sVdet
p2537
Vthe
p2538
sVnn
p2539
VTristate
p2540
ssg332
(dp2541
g5
g332
ssg41
(dp2542
g5
g41
ssg2513
(dp2543
g5
VCD
p2544
sVquantmod
p2545
Vover
p2546
ssVwas
p2547
(dp2548
g5
VVBD
p2549
ssVlived
p2550
(dp2551
g5
VVBN
p2552
sVprep_as
p2553
Vnative
p2554
sVnsubj
p2555
g37
sVconj_but
p2556
Vamazed
p2557
sVprep_in
p2558
Varea
p2559
sVaux
p2560
V've
p2561
ssg37
(dp2562
g5
VPRP
p2563
ssVbut
p2564
(dp2565
g5
VCC
p2566
ssg109
(dp2567
g5
VDT
p2568
ssVthis
p2569
(dp2570
g5
VDT
p2571
ssVJapanese
p2572
(dp2573
g5
VJJ
p2574
ssV've
p2575
(dp2576
g5
VVBP
p2577
ssVAs
p2578
(dp2579
g5
VIN
p2580
ssVso
p2581
(dp2582
g5
VRB
p2583
sVadvmod
p2584
Vjust
p2585
ssVplace
p2586
(dp2587
g5
VNN
p2588
sVdet
p2589
Vthis
p2590
ssVthe
p2591
(dp2592
g5
VDT
p2593
ssVamazed
p2594
(dp2595
g5
VVBN
p2596
sVprep_at
p2597
Vplace
p2598
sVauxpass
p2599
Vwas
p2600
sVadvmod
p2601
Vso
p2602
sVnsubjpass
p2603
g37
sssS'3292'
p2604
(dp2605
Vis
p2606
(dp2607
g5
VVBZ
p2608
ssVnotch
p2609
(dp2610
g5
VNN
p2611
sVcop
p2612
Vis
p2613
sVamod
p2614
Vtop
p2615
sVnsubj
p2616
VService
p2617
ssVtop
p2618
(dp2619
g5
VJJ
p2620
ssVService
p2621
(dp2622
g5
VNNP
p2623
ssg41
(dp2624
g5
g41
sssS'2882'
p2625
(dp2626
Vlamb
p2627
(dp2628
g5
VNN
p2629
ssVand
p2630
(dp2631
g5
VCC
p2632
ssVchettinad
p2633
(dp2634
g5
VNN
p2635
sVcop
p2636
Vwas
p2637
sVnn
p2638
Vlamb
p2639
sVdet
p2640
Vthe
p2641
sVmark
p2642
Vas
p2643
sVconj_and
p2644
Vnaan
p2645
ssVsweet
p2646
(dp2647
g5
VJJ
p2648
ssVnaan
p2649
(dp2650
g5
VNN
p2651
sVdet
p2652
Vthe
p2653
sVamod
p2654
Vgarlic
p2655
ssVbut
p2656
(dp2657
g5
VCC
p2658
ssg41
(dp2659
g5
g41
ssVforgettable
p2660
(dp2661
g5
VJJ
p2662
sVcop
p2663
Vwas
p2664
sVnsubj
p2665
Vrasamalai
p2666
ssVas
p2667
(dp2668
g5
VIN
p2669
ssVgarlic
p2670
(dp2671
g5
VJJ
p2672
ssVexcellent
p2673
(dp2674
g5
VJJ
p2675
sVcop
p2676
Vwas
p2677
sVdep
p2678
Vchettinad
p2679
sVconj_but
p2680
Vforgettable
p2681
sVnsubj
p2682
Vlassi
p2683
ssVlassi
p2684
(dp2685
g5
VNN
p2686
sVdet
p2687
VThe
p2688
sVamod
p2689
Vsweet
p2690
ssVThe
p2691
(dp2692
g5
VDT
p2693
ssVwas
p2694
(dp2695
g5
VVBD
p2696
ssVthe
p2697
(dp2698
g5
VDT
p2699
ssVrasamalai
p2700
(dp2701
g5
VNN
p2702
sVdet
p2703
Vthe
p2704
sssS'2202'
p2705
(dp2706
VWhat
p2707
(dp2708
g5
VWDT
p2709
sVamod
p2710
Vmore
p2711
ssVcould
p2712
(dp2713
g5
VMD
p2714
ssVwant
p2715
(dp2716
g5
VVB
p2717
sVaux
p2718
Vcould
p2719
sVnsubj
p2720
Vyou
p2721
sVdobj
p2722
VWhat
p2723
ssVyou
p2724
(dp2725
g5
VPRP
p2726
ssV?
p2727
(dp2728
g5
g41
ssVmore
p2729
(dp2730
g5
VRBR
p2731
sssS'3368'
p2732
(dp2733
g109
(dp2734
g5
VDT
p2735
ssVdelivered
p2736
(dp2737
g5
VVBD
p2738
sVnsubj
p2739
Vthey
p2740
sVadvmod
p2741
Vonly
p2742
sVmark
p2743
VIf
p2744
ssVmake
p2745
(dp2746
g5
VVB
p2747
sVaux
p2748
V'd
p2749
sVnsubj
p2750
Vthey
p2751
sVdobj
p2752
Vmint
p2753
sVadvcl
p2754
Vdelivered
p2755
ssg332
(dp2756
g5
g332
ssVonly
p2757
(dp2758
g5
VRB
p2759
ssV'd
p2760
(dp2761
g5
VMD
p2762
ssg385
(dp2763
g5
g41
ssVthey
p2764
(dp2765
g5
VPRP
p2766
ssVmint
p2767
(dp2768
g5
VNN
p2769
sVdet
p2770
g109
ssVIf
p2771
(dp2772
g5
VIN
p2773
sssS'2205'
p2774
(dp2775
g109
(dp2776
g5
VDT
p2777
ssVcertainly
p2778
(dp2779
g5
VRB
p2780
ssVgood
p2781
(dp2782
g5
VJJ
p2783
sVcop
p2784
Vis
p2785
sVconj_but
p2786
Vplace
p2787
sVadvmod
p2788
Vusually
p2789
sVnsubj
p2790
Vfood
p2791
ssVrelaxing
p2792
(dp2793
g5
VNN
p2794
ssVfood
p2795
(dp2796
g5
VNN
p2797
sVdet
p2798
VThe
p2799
ssVis
p2800
(dp2801
g5
VVBZ
p2802
ssVit
p2803
(dp2804
g5
VPRP
p2805
ssVbut
p2806
(dp2807
g5
VCC
p2808
ssg41
(dp2809
g5
g41
ssVn't
p2810
(dp2811
g5
VRB
p2812
ssVto
p2813
(dp2814
g5
VTO
p2815
ssVplace
p2816
(dp2817
g5
VNN
p2818
sVcop
p2819
Vis
p2820
sVvmod
p2821
Vgo
p2822
sVnn
p2823
Vrelaxing
p2824
sVnsubj
p2825
Vit
p2826
sVneg
p2827
Vn't
p2828
sVadvmod
p2829
Vcertainly
p2830
sVdet
p2831
g109
ssVgo
p2832
(dp2833
g5
VVB
p2834
sVaux
p2835
Vto
p2836
ssVusually
p2837
(dp2838
g5
VRB
p2839
ssVThe
p2840
(dp2841
g5
VDT
p2842
sssS'3081'
p2843
(dp2844
Vand
p2845
(dp2846
g5
VCC
p2847
ssVlamb
p2848
(dp2849
g5
VNN
p2850
ssVokra
p2851
(dp2852
g5
VNN
p2853
sVappos
p2854
Vbindi
p2855
ssVanything
p2856
(dp2857
g5
VNN
p2858
sVprep_with
p2859
Vlamb
p2860
ssV-RRB-
p2861
(dp2862
g5
V-RRB-
p2863
ssg37
(dp2864
g5
VPRP
p2865
ssVbindi
p2866
(dp2867
g5
VNN
p2868
ssg332
(dp2869
g5
g332
ssVshrimp
p2870
(dp2871
g5
VNN
p2872
sVconj_and
p2873
Vanything
p2874
sVdet
p2875
Vthe
p2876
sVamod
p2877
Vgarlic
p2878
ssVgarlic
p2879
(dp2880
g5
VJJ
p2881
ssVrecommend
p2882
(dp2883
g5
VVBP
p2884
sVdobj
p2885
Vshrimp
p2886
sVnsubj
p2887
g37
ssV-LRB-
p2888
(dp2889
g5
V-LRB-
p2890
ssVthe
p2891
(dp2892
g5
VDT
p2893
ssg41
(dp2894
g5
g41
ssVwith
p2895
(dp2896
g5
VIN
p2897
sssS'2811'
p2898
(dp2899
VConsistently
p2900
(dp2901
g5
VRB
p2902
ssVTapas
p2903
(dp2904
g5
VNNPS
p2905
sVamod
p2906
VJapanese
p2907
ssVgood
p2908
(dp2909
g5
VJJ
p2910
sVdep
p2911
VTapas
p2912
sVadvmod
p2913
VConsistently
p2914
ssVJapanese
p2915
(dp2916
g5
VJJ
p2917
ssg41
(dp2918
g5
g41
sssS'2186'
p2919
(dp2920
Vrestaurant
p2921
(dp2922
g5
VNN
p2923
sVcop
p2924
Vis
p2925
sVnsubj
p2926
VIt
p2927
sVadvmod
p2928
Vby
p2929
sVamod
p2930
Vfavorite
p2931
sVprep_in
p2932
VBrooklyn
p2933
sVposs
p2934
Vmy
p2935
ssVfar
p2936
(dp2937
g5
VRB
p2938
ssVis
p2939
(dp2940
g5
VVBZ
p2941
ssVfavorite
p2942
(dp2943
g5
VJJ
p2944
ssVIt
p2945
(dp2946
g5
VPRP
p2947
ssg41
(dp2948
g5
g41
ssVBrooklyn
p2949
(dp2950
g5
VNNP
p2951
ssVin
p2952
(dp2953
g5
VIN
p2954
ssVmy
p2955
(dp2956
g5
VPRP$
p2957
ssVby
p2958
(dp2959
g5
VIN
p2960
sVadvmod
p2961
Vfar
p2962
sssS'1593'
p2963
(dp2964
Vfamily
p2965
(dp2966
g5
VNN
p2967
sVposs
p2968
Vmy
p2969
sVamod
p2970
Vwhole
p2971
ssg37
(dp2972
g5
VPRP
p2973
ssVwhole
p2974
(dp2975
g5
VJJ
p2976
ssVam
p2977
(dp2978
g5
VVBP
p2979
ssVback
p2980
(dp2981
g5
VRB
p2982
ssVnext
p2983
(dp2984
g5
VJJ
p2985
ssVtime
p2986
(dp2987
g5
VNN
p2988
sVadvmod
p2989
Vback
p2990
sVamod
p2991
Vnext
p2992
ssVmy
p2993
(dp2994
g5
VPRP$
p2995
ssg41
(dp2996
g5
g41
ssVbringing
p2997
(dp2998
g5
VVBG
p2999
sVaux
p3000
Vam
p3001
sVdobj
p3002
Vfamily
p3003
sVtmod
p3004
Vtime
p3005
sVnsubj
p3006
g37
sssS'3077'
p3007
(dp3008
g1568
(dp3009
g5
VDT
p3010
ssVpleasant
p3011
(dp3012
g5
VJJ
p3013
ssg41
(dp3014
g5
g41
ssVsurprise
p3015
(dp3016
g5
VNN
p3017
sVdet
p3018
g1568
sVamod
p3019
Vpleasant
p3020
sssS'3170'
p3021
(dp3022
Vand
p3023
(dp3024
g5
VCC
p3025
ssVgreat
p3026
(dp3027
g5
VJJ
p3028
ssVGood
p3029
(dp3030
g5
VJJ
p3031
ssVselections
p3032
(dp3033
g5
VNNS
p3034
sVnn
p3035
Vbeverage
p3036
sVamod
p3037
Vgreat
p3038
ssVbagels
p3039
(dp3040
g5
VNNS
p3041
ssVspreads
p3042
(dp3043
g5
VNNS
p3044
sVconj_and
p3045
Vbagels
p3046
sVamod
p3047
Vtasty
p3048
ssg332
(dp3049
g5
g332
ssg41
(dp3050
g5
g41
ssVbeverage
p3051
(dp3052
g5
VNN
p3053
ssVtasty
p3054
(dp3055
g5
VJJ
p3056
sVadvmod
p3057
Vreally
p3058
ssVreally
p3059
(dp3060
g5
VRB
p3061
sssS'2211'
p3062
(dp3063
VAnd
p3064
(dp3065
g5
VCC
p3066
ssVpathetic
p3067
(dp3068
g5
VJJ
p3069
sVcc
p3070
VAnd
p3071
sVcop
p3072
Vwas
p3073
sVnsubj
p3074
Vsoup
p3075
ssg41
(dp3076
g5
g41
ssVsoup
p3077
(dp3078
g5
VNN
p3079
sVdet
p3080
Vthe
p3081
sVnn
p3082
VKha
p3083
ssVTom
p3084
(dp3085
g5
VNNP
p3086
ssVKha
p3087
(dp3088
g5
VNNP
p3089
ssVthe
p3090
(dp3091
g5
VDT
p3092
ssVwas
p3093
(dp3094
g5
VVBD
p3095
sssS'3681'
p3096
(dp3097
g109
(dp3098
g5
VDT
p3099
ssVand
p3100
(dp3101
g5
VCC
p3102
ssVgreat
p3103
(dp3104
g5
VJJ
p3105
sVcop
p3106
Vwas
p3107
sVnsubj
p3108
Vdeal
p3109
sVccomp
p3110
Vgood
p3111
ssVgood
p3112
(dp3113
g5
VJJ
p3114
sVcop
p3115
Vwas
p3116
sVadvmod
p3117
Vvery
p3118
sVnsubj
p3119
Vfood
p3120
ssVdeal
p3121
(dp3122
g5
VNN
p3123
sVconj_and
p3124
Vplace
p3125
sVdet
p3126
g109
sVamod
p3127
Vgreat
p3128
ssVfood
p3129
(dp3130
g5
VNN
p3131
sVdet
p3132
VThe
p3133
ssVself
p3134
(dp3135
g5
VNN
p3136
sVposs
p3137
Vits
p3138
ssg332
(dp3139
g5
g332
ssVits
p3140
(dp3141
g5
VPRP$
p3142
ssVvery
p3143
(dp3144
g5
VRB
p3145
ssVplace
p3146
(dp3147
g5
VNN
p3148
sVdep
p3149
Vself
p3150
sVdet
p3151
Vthe
p3152
ssVThe
p3153
(dp3154
g5
VDT
p3155
ssg41
(dp3156
g5
g41
ssVwas
p3157
(dp3158
g5
VVBD
p3159
ssVthe
p3160
(dp3161
g5
VDT
p3162
sssS'3372'
p3163
(dp3164
Vand
p3165
(dp3166
g5
VCC
p3167
ssg37
(dp3168
g5
VPRP
p3169
ssVmany
p3170
(dp3171
g5
VJJ
p3172
ssVnever
p3173
(dp3174
g5
VRB
p3175
ssVbeen
p3176
(dp3177
g5
VVBN
p3178
ssV've
p3179
(dp3180
g5
VVBP
p3181
ssVhave
p3182
(dp3183
g5
VVBP
p3184
ssVtime
p3185
(dp3186
g5
VNN
p3187
sVconj_and
p3188
Vdisappointed
p3189
sVcop
p3190
Vbeen
p3191
sVnsubj
p3192
g37
sVamod
p3193
Vmany
p3194
sVaux
p3195
V've
p3196
ssg41
(dp3197
g5
g41
ssVdisappointed
p3198
(dp3199
g5
VVBN
p3200
sVaux
p3201
Vhave
p3202
sVauxpass
p3203
Vbeen
p3204
sVneg
p3205
Vnever
p3206
sssS'1180'
p3207
(dp3208
Vabout
p3209
(dp3210
g5
VIN
p3211
ssVeveryone
p3212
(dp3213
g5
VNN
p3214
ssg332
(dp3215
g5
g332
ssVit
p3216
(dp3217
g5
VPRP
p3218
ssVgo
p3219
(dp3220
g5
VVB
p3221
sVdep
p3222
Vhurry
p3223
sVadvcl
p3224
Vfinds
p3225
ssg41
(dp3226
g5
g41
ssVGo
p3227
(dp3228
g5
VVB
p3229
sVdep
p3230
Vgo
p3231
ssVhurry
p3232
(dp3233
g5
VVB
p3234
ssVout
p3235
(dp3236
g5
VRP
p3237
ssVfinds
p3238
(dp3239
g5
VVBZ
p3240
sVprt
p3241
Vout
p3242
sVnsubj
p3243
Veveryone
p3244
sVprep_about
p3245
Vit
p3246
sVmark
p3247
Vbefore
p3248
ssVbefore
p3249
(dp3250
g5
VIN
p3251
sssS'3208'
p3252
(dp3253
VDo
p3254
(dp3255
g5
VVBP
p3256
ssVTokyo
p3257
(dp3258
g5
VNNP
p3259
ssVleave
p3260
(dp3261
g5
VVB
p3262
sVaux
p3263
VDo
p3264
sVprepc_without
p3265
Vtrying
p3266
sVneg
p3267
Vn't
p3268
ssVin
p3269
(dp3270
g5
VIN
p3271
ssVOne
p3272
(dp3273
g5
VCD
p3274
ssVn't
p3275
(dp3276
g5
VRB
p3277
ssg41
(dp3278
g5
g41
ssVwithout
p3279
(dp3280
g5
VIN
p3281
ssVNight
p3282
(dp3283
g5
VNN
p3284
sVnum
p3285
VOne
p3286
sVprep_in
p3287
VTokyo
p3288
ssVtrying
p3289
(dp3290
g5
VVBG
p3291
sVdobj
p3292
VNight
p3293
sssS'1455'
p3294
(dp3295
VCity
p3296
(dp3297
g5
VNNP
p3298
sVnn
p3299
VYork
p3300
ssVall
p3301
(dp3302
g5
VDT
p3303
sVprep_of
p3304
VCity
p3305
ssVrestaurant
p3306
(dp3307
g5
VNN
p3308
sVcop
p3309
Vis
p3310
sVnsubj
p3311
VThis
p3312
sVamod
p3313
VItalian
p3314
sVprep_in
p3315
Vall
p3316
sVposs
p3317
Vmy
p3318
ssVThis
p3319
(dp3320
g5
VDT
p3321
ssVof
p3322
(dp3323
g5
VIN
p3324
ssVis
p3325
(dp3326
g5
VVBZ
p3327
ssVfavorite
p3328
(dp3329
g5
VJJ
p3330
ssg41
(dp3331
g5
g41
ssVYork
p3332
(dp3333
g5
VNNP
p3334
ssVin
p3335
(dp3336
g5
VIN
p3337
ssVNew
p3338
(dp3339
g5
VNNP
p3340
ssVmy
p3341
(dp3342
g5
VPRP$
p3343
ssVItalian
p3344
(dp3345
g5
VJJ
p3346
sssS'1105'
p3347
(dp3348
Vthis
p3349
(dp3350
g5
VDT
p3351
ssVneighborhood
p3352
(dp3353
g5
VNN
p3354
ssVfor
p3355
(dp3356
g5
VIN
p3357
ssg37
(dp3358
g5
VPRP
p3359
ssVspot
p3360
(dp3361
g5
VNN
p3362
sVprep_for
p3363
Vyears
p3364
sVdet
p3365
Vthis
p3366
sVnn
p3367
Vneighborhood
p3368
ssVbeen
p3369
(dp3370
g5
VVBN
p3371
ssVyears
p3372
(dp3373
g5
VNNS
p3374
ssVto
p3375
(dp3376
g5
VTO
p3377
ssVhave
p3378
(dp3379
g5
VVBP
p3380
ssVcoming
p3381
(dp3382
g5
VVBG
p3383
sVaux
p3384
Vbeen
p3385
sVprep_to
p3386
Vspot
p3387
sVnsubj
p3388
g37
ssg41
(dp3389
g5
g41
sssS'2751'
p3390
(dp3391
Vwould
p3392
(dp3393
g5
VMD
p3394
ssg37
(dp3395
g5
VPRP
p3396
ssVback
p3397
(dp3398
g5
VRB
p3399
ssg41
(dp3400
g5
g41
ssVn't
p3401
(dp3402
g5
VRB
p3403
ssVdefinitely
p3404
(dp3405
g5
VRB
p3406
ssVgo
p3407
(dp3408
g5
VVB
p3409
sVaux
p3410
Vwould
p3411
sVadvmod
p3412
Vback
p3413
sVneg
p3414
Vn't
p3415
sVnsubj
p3416
g37
sssS'2105'
p3417
(dp3418
g1568
(dp3419
g5
VDT
p3420
ssVand
p3421
(dp3422
g5
VCC
p3423
ssVpork
p3424
(dp3425
g5
VNN
p3426
ssVskip
p3427
(dp3428
g5
VVB
p3429
sVdobj
p3430
Vcake
p3431
ssg332
(dp3432
g5
g332
ssg41
(dp3433
g5
g41
ssVfew
p3434
(dp3435
g5
VJJ
p3436
ssVbuns
p3437
(dp3438
g5
VNNS
p3439
sVnn
p3440
Vpork
p3441
ssVcustards
p3442
(dp3443
g5
VNNS
p3444
sVnn
p3445
Vegg
p3446
ssVturnip
p3447
(dp3448
g5
VNN
p3449
ssVroast
p3450
(dp3451
g5
VNN
p3452
ssVcake
p3453
(dp3454
g5
VNN
p3455
sVconj_and
p3456
Vcustards
p3457
sVdet
p3458
Vthe
p3459
sVnn
p3460
Vturnip
p3461
ssVtips
p3462
(dp3463
g5
VNNS
p3464
sVdep
p3465
Vskip
p3466
sVdet
p3467
g1568
sVamod
p3468
Vfew
p3469
ssg202
(dp3470
g5
g202
ssVegg
p3471
(dp3472
g5
VNN
p3473
ssVthe
p3474
(dp3475
g5
VDT
p3476
sssS'882'
p3477
(dp3478
Vand
p3479
(dp3480
g5
VCC
p3481
ssg109
(dp3482
g5
VDT
p3483
ssVatmosphere
p3484
(dp3485
g5
VNN
p3486
ssVlot
p3487
(dp3488
g5
VRB
p3489
sVdet
p3490
g109
ssVservice
p3491
(dp3492
g5
VNN
p3493
ssVfood
p3494
(dp3495
g5
VNN
p3496
sVconj_and
p3497
Vservice
p3498
sVdet
p3499
Vthe
p3500
ssVcould
p3501
(dp3502
g5
VMD
p3503
ssVambiance
p3504
(dp3505
g5
VNN
p3506
sVconj_and
p3507
Vatmosphere
p3508
sVdet
p3509
Vthe
p3510
ssVgreat
p3511
(dp3512
g5
VJJ
p3513
sVcop
p3514
Vwere
p3515
sVnsubj
p3516
Vambiance
p3517
sVmark
p3518
VWhile
p3519
ssVbeen
p3520
(dp3521
g5
VVBN
p3522
ssg332
(dp3523
g5
g332
ssVbetter
p3524
(dp3525
g5
VJJR
p3526
sVcop
p3527
Vbeen
p3528
sVnsubj
p3529
Vfood
p3530
sVadvcl
p3531
Vgreat
p3532
sVaux
p3533
Vhave
p3534
sVnpadvmod
p3535
Vlot
p3536
ssVWhile
p3537
(dp3538
g5
VIN
p3539
ssVhave
p3540
(dp3541
g5
VVB
p3542
ssVwere
p3543
(dp3544
g5
VVBD
p3545
ssVthe
p3546
(dp3547
g5
VDT
p3548
ssg41
(dp3549
g5
g41
sssS'742'
p3550
(dp3551
Vthe
p3552
(dp3553
g5
VDT
p3554
ssVatmosphere
p3555
(dp3556
g5
VNN
p3557
sVprepc_of
p3558
Vsitting
p3559
sVdet
p3560
VThe
p3561
sVamod
p3562
Voutdoor
p3563
ssVoutdoor
p3564
(dp3565
g5
VJJ
p3566
ssVfeet
p3567
(dp3568
g5
VNNS
p3569
sVnum
p3570
V50
p3571
ssVgo
p3572
(dp3573
g5
VVB
p3574
sVprep_on
p3575
Vavenue
p3576
sVprep
p3577
Vby
p3578
sVnsubj
p3579
Vworld
p3580
ssVavenue
p3581
(dp3582
g5
VNN
p3583
sVprep_on
p3584
Vevening
p3585
sVamod
p3586
V6th
p3587
ssVaway
p3588
(dp3589
g5
VRB
p3590
sVnpadvmod
p3591
Vfeet
p3592
ssVwatching
p3593
(dp3594
g5
VVBG
p3595
sVccomp
p3596
Vgo
p3597
ssg41
(dp3598
g5
g41
ssVwonderful
p3599
(dp3600
g5
VJJ
p3601
sVcop
p3602
Vwas
p3603
sVnsubj
p3604
Vatmosphere
p3605
ssVwas
p3606
(dp3607
g5
VVBD
p3608
ssVevening
p3609
(dp3610
g5
VNN
p3611
sVdet
p3612
g109
sVamod
p3613
Vcool
p3614
ssVsitting
p3615
(dp3616
g5
VVBG
p3617
sVprep_on
p3618
Vsidewalk
p3619
ssVworld
p3620
(dp3621
g5
VNN
p3622
sVdet
p3623
Vthe
p3624
ssVThe
p3625
(dp3626
g5
VDT
p3627
ssVby
p3628
(dp3629
g5
VIN
p3630
sVpcomp
p3631
Vaway
p3632
ssVcool
p3633
(dp3634
g5
VJJ
p3635
ssg109
(dp3636
g5
VDT
p3637
ssVon
p3638
(dp3639
g5
VIN
p3640
ssVof
p3641
(dp3642
g5
VIN
p3643
ssV50
p3644
(dp3645
g5
VCD
p3646
ssV6th
p3647
(dp3648
g5
VJJ
p3649
ssVsidewalk
p3650
(dp3651
g5
VNN
p3652
sVdet
p3653
Vthe
p3654
sVvmod
p3655
Vwatching
p3656
sssS'745'
p3657
(dp3658
g109
(dp3659
g5
VDT
p3660
ssVand
p3661
(dp3662
g5
VCC
p3663
ssVwe
p3664
(dp3665
g5
VPRP
p3666
ssVrepeat
p3667
(dp3668
g5
VNN
p3669
ssV'll
p3670
(dp3671
g5
VMD
p3672
ssVbe
p3673
(dp3674
g5
VVB
p3675
sVaux
p3676
V'll
p3677
sVadvmod
p3678
Vagain
p3679
sVnsubj
p3680
Vwe
p3681
ssVThis
p3682
(dp3683
g5
VDT
p3684
ssVvisit
p3685
(dp3686
g5
VNN
p3687
sVcop
p3688
Vwas
p3689
sVnn
p3690
Vrepeat
p3691
sVnsubj
p3692
VThis
p3693
sVdet
p3694
g109
sVconj_and
p3695
Vbe
p3696
ssVback
p3697
(dp3698
g5
VRB
p3699
ssg41
(dp3700
g5
g41
ssVdefinitely
p3701
(dp3702
g5
VRB
p3703
ssVagain
p3704
(dp3705
g5
VRB
p3706
sVadvmod
p3707
Vback
p3708
ssVwas
p3709
(dp3710
g5
VVBD
p3711
sssS'746'
p3712
(dp3713
g109
(dp3714
g5
VDT
p3715
ssVthis
p3716
(dp3717
g5
VDT
p3718
ssVwoman
p3719
(dp3720
g5
VNN
p3721
sVdet
p3722
g109
ssVrecently
p3723
(dp3724
g5
VRB
p3725
ssVrestaurant
p3726
(dp3727
g5
VNN
p3728
sVdet
p3729
Vthis
p3730
sVprep_with
p3731
Vwoman
p3732
ssg37
(dp3733
g5
VPRP
p3734
ssVmet
p3735
(dp3736
g5
VVBD
p3737
sVnsubj
p3738
g37
sVadvmod
p3739
Vrecently
p3740
sVmark
p3741
Vthat
p3742
ssVthat
p3743
(dp3744
g5
VIN
p3745
ssg41
(dp3746
g5
g41
ssVto
p3747
(dp3748
g5
VTO
p3749
ssVwent
p3750
(dp3751
g5
VVBD
p3752
sVprep_to
p3753
Vrestaurant
p3754
sVccomp
p3755
Vmet
p3756
sVnsubj
p3757
g37
ssVwith
p3758
(dp3759
g5
VIN
p3760
sssS'2630'
p3761
(dp3762
Vand
p3763
(dp3764
g5
VCC
p3765
ssVdo
p3766
(dp3767
g5
VVBP
p3768
sVdobj
p3769
Vchance
p3770
sVnsubj
p3771
g37
ssVget
p3772
(dp3773
g5
VVBP
p3774
sVnsubj
p3775
g37
ssg37
(dp3776
g5
VPRP
p3777
ssVbringing
p3778
(dp3779
g5
VVBG
p3780
sVadvmod
p3781
Vhere
p3782
sVdobj
p3783
Vfriends
p3784
ssg200
(dp3785
g5
g202
ssVhere
p3786
(dp3787
g5
VRB
p3788
ssg41
(dp3789
g5
g41
ssVchance
p3790
(dp3791
g5
VNN
p3792
sVrcmod
p3793
Vget
p3794
sVadvmod
p3795
Vso
p3796
sVdet
p3797
Vevery
p3798
ssVso
p3799
(dp3800
g5
VRB
p3801
ssVevery
p3802
(dp3803
g5
VDT
p3804
ssVfriends
p3805
(dp3806
g5
VNNS
p3807
ssVloving
p3808
(dp3809
g5
VJJ
p3810
sVdep
p3811
Vbringing
p3812
sVconj_and
p3813
Vdo
p3814
sssS'1159'
p3815
(dp3816
Vin
p3817
(dp3818
g5
VIN
p3819
ssVHUGE
p3820
(dp3821
g5
VJJ
p3822
ssVbiggest
p3823
(dp3824
g5
VJJS
p3825
sVrcmod
p3826
Vsee
p3827
sVdet
p3828
Vthe
p3829
ssV'll
p3830
(dp3831
g5
VMD
p3832
ssVsee
p3833
(dp3834
g5
VVB
p3835
sVaux
p3836
V'll
p3837
sVprep_in
p3838
VNY
p3839
sVnsubj
p3840
Vyou
p3841
ssVfloor
p3842
(dp3843
g5
VNN
p3844
sVdet
p3845
Vthe
p3846
sVnn
p3847
Vdance
p3848
sVamod
p3849
VHUGE
p3850
ssVdance
p3851
(dp3852
g5
VNN
p3853
ssVof
p3854
(dp3855
g5
VIN
p3856
ssVAfter
p3857
(dp3858
g5
VIN
p3859
ssg332
(dp3860
g5
g332
ssVone
p3861
(dp3862
g5
VCD
p3863
sVprep_of
p3864
Vbiggest
p3865
sVadvmod
p3866
Vprobably
p3867
ssVto
p3868
(dp3869
g5
VTO
p3870
ssVdinner
p3871
(dp3872
g5
VNN
p3873
ssVtake
p3874
(dp3875
g5
VVB
p3876
sVprep_after
p3877
Vdinner
p3878
sVprep_to
p3879
Vfloor
p3880
sVdobj
p3881
Vone
p3882
ssVNY
p3883
(dp3884
g5
VNNP
p3885
ssVyou
p3886
(dp3887
g5
VPRP
p3888
ssVdate
p3889
(dp3890
g5
VNN
p3891
sVposs
p3892
Vyour
p3893
ssVprobably
p3894
(dp3895
g5
VRB
p3896
ssVthe
p3897
(dp3898
g5
VDT
p3899
ssg41
(dp3900
g5
g41
ssVyour
p3901
(dp3902
g5
VPRP$
p3903
sssS'1057'
p3904
(dp3905
Vand
p3906
(dp3907
g5
VCC
p3908
ssVdo
p3909
(dp3910
g5
VVBP
p3911
ssVslow
p3912
(dp3913
g5
VJJ
p3914
sVcop
p3915
Vis
p3916
sVconj_and
p3917
Vtoast
p3918
sVnsubj
p3919
Vservice
p3920
ssVservice
p3921
(dp3922
g5
VNN
p3923
ssVtoast
p3924
(dp3925
g5
VNN
p3926
sVaux
p3927
Vdo
p3928
sVneg
p3929
Vn't
p3930
sVnsubj
p3931
Vthey
p3932
ssVis
p3933
(dp3934
g5
VVBZ
p3935
ssVDrawbacks
p3936
(dp3937
g5
VNNS
p3938
sVdep
p3939
Vslow
p3940
ssVn't
p3941
(dp3942
g5
VRB
p3943
ssg385
(dp3944
g5
g41
ssVthey
p3945
(dp3946
g5
VPRP
p3947
ssg202
(dp3948
g5
g202
sssS'3343'
p3949
(dp3950
Vfood
p3951
(dp3952
g5
VNN
p3953
sVdet
p3954
VThe
p3955
ssVis
p3956
(dp3957
g5
VVBZ
p3958
ssg41
(dp3959
g5
g41
ssVinconsistent
p3960
(dp3961
g5
VJJ
p3962
sVcop
p3963
Vis
p3964
sVadvmod
p3965
Vnow
p3966
sVnsubj
p3967
Vfood
p3968
ssVThe
p3969
(dp3970
g5
VDT
p3971
ssVnow
p3972
(dp3973
g5
VRB
p3974
sssS'1194'
p3975
(dp3976
g109
(dp3977
g5
VDT
p3978
ssVand
p3979
(dp3980
g5
VCC
p3981
ssVimpressed
p3982
(dp3983
g5
VVBN
p3984
sVaux
p3985
Vhave
p3986
sVauxpass
p3987
Vbeen
p3988
sVneg
p3989
Vnot
p3990
ssg37
(dp3991
g5
VPRP
p3992
ssVof
p3993
(dp3994
g5
VIN
p3995
ssVcouple
p3996
(dp3997
g5
VNN
p3998
sVcop
p3999
Vbeen
p4000
sVnsubj
p4001
g37
sVadvmod
p4002
Vhere
p4003
sVdet
p4004
g109
sVconj_and
p4005
Vimpressed
p4006
sVprep_of
p4007
Vtimes
p4008
sVaux
p4009
V've
p4010
ssVhere
p4011
(dp4012
g5
VRB
p4013
ssV've
p4014
(dp4015
g5
VVBP
p4016
ssg41
(dp4017
g5
g41
ssVbeen
p4018
(dp4019
g5
VVBN
p4020
ssVhave
p4021
(dp4022
g5
VVBP
p4023
ssVnot
p4024
(dp4025
g5
VRB
p4026
ssVtimes
p4027
(dp4028
g5
VNNS
p4029
sssS'870'
p4030
(dp4031
Vand
p4032
(dp4033
g5
VCC
p4034
ssVgood
p4035
(dp4036
g5
VJJ
p4037
sVcop
p4038
Vis
p4039
sVnsubj
p4040
Vfood
p4041
sVadvmod
p4042
Vvery
p4043
sVconj_and
p4044
Vreasonable
p4045
sVprep_in
p4046
Vaddition
p4047
ssVreasonable
p4048
(dp4049
g5
VJJ
p4050
sVcop
p4051
Vare
p4052
sVnsubj
p4053
Vprices
p4054
ssVaddition
p4055
(dp4056
g5
VNN
p4057
ssVis
p4058
(dp4059
g5
VVBZ
p4060
ssg332
(dp4061
g5
g332
ssg41
(dp4062
g5
g41
ssVfood
p4063
(dp4064
g5
VNN
p4065
sVdet
p4066
Vthe
p4067
ssVare
p4068
(dp4069
g5
VVBP
p4070
ssVprices
p4071
(dp4072
g5
VNNS
p4073
sVdet
p4074
Vthe
p4075
ssVIn
p4076
(dp4077
g5
VIN
p4078
ssVvery
p4079
(dp4080
g5
VRB
p4081
ssVthe
p4082
(dp4083
g5
VDT
p4084
sssS'2740'
p4085
(dp4086
g41
(dp4087
g5
g41
ssVexperience
p4088
(dp4089
g5
VNN
p4090
sVamod
p4091
VExcellent
p4092
ssVExcellent
p4093
(dp4094
g5
VJJ
p4095
sssS'1112'
p4096
(dp4097
VGreat
p4098
(dp4099
g5
VJJ
p4100
sVdep
p4101
Vfind
p4102
ssV!!!
p4103
(dp4104
g5
VIN
p4105
ssVfind
p4106
(dp4107
g5
VVB
p4108
sVprep
p4109
V!!!
p4110
sssS'2507'
p4111
(dp4112
Vand
p4113
(dp4114
g5
VCC
p4115
ssVgreat
p4116
(dp4117
g5
VJJ
p4118
sVcop
p4119
Vis
p4120
sVconj_and
p4121
Vauthentic
p4122
sVnsubj
p4123
Vfood
p4124
ssVfood
p4125
(dp4126
g5
VNN
p4127
sVdet
p4128
VThe
p4129
ssVis
p4130
(dp4131
g5
VVBZ
p4132
ssg41
(dp4133
g5
g41
ssVThe
p4134
(dp4135
g5
VDT
p4136
ssVauthentic
p4137
(dp4138
g5
VJJ
p4139
sssS'1293'
p4140
(dp4141
VYUCK
p4142
(dp4143
g5
VNNP
p4144
ssVhorrific
p4145
(dp4146
g5
VJJ
p4147
sVcop
p4148
Vare
p4149
sVappos
p4150
VYUCK
p4151
sVamod
p4152
Vvomit-inducing
p4153
sVnsubj
p4154
Vcalzones
p4155
ssVcalzones
p4156
(dp4157
g5
VNNS
p4158
sVposs
p4159
VTheir
p4160
ssg332
(dp4161
g5
g332
ssg41
(dp4162
g5
g41
ssVTheir
p4163
(dp4164
g5
VPRP$
p4165
ssVbad
p4166
(dp4167
g5
VJJ
p4168
ssVare
p4169
(dp4170
g5
VVBP
p4171
ssVvomit-inducing
p4172
(dp4173
g5
VJJ
p4174
sVamod
p4175
Vbad
p4176
sssS'3188'
p4177
(dp4178
Vfor
p4179
(dp4180
g5
VIN
p4181
ssVoffice
p4182
(dp4183
g5
VNN
p4184
ssVthere
p4185
(dp4186
g5
VEX
p4187
ssVan
p4188
(dp4189
g5
VDT
p4190
ssVlunch
p4191
(dp4192
g5
VNN
p4193
sVdet
p4194
Van
p4195
sVnn
p4196
Voffice
p4197
ssVWent
p4198
(dp4199
g5
VVBD
p4200
sVprep_for
p4201
Vlunch
p4202
sVdobj
p4203
Vthere
p4204
ssg41
(dp4205
g5
g41
sssS'1698'
p4206
(dp4207
Vand
p4208
(dp4209
g5
VCC
p4210
ssVgood
p4211
(dp4212
g5
VJJ
p4213
sVcop
p4214
V's
p4215
sVadvmod
p4216
Valways
p4217
sVnsubj
p4218
Vit
p4219
ssV's
p4220
(dp4221
g5
VVBZ
p4222
ssVHave
p4223
(dp4224
g5
VVBP
p4225
ssVHouse
p4226
(dp4227
g5
VNNP
p4228
sVnn
p4229
VGinger
p4230
ssg332
(dp4231
g5
g332
ssVGinger
p4232
(dp4233
g5
VNNP
p4234
ssVtimes
p4235
(dp4236
g5
VNNS
p4237
sVamod
p4238
Vseveral
p4239
ssg41
(dp4240
g5
g41
ssVat
p4241
(dp4242
g5
VIN
p4243
ssVeaten
p4244
(dp4245
g5
VVBN
p4246
sVaux
p4247
VHave
p4248
sVtmod
p4249
Vtimes
p4250
sVprep_at
p4251
VHouse
p4252
sVconj_and
p4253
Vgood
p4254
ssValways
p4255
(dp4256
g5
VRB
p4257
ssVit
p4258
(dp4259
g5
VPRP
p4260
ssVseveral
p4261
(dp4262
g5
VJJ
p4263
sssS'201'
p4264
(dp4265
Vand
p4266
(dp4267
g5
VCC
p4268
ssg109
(dp4269
g5
VDT
p4270
ssVgood
p4271
(dp4272
g5
VJJ
p4273
sVcop
p4274
Vis
p4275
sVconj_and
p4276
Vhave
p4277
sVadvmod
p4278
VAnyway
p4279
sVnsubj
p4280
Vfood
p4281
ssVhave
p4282
(dp4283
g5
VVBP
p4284
sVdobj
p4285
Vlist
p4286
sVnsubj
p4287
Vthey
p4288
ssVfood
p4289
(dp4290
g5
VNN
p4291
sVdet
p4292
Vthe
p4293
ssVdecent
p4294
(dp4295
g5
VJJ
p4296
ssVis
p4297
(dp4298
g5
VVBZ
p4299
ssVlist
p4300
(dp4301
g5
VNN
p4302
sVdet
p4303
g109
sVnn
p4304
Vwine
p4305
sVamod
p4306
Vdecent
p4307
ssVAnyway
p4308
(dp4309
g5
VRB
p4310
ssg332
(dp4311
g5
g332
ssVright
p4312
(dp4313
g5
VJJ
p4314
sVcop
p4315
Vis
p4316
sVnsubj
p4317
Vprice
p4318
ssVthey
p4319
(dp4320
g5
VPRP
p4321
ssVthe
p4322
(dp4323
g5
VDT
p4324
ssg41
(dp4325
g5
g41
ssVprice
p4326
(dp4327
g5
VNN
p4328
sVdet
p4329
Vthe
p4330
ssVwine
p4331
(dp4332
g5
VNN
p4333
sssS'776'
p4334
(dp4335
Vfood
p4336
(dp4337
g5
VNN
p4338
sVdet
p4339
VThe
p4340
ssVThe
p4341
(dp4342
g5
VDT
p4343
ssVwas
p4344
(dp4345
g5
VVBD
p4346
ssVgreat
p4347
(dp4348
g5
VJJ
p4349
sVcop
p4350
Vwas
p4351
sVnsubj
p4352
Vfood
p4353
ssg41
(dp4354
g5
g41
sssS'1273'
p4355
(dp4356
Vand
p4357
(dp4358
g5
VCC
p4359
ssVgood
p4360
(dp4361
g5
VJJ
p4362
sVdep
p4363
Vtastes
p4364
sVadvmod
p4365
Vso
p4366
sVmark
p4367
Vthat
p4368
ssVlove
p4369
(dp4370
g5
VVBP
p4371
sVdep
p4372
Vgood
p4373
sVconj_and
p4374
Vcheap
p4375
sVdobj
p4376
Vfact
p4377
sVnsubj
p4378
g37
ssVthat
p4379
(dp4380
g5
VIN
p4381
ssg37
(dp4382
g5
VPRP
p4383
ssVis
p4384
(dp4385
g5
VVBZ
p4386
ssVcheap
p4387
(dp4388
g5
VJJ
p4389
sVcop
p4390
Vis
p4391
sVadvmod
p4392
Vso
p4393
ssg41
(dp4394
g5
g41
ssVtastes
p4395
(dp4396
g5
VNNS
p4397
sVdet
p4398
Vthe
p4399
sVnn
p4400
Vpizza
p4401
ssVso
p4402
(dp4403
g5
VRB
p4404
ssVthe
p4405
(dp4406
g5
VDT
p4407
ssVfact
p4408
(dp4409
g5
VNN
p4410
sVdet
p4411
Vthe
p4412
ssVpizza
p4413
(dp4414
g5
VNN
p4415
sssS'1884'
p4416
(dp4417
g109
(dp4418
g5
VDT
p4419
ssVfrom
p4420
(dp4421
g5
VIN
p4422
ssVimpressive
p4423
(dp4424
g5
VJJ
p4425
sVcop
p4426
Vwas
p4427
sVprep_with
p4428
Vselections
p4429
sVprep_to
p4430
Vescargot
p4431
sVnsubj
p4432
Vmenu
p4433
ssVwas
p4434
(dp4435
g5
VVBD
p4436
ssVmenu
p4437
(dp4438
g5
VNN
p4439
sVdet
p4440
VThe
p4441
ssVselections
p4442
(dp4443
g5
VNNS
p4444
sVvmod
p4445
Vranging
p4446
ssg332
(dp4447
g5
g332
ssg41
(dp4448
g5
g41
ssVburger
p4449
(dp4450
g5
VNN
p4451
sVdet
p4452
g109
ssVescargot
p4453
(dp4454
g5
VNN
p4455
ssVThe
p4456
(dp4457
g5
VDT
p4458
ssVsteak
p4459
(dp4460
g5
VNN
p4461
ssVwith
p4462
(dp4463
g5
VIN
p4464
ssVranging
p4465
(dp4466
g5
VVBG
p4467
sVprep_from
p4468
Vburger
p4469
ssVto
p4470
(dp4471
g5
VTO
p4472
sssS'3358'
p4473
(dp4474
Vlike
p4475
(dp4476
g5
VVB
p4477
sVaux
p4478
Vdid
p4479
sVadvmod
p4480
Vhere
p4481
sVneg
p4482
Vn't
p4483
sVnsubj
p4484
g37
ssVanything
p4485
(dp4486
g5
VNN
p4487
sVrcmod
p4488
Vlike
p4489
ssg37
(dp4490
g5
VPRP
p4491
ssVnever
p4492
(dp4493
g5
VRB
p4494
ssVhad
p4495
(dp4496
g5
VVBD
p4497
sVneg
p4498
Vnever
p4499
sVdobj
p4500
Vanything
p4501
sVnsubj
p4502
g37
ssVhere
p4503
(dp4504
g5
VRB
p4505
ssg41
(dp4506
g5
g41
ssVn't
p4507
(dp4508
g5
VRB
p4509
ssVdid
p4510
(dp4511
g5
VVBD
p4512
sssS'1609'
p4513
(dp4514
Vquick
p4515
(dp4516
g5
VJJ
p4517
sVcop
p4518
Vwas
p4519
sVnsubj
p4520
VService
p4521
ssVwas
p4522
(dp4523
g5
VVBD
p4524
ssVService
p4525
(dp4526
g5
VNNP
p4527
ssg41
(dp4528
g5
g41
sssS'3546'
p4529
(dp4530
Von
p4531
(dp4532
g5
VIN
p4533
ssVtried
p4534
(dp4535
g5
VVBN
p4536
sVaux
p4537
Vhave
p4538
sVadvmod
p4539
Vliterally
p4540
sVprep_on
p4541
Vrow
p4542
sVnsubj
p4543
g37
ssVrestaurant
p4544
(dp4545
g5
VNN
p4546
sVdet
p4547
Vevery
p4548
ssg37
(dp4549
g5
VPRP
p4550
ssVliterally
p4551
(dp4552
g5
VRB
p4553
sVpobj
p4554
Vrestaurant
p4555
ssg41
(dp4556
g5
g41
ssVevery
p4557
(dp4558
g5
VDT
p4559
ssVhave
p4560
(dp4561
g5
VVBP
p4562
ssVcurry
p4563
(dp4564
g5
VNN
p4565
ssVrow
p4566
(dp4567
g5
VNN
p4568
sVnn
p4569
Vcurry
p4570
sssS'948'
p4571
(dp4572
Vgood
p4573
(dp4574
g5
VJJ
p4575
sVcop
p4576
Vis
p4577
sVnsubj
p4578
Vwhich
p4579
ssVthat
p4580
(dp4581
g5
VIN
p4582
ssg37
(dp4583
g5
VPRP
p4584
ssVis
p4585
(dp4586
g5
VVBZ
p4587
ssVit
p4588
(dp4589
g5
VPRP
p4590
ssg41
(dp4591
g5
g41
ssVwhich
p4592
(dp4593
g5
VWDT
p4594
ssV'm
p4595
(dp4596
g5
VVBP
p4597
ssVopen
p4598
(dp4599
g5
VJJ
p4600
ssV24hrs
p4601
(dp4602
g5
VNNS
p4603
sVcop
p4604
Vis
p4605
sVnsubj
p4606
Vit
p4607
sVrcmod
p4608
Vgood
p4609
sVamod
p4610
Vopen
p4611
sVmark
p4612
Vthat
p4613
ssVtold
p4614
(dp4615
g5
VVBN
p4616
sVauxpass
p4617
V'm
p4618
sVnsubjpass
p4619
g37
sVccomp
p4620
V24hrs
p4621
sssS'1579'
p4622
(dp4623
VAnd
p4624
(dp4625
g5
VCC
p4626
ssVlarge
p4627
(dp4628
g5
VJJ
p4629
ssg41
(dp4630
g5
g41
ssVportions
p4631
(dp4632
g5
VNNS
p4633
sVamod
p4634
Vlarge
p4635
ssVreally
p4636
(dp4637
g5
VRB
p4638
sVcc
p4639
VAnd
p4640
sVpobj
p4641
Vportions
p4642
sssS'1769'
p4643
(dp4644
VLove
p4645
(dp4646
g5
VNNP
p4647
ssVYUKA
p4648
(dp4649
g5
VNNP
p4650
sVnn
p4651
VLove
p4652
ssg41
(dp4653
g5
g41
sss.